Microsoft (R) COFF/PE Dumper Version 14.16.27034.0
Copyright (C) Microsoft Corporation.  All rights reserved.


Dump of file D:\Software\liblion\x64\Debug\liblion.lib

File Type: LIBRARY

Archive member name at 8: /               
5E79E019 time/date Tue Mar 24 11:25:29 2020
         uid
         gid
       0 mode
   6BFD9 size
correct header end

    4007 public symbols

    D6408 ??$?0$$V@?$_Compressed_pair@V?$allocator@D@std@@V?$_String_val@U?$_Simple_types@D@std@@@2@$00@std@@QEAA@U_Zero_then_variadic_args_t@1@@Z
    D6408 ??$?0D@?$allocator@U_Container_proxy@std@@@std@@QEAA@AEBV?$allocator@D@1@@Z
    D6408 ??$?0V?$allocator@D@std@@$$V@?$_Compressed_pair@V?$allocator@D@std@@V?$_String_val@U?$_Simple_types@D@std@@@2@$00@std@@QEAA@U_One_then_variadic_args_t@1@$$QEAV?$allocator@D@1@@Z
    D6408 ??$?0V?$allocator@D@std@@X@?$_String_alloc@U?$_String_base_types@DV?$allocator@D@std@@@std@@@std@@QEAA@$$QEAV?$allocator@D@1@@Z
    D6408 ??$_Allocate@$0BA@U_Default_allocate_traits@std@@$0A@@std@@YAPEAX_K@Z
    D6408 ??$_Allocate_manually_vector_aligned@U_Default_allocate_traits@std@@@std@@YAPEAX_K@Z
    D6408 ??$_Convert_size@_K@std@@YA_K_K@Z
    D6408 ??$_Deallocate@$0BA@$0A@@std@@YAXPEAX_K@Z
    D6408 ??$_Deallocate_plain@V?$allocator@U_Container_proxy@std@@@std@@$0A@@std@@YAXAEAV?$allocator@U_Container_proxy@std@@@0@QEAU_Container_proxy@0@@Z
    D6408 ??$_Get_size_of_n@$00@std@@YA_K_K@Z
    D6408 ??$_Get_size_of_n@$0BA@@std@@YA_K_K@Z
    D6408 ??$_Getvals@_W@?$time_get@DV?$istreambuf_iterator@DU?$char_traits@D@std@@@std@@@std@@IEAAX_WAEBV_Locinfo@1@@Z
    D6408 ??$_Getvals@_W@?$time_get@_WV?$istreambuf_iterator@_WU?$char_traits@_W@std@@@std@@@std@@IEAAX_WAEBV_Locinfo@1@@Z
    D6408 ??$_Maklocstr@D@std@@YAPEADPEBDPEADAEBU_Cvtvec@@@Z
    D6408 ??$_Maklocstr@_W@std@@YAPEA_WPEBDPEA_WAEBU_Cvtvec@@@Z
    D6408 ??$_Max_value@_K@std@@YAAEB_KAEB_K0@Z
    D6408 ??$_Min_value@_K@std@@YAAEB_KAEB_K0@Z
    D6408 ??$_Reallocate_for@V<lambda_66f57f934f28d61049862f64df852ff0>@@PEBD@?$basic_string@DU?$char_traits@D@std@@V?$allocator@D@2@@std@@QEAAAEAV01@_KV<lambda_66f57f934f28d61049862f64df852ff0>@@PEBD@Z
    D6408 ??$_Unfancy@D@std@@YAPEADPEAD@Z
    D6408 ??$_Unfancy@U_Container_proxy@std@@@std@@YAPEAU_Container_proxy@0@PEAU10@@Z
    D6408 ??$addressof@PEAD@std@@YAPEAPEADAEAPEAD@Z
    D6408 ??$addressof@V?$_String_val@U?$_Simple_types@D@std@@@std@@@std@@YAPEAV?$_String_val@U?$_Simple_types@D@std@@@0@AEAV10@@Z
    D6408 ??$construct@PEADAEBQEAD@?$_Default_allocator_traits@V?$allocator@D@std@@@std@@SAXAEAV?$allocator@D@1@QEAPEADAEBQEAD@Z
    D6408 ??$construct@U_Container_proxy@std@@U12@@?$_Default_allocator_traits@V?$allocator@U_Container_proxy@std@@@std@@@std@@SAXAEAV?$allocator@U_Container_proxy@std@@@1@QEAU_Container_proxy@1@$$QEAU31@@Z
    D6408 ??$destroy@PEAD@?$_Default_allocator_traits@V?$allocator@D@std@@@std@@SAXAEAV?$allocator@D@1@QEAPEAD@Z
    D6408 ??$destroy@U_Container_proxy@std@@@?$_Default_allocator_traits@V?$allocator@U_Container_proxy@std@@@std@@@std@@SAXAEAV?$allocator@U_Container_proxy@std@@@1@QEAU_Container_proxy@1@@Z
    D6408 ??$forward@AEBQEAD@std@@YAAEBQEADAEBQEAD@Z
    D6408 ??$forward@U_Container_proxy@std@@@std@@YA$$QEAU_Container_proxy@0@AEAU10@@Z
    D6408 ??$forward@V?$allocator@D@std@@@std@@YA$$QEAV?$allocator@D@0@AEAV10@@Z
    D6408 ??$resize@M@?$Matrix1D@M@relion@@QEAAXAEBV01@@Z
    D6408 ??$resize@M@?$Matrix2D@M@relion@@QEAAXAEBV01@@Z
    D6408 ??0?$Matrix1D@M@relion@@QEAA@AEBV01@@Z
    D6408 ??0?$Matrix2D@M@relion@@QEAA@AEBV01@@Z
    D6408 ??0?$Matrix2D@M@relion@@QEAA@HH@Z
    D6408 ??0?$Matrix2D@M@relion@@QEAA@XZ
    D6408 ??0?$_String_alloc@U?$_String_base_types@DV?$allocator@D@std@@@std@@@std@@QEAA@XZ
    D6408 ??0?$_String_val@U?$_Simple_types@D@std@@@std@@QEAA@XZ
    D6408 ??0?$allocator@D@std@@QEAA@XZ
    D6408 ??0?$basic_string@DU?$char_traits@D@std@@V?$allocator@D@2@@std@@QEAA@AEBV01@@Z
    D6408 ??0?$basic_string@DU?$char_traits@D@std@@V?$allocator@D@2@@std@@QEAA@QEBD@Z
    D6408 ??0RelionError@relion@@QEAA@AEBV01@@Z
    D6408 ??0_Bxty@?$_String_val@U?$_Simple_types@D@std@@@std@@QEAA@XZ
    D6408 ??0_Container_base12@std@@QEAA@XZ
    D6408 ??0_Container_proxy@std@@QEAA@XZ
    D6408 ??1?$Matrix1D@M@relion@@QEAA@XZ
    D6408 ??1?$Matrix2D@M@relion@@QEAA@XZ
    D6408 ??1?$_Compressed_pair@V?$allocator@D@std@@V?$_String_val@U?$_Simple_types@D@std@@@2@$00@std@@QEAA@XZ
    D6408 ??1?$_String_alloc@U?$_String_base_types@DV?$allocator@D@std@@@std@@@std@@QEAA@XZ
    D6408 ??1?$_String_val@U?$_Simple_types@D@std@@@std@@QEAA@XZ
    D6408 ??1?$basic_string@DU?$char_traits@D@std@@V?$allocator@D@2@@std@@QEAA@XZ
    D6408 ??1RelionError@relion@@QEAA@XZ
    D6408 ??1_Bxty@?$_String_val@U?$_Simple_types@D@std@@@std@@QEAA@XZ
    D6408 ??2@YAPEAX_KPEAX@Z
    D6408 ??4?$Matrix1D@M@relion@@QEAAAEAV01@AEBV01@@Z
    D6408 ??4?$Matrix2D@M@relion@@QEAAAEAV01@AEBV01@@Z
    D6408 ??D?$Matrix2D@M@relion@@QEBA?AV01@AEBV01@@Z
    D6408 ??R<lambda_66f57f934f28d61049862f64df852ff0>@@QEBAXQEAD_KQEBD@Z
    D6408 ??R?$Matrix2D@M@relion@@QEBAAEAMHH@Z
    D6408 ??X?$Matrix1D@M@relion@@QEAAXM@Z
    D6408 ??_C@_02DKCKIIND@?$CFs@
    D6408 ??_C@_0BA@JFNIOLAK@string?5too?5long@
    D6408 ??_C@_0BB@FCMFBGOM@invalid?5argument@
    D6408 ??_C@_0BI@DGFACFCD@Allocate?3?5No?5space?5left@
    D6408 ??_C@_0BO@FLHOPNCI@alignWithZ?3?5Axis?5is?5not?5in?5R3@
    D6408 ??_C@_0BP@BALOICGN@rotation3DMatrix?3?5Unknown?5axis@
    D6408 ??_C@_0CD@IPHNMKOC@d?3?2software?2liblion?2src?2matrix1@
    D6408 ??_C@_0CD@MINNLADC@d?3?2software?2liblion?2src?2matrix2@
    D6408 ??_C@_0CE@MELPHAEL@Scale3D_matrix?3?5vector?5is?5not?5i@
    D6408 ??_C@_0CK@IBFPGKND@Translation3D_matrix?3?5vector?5is@
    D6408 ??_C@_0CK@JGKDLDED@Translation2D_matrix?3?5vector?5is@
    D6408 ??_C@_0CM@HOPMFNDB@d?3?2software?2liblion?2src?2transfo@
    D6408 ??_C@_0CO@BHOFHKCK@Not?5compatible?5sizes?5in?5matrix?5@
    D6408 ??_C@_0GI@DJFLDKBN@c?3?2program?5files?5?$CIx86?$CJ?2microsof@
    D6408 ??_C@_0GI@LKBGDILM@c?3?2program?5files?5?$CIx86?$CJ?2microsof@
    D6408 ??_C@_0GJ@FFDBCFBF@c?3?2program?5files?5?$CIx86?$CJ?2microsof@
    D6408 ??_C@_0N@LPFKKEBD@?3AM?3am?3PM?3pm@
    D6408 ??_C@_1BK@MHIKGOKE@?$AA?3?$AAA?$AAM?$AA?3?$AAa?$AAm?$AA?3?$AAP?$AAM?$AA?3?$AAp?$AAm@
    D6408 ??_C@_1CG@JNLFBNGN@?$AA?$CC?$AAi?$AAn?$AAv?$AAa?$AAl?$AAi?$AAd?$AA?5?$AAa?$AAr?$AAg?$AAu?$AAm?$AAe@
    D6408 ??_C@_1EK@NIFDJFDG@?$AAs?$AAt?$AAd?$AA?3?$AA?3?$AA_?$AAA?$AAd?$AAj?$AAu?$AAs?$AAt?$AA_?$AAm?$AAa@
    D6408 ??_C@_1EO@GFNCMDLA@?$AAs?$AAt?$AAd?$AA?3?$AA?3?$AA_?$AAA?$AAl?$AAl?$AAo?$AAc?$AAa?$AAt?$AAe?$AA_@
    D6408 ??_C@_1NC@PIOGAKBO@?$AAc?$AA?3?$AA?2?$AAp?$AAr?$AAo?$AAg?$AAr?$AAa?$AAm?$AA?5?$AAf?$AAi?$AAl?$AAe@
    D6408 ??_R0?AVRelionError@relion@@@8
    D6408 ??_R0?AVbad_alloc@std@@@8
    D6408 ?_Adjust_manually_vector_aligned@std@@YAXAEAPEAXAEA_K@Z
    D6408 ?_Alloc_proxy@?$_String_alloc@U?$_String_base_types@DV?$allocator@D@std@@@std@@@std@@QEAAXXZ
    D6408 ?_Allocate@_Default_allocate_traits@std@@SAPEAX_K@Z
    D6408 ?_Calculate_growth@?$basic_string@DU?$char_traits@D@std@@V?$allocator@D@2@@std@@QEBA_K_K@Z
    D6408 ?_Construct_lv_contents@?$basic_string@DU?$char_traits@D@std@@V?$allocator@D@2@@std@@QEAAXAEBV12@@Z
    D6408 ?_Free_proxy@?$_String_alloc@U?$_String_base_types@DV?$allocator@D@std@@@std@@@std@@QEAAXXZ
    D6408 ?_Get_data@?$_String_alloc@U?$_String_base_types@DV?$allocator@D@std@@@std@@@std@@QEAAAEAV?$_String_val@U?$_Simple_types@D@std@@@2@XZ
    D6408 ?_Get_data@?$_String_alloc@U?$_String_base_types@DV?$allocator@D@std@@@std@@@std@@QEBAAEBV?$_String_val@U?$_Simple_types@D@std@@@2@XZ
    D6408 ?_Get_first@?$_Compressed_pair@V?$allocator@D@std@@V?$_String_val@U?$_Simple_types@D@std@@@2@$00@std@@QEAAAEAV?$allocator@D@2@XZ
    D6408 ?_Get_first@?$_Compressed_pair@V?$allocator@D@std@@V?$_String_val@U?$_Simple_types@D@std@@@2@$00@std@@QEBAAEBV?$allocator@D@2@XZ
    D6408 ?_Get_second@?$_Compressed_pair@V?$allocator@D@std@@V?$_String_val@U?$_Simple_types@D@std@@@2@$00@std@@QEAAAEAV?$_String_val@U?$_Simple_types@D@std@@@2@XZ
    D6408 ?_Get_second@?$_Compressed_pair@V?$allocator@D@std@@V?$_String_val@U?$_Simple_types@D@std@@@2@$00@std@@QEBAAEBV?$_String_val@U?$_Simple_types@D@std@@@2@XZ
    D6408 ?_Getal@?$_String_alloc@U?$_String_base_types@DV?$allocator@D@std@@@std@@@std@@QEAAAEAV?$allocator@D@2@XZ
    D6408 ?_Getal@?$_String_alloc@U?$_String_base_types@DV?$allocator@D@std@@@std@@@std@@QEBAAEBV?$allocator@D@2@XZ
    D6408 ?_Large_string_engaged@?$_String_val@U?$_Simple_types@D@std@@@std@@QEBA_NXZ
    D6408 ?_Maklocwcs@std@@YAPEA_WPEB_W@Z
    D6408 ?_Myproxy@?$_String_alloc@U?$_String_base_types@DV?$allocator@D@std@@@std@@@std@@QEAAAEAPEAU_Container_proxy@2@XZ
    D6408 ?_Myptr@?$_String_val@U?$_Simple_types@D@std@@@std@@QEAAPEADXZ
    D6408 ?_Myptr@?$_String_val@U?$_Simple_types@D@std@@@std@@QEBAPEBDXZ
    D6408 ?_Orphan_all@?$_String_alloc@U?$_String_base_types@DV?$allocator@D@std@@@std@@@std@@QEAAXXZ
    D6408 ?_Orphan_all@_Container_base12@std@@QEAAXXZ
    D6408 ?_Tidy_deallocate@?$basic_string@DU?$char_traits@D@std@@V?$allocator@D@2@@std@@QEAAXXZ
    D6408 ?_Tidy_init@?$basic_string@DU?$char_traits@D@std@@V?$allocator@D@2@@std@@QEAAXXZ
    D6408 ?_Xlen@?$basic_string@DU?$char_traits@D@std@@V?$allocator@D@2@@std@@SAXXZ
    D6408 ?__LINE__Var@?0??_Adjust_manually_vector_aligned@std@@YAXAEAPEAXAEA_K@Z@4JA
    D6408 ?__LINE__Var@?0??_Maklocwcs@std@@YAPEA_WPEB_W@Z@4JA
    D6408 ?__LINE__Var@?0??alignWithZ@relion@@YAXAEBV?$Matrix1D@M@2@AEAV?$Matrix2D@M@2@_N@Z@4JA
    D6408 ?__LINE__Var@?0??rotation3DMatrix@relion@@YAXMDAEAV?$Matrix2D@M@2@_N@Z@4JA
    D6408 ?__LINE__Var@?0??scale3DMatrix@relion@@YAXAEBV?$Matrix1D@M@2@AEAV?$Matrix2D@M@2@_N@Z@4JA
    D6408 ?__LINE__Var@?0??translation2DMatrix@relion@@YAXAEBV?$Matrix1D@M@2@AEAV?$Matrix2D@M@2@@Z@4JA
    D6408 ?__LINE__Var@?0??translation3DMatrix@relion@@YAXAEBV?$Matrix1D@M@2@AEAV?$Matrix2D@M@2@@Z@4JA
    D6408 ?__empty_global_delete@@YAXPEAX@Z
    D6408 ?__empty_global_delete@@YAXPEAX_K@Z
    D6408 ?alignWithZ@relion@@YAXAEBV?$Matrix1D@M@1@AEAV?$Matrix2D@M@1@_N@Z
    D6408 ?allocate@?$allocator@D@std@@QEAAPEAD_K@Z
    D6408 ?allocate@?$allocator@U_Container_proxy@std@@@std@@QEAAPEAU_Container_proxy@2@_K@Z
    D6408 ?assign@?$basic_string@DU?$char_traits@D@std@@V?$allocator@D@2@@std@@QEAAAEAV12@QEBD@Z
    D6408 ?assign@?$basic_string@DU?$char_traits@D@std@@V?$allocator@D@2@@std@@QEAAAEAV12@QEBD_K@Z
    D6408 ?assign@?$char_traits@D@std@@SAXAEADAEBD@Z
    D6408 ?clear@?$Matrix1D@M@relion@@QEAAXXZ
    D6408 ?clear@?$Matrix2D@M@relion@@QEAAXXZ
    D6408 ?copy@?$char_traits@D@std@@SAPEADQEADQEBD_K@Z
    D6408 ?coreDeallocate@?$Matrix1D@M@relion@@QEAAXXZ
    D6408 ?coreDeallocate@?$Matrix2D@M@relion@@QEAAXXZ
    D6408 ?coreInit@?$Matrix1D@M@relion@@QEAAXXZ
    D6408 ?coreInit@?$Matrix2D@M@relion@@QEAAXXZ
    D6408 ?cos@@YAMM@Z
    D6408 ?deallocate@?$_Default_allocator_traits@V?$allocator@U_Container_proxy@std@@@std@@@std@@SAXAEAV?$allocator@U_Container_proxy@std@@@2@QEAU_Container_proxy@2@_K@Z
    D6408 ?deallocate@?$allocator@D@std@@QEAAXQEAD_K@Z
    D6408 ?initIdentity@?$Matrix2D@M@relion@@QEAAXH@Z
    D6408 ?initZeros@?$Matrix1D@M@relion@@QEAAXXZ
    D6408 ?initZeros@?$Matrix2D@M@relion@@QEAAXHH@Z
    D6408 ?length@?$char_traits@D@std@@SA_KQEBD@Z
    D6408 ?max@?$numeric_limits@_J@std@@SA_JXZ
    D6408 ?max_size@?$_Default_allocator_traits@V?$allocator@D@std@@@std@@SA_KAEBV?$allocator@D@2@@Z
    D6408 ?max_size@?$basic_string@DU?$char_traits@D@std@@V?$allocator@D@2@@std@@QEBA_KXZ
    D6408 ?module@?$Matrix1D@M@relion@@QEBAMXZ
    D6408 ?move@?$char_traits@D@std@@SAPEADQEADQEBD_K@Z
    D6408 ?resize@?$Matrix1D@M@relion@@QEAAXH_N@Z
    D6408 ?resize@?$Matrix2D@M@relion@@QEAAXHH@Z
    D6408 ?rotation2DMatrix@relion@@YAXMAEAV?$Matrix2D@M@1@_N@Z
    D6408 ?rotation3DMatrix@relion@@YAXMAEBV?$Matrix1D@M@1@AEAV?$Matrix2D@M@1@_N@Z
    D6408 ?rotation3DMatrix@relion@@YAXMDAEAV?$Matrix2D@M@1@_N@Z
    D6408 ?scale3DMatrix@relion@@YAXAEBV?$Matrix1D@M@1@AEAV?$Matrix2D@M@1@_N@Z
    D6408 ?select_on_container_copy_construction@?$_Default_allocator_traits@V?$allocator@D@std@@@std@@SA?AV?$allocator@D@2@AEBV32@@Z
    D6408 ?selfNormalize@?$Matrix1D@M@relion@@QEAAXXZ
    D6408 ?sin@@YAMM@Z
    D6408 ?size@?$Matrix1D@M@relion@@QEBAHXZ
    D6408 ?sqrt@@YAMM@Z
    D6408 ?sum2@?$Matrix1D@M@relion@@QEBAMXZ
    D6408 ?translation2DMatrix@relion@@YAXAEBV?$Matrix1D@M@1@AEAV?$Matrix2D@M@1@@Z
    D6408 ?translation3DMatrix@relion@@YAXAEBV?$Matrix1D@M@1@AEAV?$Matrix2D@M@1@@Z
    D6408 ?transpose@?$Matrix2D@M@relion@@QEBA?AV12@XZ
    D6408 _CT??_R0?AVRelionError@relion@@@8??0RelionError@relion@@QEAA@AEBV01@@Z96
    D6408 _CTA1?AVRelionError@relion@@
    D6408 _TI1?AVRelionError@relion@@
    D6408 __JustMyCode_Default
    D6408 __real@00000000
    D6408 __real@3f1a36e2eb1c432d
    D6408 __real@3f800000
    D6408 __real@3ff0000000000000
    D6408 __real@400921fb54442d18
    D6408 __real@4066800000000000
    D6408 __real@bf800000
    D6408 __xmm@80000000800000008000000080000000
    D6408 wmemcpy
   11B208 ??R?$MultidimArray@M@relion@@QEBAAEAMJ@Z
   11B208 ??RTabBlob@relion@@QEBAMM@Z
   11B208 ??RTabCosine@relion@@QEBAMM@Z
   11B208 ??RTabFtBlob@relion@@QEBAMM@Z
   11B208 ??RTabSine@relion@@QEBAMM@Z
   11B208 ?fillTable@TabBlob@relion@@QEAAXH@Z
   11B208 ?fillTable@TabCosine@relion@@QEAAXH@Z
   11B208 ?fillTable@TabFtBlob@relion@@QEAAXH@Z
   11B208 ?fillTable@TabSine@relion@@QEAAXH@Z
   11B208 ?initialise@TabBlob@relion@@QEAAXMMHH@Z
   11B208 ?initialise@TabCosine@relion@@QEAAXH@Z
   11B208 ?initialise@TabFtBlob@relion@@QEAAXMMHH@Z
   11B208 ?initialise@TabSine@relion@@QEAAXH@Z
   11B208 __real@3fe0000000000000
   11B208 __real@401921fb54442d18
   12D476 ??$?0$$V@?$_Compressed_pair@V?$allocator@V?$basic_string@DU?$char_traits@D@std@@V?$allocator@D@2@@std@@@std@@V?$_Vector_val@U?$_Simple_types@V?$basic_string@DU?$char_traits@D@std@@V?$allocator@D@2@@std@@@std@@@2@$00@std@@QEAA@U_Zero_then_variadic_args_t@1@@Z
   12D476 ??$?0U?$integral_constant@_N$00@std@@@_Unused_parameter@std@@QEAA@$$QEAU?$integral_constant@_N$00@1@@Z
   12D476 ??$?0V?$basic_string@DU?$char_traits@D@std@@V?$allocator@D@2@@std@@@?$allocator@U_Container_proxy@std@@@std@@QEAA@AEBV?$allocator@V?$basic_string@DU?$char_traits@D@std@@V?$allocator@D@2@@std@@@1@@Z
   12D476 ??$?6DU?$char_traits@D@std@@V?$allocator@D@1@@std@@YAAEAV?$basic_ostream@DU?$char_traits@D@std@@@0@AEAV10@AEBV?$basic_string@DU?$char_traits@D@std@@V?$allocator@D@2@@0@@Z
   12D476 ??$?6DU?$char_traits@D@std@@_J@std@@YAAEAV?$basic_ostream@DU?$char_traits@D@std@@@0@AEAV10@AEBU?$_Smanip@_J@0@@Z
   12D476 ??$?6U?$char_traits@D@std@@@std@@YAAEAV?$basic_ostream@DU?$char_traits@D@std@@@0@AEAV10@D@Z
   12D476 ??$?6U?$char_traits@D@std@@@std@@YAAEAV?$basic_ostream@DU?$char_traits@D@std@@@0@AEAV10@PEBD@Z
   12D476 ??$?HDU?$char_traits@D@std@@V?$allocator@D@1@@std@@YA?AV?$basic_string@DU?$char_traits@D@std@@V?$allocator@D@2@@0@$$QEAV10@AEBV10@@Z
   12D476 ??$?HDU?$char_traits@D@std@@V?$allocator@D@1@@std@@YA?AV?$basic_string@DU?$char_traits@D@std@@V?$allocator@D@2@@0@$$QEAV10@D@Z
   12D476 ??$?HDU?$char_traits@D@std@@V?$allocator@D@1@@std@@YA?AV?$basic_string@DU?$char_traits@D@std@@V?$allocator@D@2@@0@$$QEAV10@QEBD@Z
   12D476 ??$?HDU?$char_traits@D@std@@V?$allocator@D@1@@std@@YA?AV?$basic_string@DU?$char_traits@D@std@@V?$allocator@D@2@@0@QEBD$$QEAV10@@Z
   12D476 ??$_Destroy_range1@V?$allocator@V?$basic_string@DU?$char_traits@D@std@@V?$allocator@D@2@@std@@@std@@@std@@YAXPEAV?$basic_string@DU?$char_traits@D@std@@V?$allocator@D@2@@0@0AEAV?$allocator@V?$basic_string@DU?$char_traits@D@std@@V?$allocator@D@2@@std@@@0@U?$integral_constant@_N$0A@@0@@Z
   12D476 ??$_Destroy_range@V?$allocator@V?$basic_string@DU?$char_traits@D@std@@V?$allocator@D@2@@std@@@std@@@std@@YAXPEAV?$basic_string@DU?$char_traits@D@std@@V?$allocator@D@2@@0@0AEAV?$allocator@V?$basic_string@DU?$char_traits@D@std@@V?$allocator@D@2@@std@@@0@@Z
   12D476 ??$_Emplace_back@V?$basic_string@DU?$char_traits@D@std@@V?$allocator@D@2@@std@@@?$_Uninitialized_backout_al@PEAV?$basic_string@DU?$char_traits@D@std@@V?$allocator@D@2@@std@@V?$allocator@V?$basic_string@DU?$char_traits@D@std@@V?$allocator@D@2@@std@@@2@@std@@QEAAX$$QEAV?$basic_string@DU?$char_traits@D@std@@V?$allocator@D@2@@1@@Z
   12D476 ??$_Emplace_back_with_unused_capacity@V?$basic_string@DU?$char_traits@D@std@@V?$allocator@D@2@@std@@@?$vector@V?$basic_string@DU?$char_traits@D@std@@V?$allocator@D@2@@std@@V?$allocator@V?$basic_string@DU?$char_traits@D@std@@V?$allocator@D@2@@std@@@2@@std@@AEAA@$$QEAV?$basic_string@DU?$char_traits@D@std@@V?$allocator@D@2@@1@@Z
   12D476 ??$_Emplace_reallocate@V?$basic_string@DU?$char_traits@D@std@@V?$allocator@D@2@@std@@@?$vector@V?$basic_string@DU?$char_traits@D@std@@V?$allocator@D@2@@std@@V?$allocator@V?$basic_string@DU?$char_traits@D@std@@V?$allocator@D@2@@std@@@2@@std@@QEAAPEAV?$basic_string@DU?$char_traits@D@std@@V?$allocator@D@2@@1@QEAV21@$$QEAV21@@Z
   12D476 ??$_Get_size_of_n@$0CI@@std@@YA_K_K@Z
   12D476 ??$_Get_unwrapped@V?$basic_string@DU?$char_traits@D@std@@V?$allocator@D@2@@std@@@std@@YAPEAV?$basic_string@DU?$char_traits@D@std@@V?$allocator@D@2@@0@QEAV10@@Z
   12D476 ??$_Get_unwrapped_n@V?$basic_string@DU?$char_traits@D@std@@V?$allocator@D@2@@std@@_J$0A@@std@@YAPEAV?$basic_string@DU?$char_traits@D@std@@V?$allocator@D@2@@0@QEAV10@_J@Z
   12D476 ??$_Idl_distance1@PEAV?$basic_string@DU?$char_traits@D@std@@V?$allocator@D@2@@std@@PEAV12@@std@@YA_JAEBQEAV?$basic_string@DU?$char_traits@D@std@@V?$allocator@D@2@@0@0Urandom_access_iterator_tag@0@@Z
   12D476 ??$_Idl_distance@PEAV?$basic_string@DU?$char_traits@D@std@@V?$allocator@D@2@@std@@PEAV12@@std@@YA@AEBQEAV?$basic_string@DU?$char_traits@D@std@@V?$allocator@D@2@@0@0@Z
   12D476 ??$_Insert_string@DU?$char_traits@D@std@@_K@std@@YAAEAV?$basic_ostream@DU?$char_traits@D@std@@@0@AEAV10@QEBD_K@Z
   12D476 ??$_Pocca@V?$allocator@D@std@@@std@@YAXAEAV?$allocator@D@0@AEBV10@@Z
   12D476 ??$_Pocca@V?$allocator@D@std@@@std@@YAXAEAV?$allocator@D@0@AEBV10@U?$integral_constant@_N$0A@@0@@Z
   12D476 ??$_Ptr_move_cat@V?$basic_string@DU?$char_traits@D@std@@V?$allocator@D@2@@std@@V12@@std@@YA?AU_General_ptr_iterator_tag@0@AEBQEAV?$basic_string@DU?$char_traits@D@std@@V?$allocator@D@2@@0@0@Z
   12D476 ??$_Reallocate_grow_by@V<lambda_319d5e083f45f90dcdce5dce53cbb275>@@D@?$basic_string@DU?$char_traits@D@std@@V?$allocator@D@2@@std@@QEAAAEAV01@_KV<lambda_319d5e083f45f90dcdce5dce53cbb275>@@D@Z
   12D476 ??$_Reallocate_grow_by@V<lambda_65e615be2a453ca0576c979606f46740>@@PEBD_K@?$basic_string@DU?$char_traits@D@std@@V?$allocator@D@2@@std@@QEAAAEAV01@_KV<lambda_65e615be2a453ca0576c979606f46740>@@PEBD_K@Z
   12D476 ??$_Reallocate_grow_by@V<lambda_f3a66ab6a0570788f31503db83886f49>@@_KPEBD_K@?$basic_string@DU?$char_traits@D@std@@V?$allocator@D@2@@std@@QEAAAEAV01@_KV<lambda_f3a66ab6a0570788f31503db83886f49>@@_KPEBD2@Z
   12D476 ??$_Seek_wrapped@V?$basic_string@DU?$char_traits@D@std@@V?$allocator@D@2@@std@@@std@@YAXAEAPEAV?$basic_string@DU?$char_traits@D@std@@V?$allocator@D@2@@0@QEAV10@@Z
   12D476 ??$_Unfancy@V?$basic_string@DU?$char_traits@D@std@@V?$allocator@D@2@@std@@@std@@YAPEAV?$basic_string@DU?$char_traits@D@std@@V?$allocator@D@2@@0@PEAV10@@Z
   12D476 ??$_Uninitialized_move@PEAV?$basic_string@DU?$char_traits@D@std@@V?$allocator@D@2@@std@@PEAV12@V?$allocator@V?$basic_string@DU?$char_traits@D@std@@V?$allocator@D@2@@std@@@2@@std@@YAPEAV?$basic_string@DU?$char_traits@D@std@@V?$allocator@D@2@@0@QEAV10@0PEAV10@AEAV?$allocator@V?$basic_string@DU?$char_traits@D@std@@V?$allocator@D@2@@std@@@0@@Z
   12D476 ??$_Uninitialized_move_al_unchecked@PEAV?$basic_string@DU?$char_traits@D@std@@V?$allocator@D@2@@std@@PEAV12@V?$allocator@V?$basic_string@DU?$char_traits@D@std@@V?$allocator@D@2@@std@@@2@@std@@YAPEAV?$basic_string@DU?$char_traits@D@std@@V?$allocator@D@2@@0@PEAV10@QEAV10@1AEAV?$allocator@V?$basic_string@DU?$char_traits@D@std@@V?$allocator@D@2@@std@@@0@U_General_ptr_iterator_tag@0@U_Unused_parameter@0@@Z
   12D476 ??$addressof@$$CBV?$basic_string@DU?$char_traits@D@std@@V?$allocator@D@2@@std@@@std@@YAPEBV?$basic_string@DU?$char_traits@D@std@@V?$allocator@D@2@@0@AEBV10@@Z
   12D476 ??$addressof@V?$_Vector_val@U?$_Simple_types@V?$basic_string@DU?$char_traits@D@std@@V?$allocator@D@2@@std@@@std@@@std@@@std@@YAPEAV?$_Vector_val@U?$_Simple_types@V?$basic_string@DU?$char_traits@D@std@@V?$allocator@D@2@@std@@@std@@@0@AEAV10@@Z
   12D476 ??$applyGeometry@M@relion@@YAXAEBV?$MultidimArray@M@0@AEAV10@V?$Matrix2D@M@0@_N3M@Z
   12D476 ??$construct@V?$basic_string@DU?$char_traits@D@std@@V?$allocator@D@2@@std@@V12@@?$_Default_allocator_traits@V?$allocator@V?$basic_string@DU?$char_traits@D@std@@V?$allocator@D@2@@std@@@std@@@std@@SAXAEAV?$allocator@V?$basic_string@DU?$char_traits@D@std@@V?$allocator@D@2@@std@@@1@QEAV?$basic_string@DU?$char_traits@D@std@@V?$allocator@D@2@@1@$$QEAV31@@Z
   12D476 ??$destroy@V?$basic_string@DU?$char_traits@D@std@@V?$allocator@D@2@@std@@@?$_Default_allocator_traits@V?$allocator@V?$basic_string@DU?$char_traits@D@std@@V?$allocator@D@2@@std@@@std@@@std@@SAXAEAV?$allocator@V?$basic_string@DU?$char_traits@D@std@@V?$allocator@D@2@@std@@@1@QEAV?$basic_string@DU?$char_traits@D@std@@V?$allocator@D@2@@1@@Z
   12D476 ??$emplace_back@V?$basic_string@DU?$char_traits@D@std@@V?$allocator@D@2@@std@@@?$vector@V?$basic_string@DU?$char_traits@D@std@@V?$allocator@D@2@@std@@V?$allocator@V?$basic_string@DU?$char_traits@D@std@@V?$allocator@D@2@@std@@@2@@std@@QEAA@$$QEAV?$basic_string@DU?$char_traits@D@std@@V?$allocator@D@2@@1@@Z
   12D476 ??$endl@DU?$char_traits@D@std@@@std@@YAAEAV?$basic_ostream@DU?$char_traits@D@std@@@0@AEAV10@@Z
   12D476 ??$forward@V?$basic_string@DU?$char_traits@D@std@@V?$allocator@D@2@@std@@@std@@YA$$QEAV?$basic_string@DU?$char_traits@D@std@@V?$allocator@D@2@@0@AEAV10@@Z
   12D476 ??$move@AEAV?$allocator@D@std@@@std@@YA$$QEAV?$allocator@D@0@AEAV10@@Z
   12D476 ??$move@AEAV?$basic_string@DU?$char_traits@D@std@@V?$allocator@D@2@@std@@@std@@YA$$QEAV?$basic_string@DU?$char_traits@D@std@@V?$allocator@D@2@@0@AEAV10@@Z
   12D476 ??$resize@M@?$MultidimArray@M@relion@@QEAAXAEBV01@_N@Z
   12D476 ??$sameShape@M@?$Matrix2D@M@relion@@QEBA_NAEBV01@@Z
   12D476 ??$sameShape@M@?$MultidimArray@M@relion@@QEBA_NAEBV01@@Z
   12D476 ??$svdcmp@M@relion@@YAXAEBV?$Matrix2D@M@0@AEAV10@AEAV?$Matrix1D@M@0@1@Z
   12D476 ??$typeCast@MM@relion@@YAXAEBV?$Matrix2D@M@0@AEAV10@@Z
   12D476 ??0?$Matrix1D@H@relion@@QEAA@_N@Z
   12D476 ??0?$Matrix1D@M@relion@@QEAA@H_N@Z
   12D476 ??0?$Matrix1D@M@relion@@QEAA@_N@Z
   12D476 ??0?$Matrix2D@H@relion@@QEAA@HH@Z
   12D476 ??0?$MultidimArray@M@relion@@QEAA@AEBV01@@Z
   12D476 ??0?$MultidimArray@M@relion@@QEAA@XZ
   12D476 ??0?$_Uninitialized_backout_al@PEAV?$basic_string@DU?$char_traits@D@std@@V?$allocator@D@2@@std@@V?$allocator@V?$basic_string@DU?$char_traits@D@std@@V?$allocator@D@2@@std@@@2@@std@@QEAA@PEAV?$basic_string@DU?$char_traits@D@std@@V?$allocator@D@2@@1@AEAV?$allocator@V?$basic_string@DU?$char_traits@D@std@@V?$allocator@D@2@@std@@@1@@Z
   12D476 ??0?$_Vector_alloc@U?$_Vec_base_types@V?$basic_string@DU?$char_traits@D@std@@V?$allocator@D@2@@std@@V?$allocator@V?$basic_string@DU?$char_traits@D@std@@V?$allocator@D@2@@std@@@2@@std@@@std@@QEAA@XZ
   12D476 ??0?$_Vector_val@U?$_Simple_types@V?$basic_string@DU?$char_traits@D@std@@V?$allocator@D@2@@std@@@std@@@std@@QEAA@XZ
   12D476 ??0?$allocator@V?$basic_string@DU?$char_traits@D@std@@V?$allocator@D@2@@std@@@std@@QEAA@XZ
   12D476 ??0?$basic_string@DU?$char_traits@D@std@@V?$allocator@D@2@@std@@QEAA@$$QEAV01@@Z
   12D476 ??0?$vector@V?$basic_string@DU?$char_traits@D@std@@V?$allocator@D@2@@std@@V?$allocator@V?$basic_string@DU?$char_traits@D@std@@V?$allocator@D@2@@std@@@2@@std@@QEAA@XZ
   12D476 ??0FileName@relion@@QEAA@AEBV01@@Z
   12D476 ??0FileName@relion@@QEAA@XZ
   12D476 ??0SymList@relion@@QEAA@XZ
   12D476 ??0_Sentry_base@?$basic_ostream@DU?$char_traits@D@std@@@std@@QEAA@AEAV12@@Z
   12D476 ??0sentry@?$basic_ostream@DU?$char_traits@D@std@@@std@@QEAA@AEAV12@@Z
   12D476 ??1?$Matrix1D@H@relion@@QEAA@XZ
   12D476 ??1?$Matrix2D@H@relion@@QEAA@XZ
   12D476 ??1?$MultidimArray@M@relion@@QEAA@XZ
   12D476 ??1?$_Uninitialized_backout_al@PEAV?$basic_string@DU?$char_traits@D@std@@V?$allocator@D@2@@std@@V?$allocator@V?$basic_string@DU?$char_traits@D@std@@V?$allocator@D@2@@std@@@2@@std@@QEAA@XZ
   12D476 ??1?$_Vector_alloc@U?$_Vec_base_types@V?$basic_string@DU?$char_traits@D@std@@V?$allocator@D@2@@std@@V?$allocator@V?$basic_string@DU?$char_traits@D@std@@V?$allocator@D@2@@std@@@2@@std@@@std@@QEAA@XZ
   12D476 ??1?$vector@V?$basic_string@DU?$char_traits@D@std@@V?$allocator@D@2@@std@@V?$allocator@V?$basic_string@DU?$char_traits@D@std@@V?$allocator@D@2@@std@@@2@@std@@QEAA@XZ
   12D476 ??1FileName@relion@@QEAA@XZ
   12D476 ??1SymList@relion@@QEAA@XZ
   12D476 ??1_Sentry_base@?$basic_ostream@DU?$char_traits@D@std@@@std@@QEAA@XZ
   12D476 ??1sentry@?$basic_ostream@DU?$char_traits@D@std@@@std@@QEAA@XZ
   12D476 ??4?$MultidimArray@M@relion@@QEAAAEAV01@AEBV01@@Z
   12D476 ??4?$basic_string@DU?$char_traits@D@std@@V?$allocator@D@2@@std@@QEAAAEAV01@AEBV01@@Z
   12D476 ??4FileName@relion@@QEAAAEAV01@AEBV01@@Z
   12D476 ??6relion@@YAAEAV?$basic_ostream@DU?$char_traits@D@std@@@std@@AEAV12@AEBV?$Matrix2D@M@0@@Z
   12D476 ??A?$vector@V?$basic_string@DU?$char_traits@D@std@@V?$allocator@D@2@@std@@V?$allocator@V?$basic_string@DU?$char_traits@D@std@@V?$allocator@D@2@@std@@@2@@std@@QEAAAEAV?$basic_string@DU?$char_traits@D@std@@V?$allocator@D@2@@1@_K@Z
   12D476 ??Bsentry@?$basic_ostream@DU?$char_traits@D@std@@@std@@QEBA_NXZ
   12D476 ??K?$MultidimArray@M@relion@@QEBA?AV01@M@Z
   12D476 ??R<lambda_319d5e083f45f90dcdce5dce53cbb275>@@QEBAXQEADQEBD_KD@Z
   12D476 ??R<lambda_65e615be2a453ca0576c979606f46740>@@QEBAXQEADQEBD_K12@Z
   12D476 ??R<lambda_f3a66ab6a0570788f31503db83886f49>@@QEBAXQEADQEBD_K212@Z
   12D476 ??R?$Matrix1D@H@relion@@QEBAAEAHH@Z
   12D476 ??R?$Matrix2D@H@relion@@QEBAAEAHHH@Z
   12D476 ??Y?$MultidimArray@M@relion@@QEAAXAEBV01@@Z
   12D476 ??_0?$Matrix2D@M@relion@@QEAAXM@Z
   12D476 ??_7?$MultidimArray@M@relion@@6B@
   12D476 ??_C@_00CNPNBAHC@@
   12D476 ??_C@_01CLKCMJKC@?5@
   12D476 ??_C@_01KDCPPGHE@r@
   12D476 ??_C@_01PKGAHCOL@?$CJ@
   12D476 ??_C@_03EMOMNLKJ@?5R?$CI@
   12D476 ??_C@_03FKFEFFND@?5L?$CI@
   12D476 ??_C@_03ILLHFMNI@?5?7?6@
   12D476 ??_C@_03LKLGJCDG@?$CJ?$DN?5@
   12D476 ??_C@_06GGKOIIEH@?50?50?51@
   12D476 ??_C@_07MEFCBOOG@?5R?$CI1?$CJ?$DN?5@
   12D476 ??_C@_08GCFKPABL@rot_axis@
   12D476 ??_C@_09BANEFNDI@inversion@
   12D476 ??_C@_09BPIDLHLO@rot_axis?5@
   12D476 ??_C@_0BA@HNMLECPO@Not?5on?5Windows?4@
   12D476 ??_C@_0BB@EDCLIBH@ERROR?3?5Symmetry?5@
   12D476 ??_C@_0BB@IMADGPPK@rot_axis?54?50?50?51@
   12D476 ??_C@_0BB@JICLIEJJ@rot_axis?52?51?50?50@
   12D476 ??_C@_0BC@KBLGPBFK@rot_axis?52?5?50?50?51@
   12D476 ??_C@_0BD@CHOKGDLM@mirror_plane?51?50?50@
   12D476 ??_C@_0BD@ENBBOGDN@mirror_plane?50?51?51@
   12D476 ??_C@_0BD@FEAKNHHM@mirror_plane?50?51?50@
   12D476 ??_C@_0BD@OLBABOEK@vector?$DMT?$DO?5too?5long@
   12D476 ??_C@_0BD@PFKNIBFI@mirror_plane?50?50?51@
   12D476 ??_C@_0BE@LGCECJOB@mirror_plane?50?50?5?91@
   12D476 ??_C@_0BF@CHLICBIM@rot_axis?55?5?50?4?50?4?51?4@
   12D476 ??_C@_0BF@LOHEGPAL@Error?5in?5textToFloat@
   12D476 ??_C@_0BF@MIIFIEGM@rot_axis?53?5?50?4?50?4?51?4@
   12D476 ??_C@_0BG@BHOJKDDE@?0?5with?5the?5following?5@
   12D476 ??_C@_0BG@LEDNIDIH@Error?5in?5textToDouble@
   12D476 ??_C@_0BH@PNGOKGKF@Error?5in?5textToInteger@
   12D476 ??_C@_0BI@CFPLBAOH@invalid?5string?5position@
   12D476 ??_C@_0BJ@GDBBODLG@Inverse?3?5Matrix?5is?5empty@
   12D476 ??_C@_0BK@IEJHKKBJ@?5transformation?5matrices?3@
   12D476 ??_C@_0BM@NLNFCIAO@?5?$CL?$CL?$CL?$CL?5Using?5symmetry?5group?5@
   12D476 ??_C@_0BO@CJEJBIFC@ERROR?3?5Symmetry?5group?0?5order?$DN@
   12D476 ??_C@_0BO@KIBHMHCJ@rot_axis?52?5?51?5?5?7?5?5?50?7?5?5?5?5?5?5?50@
   12D476 ??_C@_0BO@PFKOHNJC@vector?5subscript?5out?5of?5range@
   12D476 ??_C@_0CA@HNILFPOF@rot_axis?52?50?4?50?4816496?50?4577350@
   12D476 ??_C@_0CC@JLPDNIDL@rot_axis?52?50?4?5?90?4816496?5?90?45773@
   12D476 ??_C@_0CD@IHNHEPJO@Array_by_array?3?5different?5shape@
   12D476 ??_C@_0CE@IKHDDDBN@?5or?5do?5not?5recognize?5symmetry?5g@
   12D476 ??_C@_0CG@IMJLHJOA@ERROR?3?5Symmetry?5pg_I5?5not?5imple@
   12D476 ??_C@_0CG@OONFLHML@rot_axis?53?5?50?50?4356822076?50?4934@
   12D476 ??_C@_0CH@EFADEDAH@rot_axis?53?50?49341723640?50?435682@
   12D476 ??_C@_0CH@EOAEMCII@ERROR?3?5order?5for?5SN?5group?5must?5@
   12D476 ??_C@_0CH@JMEDPHND@rot_axis?55?5?50?4525731114?5?50?50?485@
   12D476 ??_C@_0CH@MDABEOAI@ERROR?3?5Symmetry?5pg_I5H?5not?5impl@
   12D476 ??_C@_0CH@NJLBCLFP@d?3?2software?2liblion?2src?2symmetr@
   12D476 ??_C@_0CI@EGFFFOBL@rot_axis?53?5?5?45773502?5?5?45773502?5@
   12D476 ??_C@_0CI@KMHMKOKE@rot_axis?52?5?50?45257311143?50?50?485@
   12D476 ??_C@_0CI@LMINNMFL@mirror_plane?50?4850650807?50?5?90?45@
   12D476 ??_C@_0CI@PLKBLMCF@mirror_plane?50?4850650807?50?5?50?45@
   12D476 ??_C@_0CJ@BFEICJGF@d?3?2software?2liblion?2src?2multidi@
   12D476 ??_C@_0CJ@EKBJNBBO@SymList?3?3read_sym_file?3Can?8t?5op@
   12D476 ??_C@_0CJ@PLFBJAPH@rot_axis?52?5?5?90?45257311143?50?50?48@
   12D476 ??_C@_0CK@CABMPNOH@d?3?2software?2liblion?2src?2transfo@
   12D476 ??_C@_0CL@NFILHLE@mirror_plane?51?44142136?52?4449489@
   12D476 ??_C@_0CP@EHAKOHFA@rot_axis?55?50?485065080702670?50?5?9@
   12D476 ??_C@_0DC@BNDLOLGB@Wrong?5line?5in?5symmetry?5file?0?5th@
   12D476 ??_C@_0DD@DBECGKEK@ApplyGeometry?3?53D?5transformatio@
   12D476 ??_C@_0DD@HGKEBAKB@ApplyGeometry?3?52D?5transformatio@
   12D476 ??_C@_0DE@JMCGOMKE@rot_axis?55?5?50?48944271932547096?5@
   12D476 ??_C@_0DG@PDOMFIJO@SymList?3?3add_matrix?3?5Transforma@
   12D476 ??_C@_0DI@ENJFODMC@coreAllocate?3Cannot?5allocate?5a?5@
   12D476 ??_C@_0DM@HEEJJCBB@MultidimArray?3?3coreAllocate?3?5No@
   12D476 ??_C@_0DN@CJNCLAFP@coreAllocateReuse?3Cannot?5alloca@
   12D476 ??_C@_0DO@NLLPDAEL@ApplyGeometry?3?5Input?5array?5cann@
   12D476 ??_C@_0DP@MCKLKOJB@symmetriseMap?5ERROR?3?5symmetrise@
   12D476 ??_C@_0EB@HBKMMBIA@MultidimArray?3?3coreAllocateReus@
   12D476 ??_C@_0EF@BLPJEKDH@rot_axis?53?5?50?44911234778630044?5@
   12D476 ??_C@_0EH@LGOAECLN@do?5not?5allocate?5space?5for?5an?5im@
   12D476 ??_C@_0EI@OPBCMBD@rot_axis?53?5?5?90?44911234778630044@
   12D476 ??_C@_0GH@FKAHJGEE@c?3?2program?5files?5?$CIx86?$CJ?2microsof@
   12D476 ??_C@_0L@LNJGEIGB@inversion?5@
   12D476 ??_C@_0N@FKLAIAHH@NULL?5matrix?6@
   12D476 ??_C@_0N@GONGNELG@mirror_plane@
   12D476 ??_C@_0N@IKECIAEE@is?5not?5known@
   12D476 ??_C@_0P@BAAKECEA@Not?5on?5Windows@
   12D476 ??_C@_1BME@NCIPHHDN@?$AAs?$AAt?$AAd?$AA?3?$AA?3?$AAv?$AAe?$AAc?$AAt?$AAo?$AAr?$AA?$DM?$AAc?$AAl?$AAa@
   12D476 ??_C@_1EA@LEKOKFNB@?$AA?$CC?$AAv?$AAe?$AAc?$AAt?$AAo?$AAr?$AA?5?$AAs?$AAu?$AAb?$AAs?$AAc?$AAr?$AAi@
   12D476 ??_C@_1MO@OJBMIJHH@?$AAc?$AA?3?$AA?2?$AAp?$AAr?$AAo?$AAg?$AAr?$AAa?$AAm?$AA?5?$AAf?$AAi?$AAl?$AAe@
   12D476 ??_G?$basic_string@DU?$char_traits@D@std@@V?$allocator@D@2@@std@@QEAAPEAXI@Z
   12D476 ??_R0?AV?$MultidimArray@M@relion@@@8
   12D476 ??_R1A@?0A@EA@?$MultidimArray@M@relion@@8
   12D476 ??_R2?$MultidimArray@M@relion@@8
   12D476 ??_R3?$MultidimArray@M@relion@@8
   12D476 ??_R4?$MultidimArray@M@relion@@6B@
   12D476 ?SymsNo@SymList@relion@@QEBAHXZ
   12D476 ?TrueSymsNo@SymList@relion@@QEBAHXZ
   12D476 ?Xdim@?$Matrix2D@M@relion@@QEBAHXZ
   12D476 ?Ydim@?$Matrix2D@M@relion@@QEBAHXZ
   12D476 ?_Alloc_proxy@?$_Vector_alloc@U?$_Vec_base_types@V?$basic_string@DU?$char_traits@D@std@@V?$allocator@D@2@@std@@V?$allocator@V?$basic_string@DU?$char_traits@D@std@@V?$allocator@D@2@@std@@@2@@std@@@std@@QEAAXXZ
   12D476 ?_Assign_rv_contents_with_alloc_always_equal@?$basic_string@DU?$char_traits@D@std@@V?$allocator@D@2@@std@@QEAAX$$QEAV12@U?$integral_constant@_N$00@2@@Z
   12D476 ?_Calculate_growth@?$vector@V?$basic_string@DU?$char_traits@D@std@@V?$allocator@D@2@@std@@V?$allocator@V?$basic_string@DU?$char_traits@D@std@@V?$allocator@D@2@@std@@@2@@std@@AEBA_K_K@Z
   12D476 ?_Change_array@?$vector@V?$basic_string@DU?$char_traits@D@std@@V?$allocator@D@2@@std@@V?$allocator@V?$basic_string@DU?$char_traits@D@std@@V?$allocator@D@2@@std@@@2@@std@@AEAAXQEAV?$basic_string@DU?$char_traits@D@std@@V?$allocator@D@2@@2@_K1@Z
   12D476 ?_Check_offset@?$_String_val@U?$_Simple_types@D@std@@@std@@QEBAX_K@Z
   12D476 ?_Clrcont@_Iterator_base12@std@@QEAAXXZ
   12D476 ?_Copy_alloc@?$_String_alloc@U?$_String_base_types@DV?$allocator@D@std@@@std@@@std@@QEAAXAEBV?$allocator@D@2@@Z
   12D476 ?_Destroy@?$vector@V?$basic_string@DU?$char_traits@D@std@@V?$allocator@D@2@@std@@V?$allocator@V?$basic_string@DU?$char_traits@D@std@@V?$allocator@D@2@@std@@@2@@std@@AEAAXPEAV?$basic_string@DU?$char_traits@D@std@@V?$allocator@D@2@@2@0@Z
   12D476 ?_Free_proxy@?$_Vector_alloc@U?$_Vec_base_types@V?$basic_string@DU?$char_traits@D@std@@V?$allocator@D@2@@std@@V?$allocator@V?$basic_string@DU?$char_traits@D@std@@V?$allocator@D@2@@std@@@2@@std@@@std@@QEAAXXZ
   12D476 ?_Get_data@?$_Vector_alloc@U?$_Vec_base_types@V?$basic_string@DU?$char_traits@D@std@@V?$allocator@D@2@@std@@V?$allocator@V?$basic_string@DU?$char_traits@D@std@@V?$allocator@D@2@@std@@@2@@std@@@std@@QEAAAEAV?$_Vector_val@U?$_Simple_types@V?$basic_string@DU?$char_traits@D@std@@V?$allocator@D@2@@std@@@std@@@2@XZ
   12D476 ?_Get_data@?$_Vector_alloc@U?$_Vec_base_types@V?$basic_string@DU?$char_traits@D@std@@V?$allocator@D@2@@std@@V?$allocator@V?$basic_string@DU?$char_traits@D@std@@V?$allocator@D@2@@std@@@2@@std@@@std@@QEBAAEBV?$_Vector_val@U?$_Simple_types@V?$basic_string@DU?$char_traits@D@std@@V?$allocator@D@2@@std@@@std@@@2@XZ
   12D476 ?_Get_first@?$_Compressed_pair@V?$allocator@V?$basic_string@DU?$char_traits@D@std@@V?$allocator@D@2@@std@@@std@@V?$_Vector_val@U?$_Simple_types@V?$basic_string@DU?$char_traits@D@std@@V?$allocator@D@2@@std@@@std@@@2@$00@std@@QEAAAEAV?$allocator@V?$basic_string@DU?$char_traits@D@std@@V?$allocator@D@2@@std@@@2@XZ
   12D476 ?_Get_first@?$_Compressed_pair@V?$allocator@V?$basic_string@DU?$char_traits@D@std@@V?$allocator@D@2@@std@@@std@@V?$_Vector_val@U?$_Simple_types@V?$basic_string@DU?$char_traits@D@std@@V?$allocator@D@2@@std@@@std@@@2@$00@std@@QEBAAEBV?$allocator@V?$basic_string@DU?$char_traits@D@std@@V?$allocator@D@2@@std@@@2@XZ
   12D476 ?_Get_second@?$_Compressed_pair@V?$allocator@V?$basic_string@DU?$char_traits@D@std@@V?$allocator@D@2@@std@@@std@@V?$_Vector_val@U?$_Simple_types@V?$basic_string@DU?$char_traits@D@std@@V?$allocator@D@2@@std@@@std@@@2@$00@std@@QEAAAEAV?$_Vector_val@U?$_Simple_types@V?$basic_string@DU?$char_traits@D@std@@V?$allocator@D@2@@std@@@std@@@2@XZ
   12D476 ?_Get_second@?$_Compressed_pair@V?$allocator@V?$basic_string@DU?$char_traits@D@std@@V?$allocator@D@2@@std@@@std@@V?$_Vector_val@U?$_Simple_types@V?$basic_string@DU?$char_traits@D@std@@V?$allocator@D@2@@std@@@std@@@2@$00@std@@QEBAAEBV?$_Vector_val@U?$_Simple_types@V?$basic_string@DU?$char_traits@D@std@@V?$allocator@D@2@@std@@@std@@@2@XZ
   12D476 ?_Getal@?$_Vector_alloc@U?$_Vec_base_types@V?$basic_string@DU?$char_traits@D@std@@V?$allocator@D@2@@std@@V?$allocator@V?$basic_string@DU?$char_traits@D@std@@V?$allocator@D@2@@std@@@2@@std@@@std@@QEAAAEAV?$allocator@V?$basic_string@DU?$char_traits@D@std@@V?$allocator@D@2@@std@@@2@XZ
   12D476 ?_Getal@?$_Vector_alloc@U?$_Vec_base_types@V?$basic_string@DU?$char_traits@D@std@@V?$allocator@D@2@@std@@V?$allocator@V?$basic_string@DU?$char_traits@D@std@@V?$allocator@D@2@@std@@@2@@std@@@std@@QEBAAEBV?$allocator@V?$basic_string@DU?$char_traits@D@std@@V?$allocator@D@2@@std@@@2@XZ
   12D476 ?_Getpfirst@?$_Vector_alloc@U?$_Vec_base_types@V?$basic_string@DU?$char_traits@D@std@@V?$allocator@D@2@@std@@V?$allocator@V?$basic_string@DU?$char_traits@D@std@@V?$allocator@D@2@@std@@@2@@std@@@std@@QEBAPEAPEAU_Iterator_base12@2@XZ
   12D476 ?_Getpfirst@_Container_base12@std@@QEBAPEAPEAU_Iterator_base12@2@XZ
   12D476 ?_Getpnext@_Iterator_base12@std@@QEAAPEAPEAU12@XZ
   12D476 ?_Has_unused_capacity@?$vector@V?$basic_string@DU?$char_traits@D@std@@V?$allocator@D@2@@std@@V?$allocator@V?$basic_string@DU?$char_traits@D@std@@V?$allocator@D@2@@std@@@2@@std@@AEBA_NXZ
   12D476 ?_Myend@?$_Vector_alloc@U?$_Vec_base_types@V?$basic_string@DU?$char_traits@D@std@@V?$allocator@D@2@@std@@V?$allocator@V?$basic_string@DU?$char_traits@D@std@@V?$allocator@D@2@@std@@@2@@std@@@std@@QEAAAEAPEAV?$basic_string@DU?$char_traits@D@std@@V?$allocator@D@2@@2@XZ
   12D476 ?_Myend@?$_Vector_alloc@U?$_Vec_base_types@V?$basic_string@DU?$char_traits@D@std@@V?$allocator@D@2@@std@@V?$allocator@V?$basic_string@DU?$char_traits@D@std@@V?$allocator@D@2@@std@@@2@@std@@@std@@QEBAAEBQEAV?$basic_string@DU?$char_traits@D@std@@V?$allocator@D@2@@2@XZ
   12D476 ?_Myfirst@?$_Vector_alloc@U?$_Vec_base_types@V?$basic_string@DU?$char_traits@D@std@@V?$allocator@D@2@@std@@V?$allocator@V?$basic_string@DU?$char_traits@D@std@@V?$allocator@D@2@@std@@@2@@std@@@std@@QEAAAEAPEAV?$basic_string@DU?$char_traits@D@std@@V?$allocator@D@2@@2@XZ
   12D476 ?_Myfirst@?$_Vector_alloc@U?$_Vec_base_types@V?$basic_string@DU?$char_traits@D@std@@V?$allocator@D@2@@std@@V?$allocator@V?$basic_string@DU?$char_traits@D@std@@V?$allocator@D@2@@std@@@2@@std@@@std@@QEBAAEBQEAV?$basic_string@DU?$char_traits@D@std@@V?$allocator@D@2@@2@XZ
   12D476 ?_Mylast@?$_Vector_alloc@U?$_Vec_base_types@V?$basic_string@DU?$char_traits@D@std@@V?$allocator@D@2@@std@@V?$allocator@V?$basic_string@DU?$char_traits@D@std@@V?$allocator@D@2@@std@@@2@@std@@@std@@QEAAAEAPEAV?$basic_string@DU?$char_traits@D@std@@V?$allocator@D@2@@2@XZ
   12D476 ?_Mylast@?$_Vector_alloc@U?$_Vec_base_types@V?$basic_string@DU?$char_traits@D@std@@V?$allocator@D@2@@std@@V?$allocator@V?$basic_string@DU?$char_traits@D@std@@V?$allocator@D@2@@std@@@2@@std@@@std@@QEBAAEBQEAV?$basic_string@DU?$char_traits@D@std@@V?$allocator@D@2@@2@XZ
   12D476 ?_Myproxy@?$_Vector_alloc@U?$_Vec_base_types@V?$basic_string@DU?$char_traits@D@std@@V?$allocator@D@2@@std@@V?$allocator@V?$basic_string@DU?$char_traits@D@std@@V?$allocator@D@2@@std@@@2@@std@@@std@@QEAAAEAPEAU_Container_proxy@2@XZ
   12D476 ?_Orphan_all@?$_Vector_alloc@U?$_Vec_base_types@V?$basic_string@DU?$char_traits@D@std@@V?$allocator@D@2@@std@@V?$allocator@V?$basic_string@DU?$char_traits@D@std@@V?$allocator@D@2@@std@@@2@@std@@@std@@QEAAXXZ
   12D476 ?_Orphan_range@?$vector@V?$basic_string@DU?$char_traits@D@std@@V?$allocator@D@2@@std@@V?$allocator@V?$basic_string@DU?$char_traits@D@std@@V?$allocator@D@2@@std@@@2@@std@@AEBAXPEAV?$basic_string@DU?$char_traits@D@std@@V?$allocator@D@2@@2@0@Z
   12D476 ?_Release@?$_Uninitialized_backout_al@PEAV?$basic_string@DU?$char_traits@D@std@@V?$allocator@D@2@@std@@V?$allocator@V?$basic_string@DU?$char_traits@D@std@@V?$allocator@D@2@@std@@@2@@std@@QEAAPEAV?$basic_string@DU?$char_traits@D@std@@V?$allocator@D@2@@2@XZ
   12D476 ?_Swap_all@?$_String_alloc@U?$_String_base_types@DV?$allocator@D@std@@@std@@@std@@QEAAXAEAV12@@Z
   12D476 ?_Swap_all@_Container_base12@std@@QEAAXAEAU12@@Z
   12D476 ?_Tidy@?$vector@V?$basic_string@DU?$char_traits@D@std@@V?$allocator@D@2@@std@@V?$allocator@V?$basic_string@DU?$char_traits@D@std@@V?$allocator@D@2@@std@@@2@@std@@AEAAXXZ
   12D476 ?_Umove@?$vector@V?$basic_string@DU?$char_traits@D@std@@V?$allocator@D@2@@std@@V?$allocator@V?$basic_string@DU?$char_traits@D@std@@V?$allocator@D@2@@std@@@2@@std@@AEAAPEAV?$basic_string@DU?$char_traits@D@std@@V?$allocator@D@2@@2@PEAV32@00@Z
   12D476 ?_Umove_if_noexcept1@?$vector@V?$basic_string@DU?$char_traits@D@std@@V?$allocator@D@2@@std@@V?$allocator@V?$basic_string@DU?$char_traits@D@std@@V?$allocator@D@2@@std@@@2@@std@@AEAAXPEAV?$basic_string@DU?$char_traits@D@std@@V?$allocator@D@2@@2@00U?$integral_constant@_N$00@2@@Z
   12D476 ?_Umove_if_noexcept@?$vector@V?$basic_string@DU?$char_traits@D@std@@V?$allocator@D@2@@std@@V?$allocator@V?$basic_string@DU?$char_traits@D@std@@V?$allocator@D@2@@std@@@2@@std@@AEAAXPEAV?$basic_string@DU?$char_traits@D@std@@V?$allocator@D@2@@2@00@Z
   12D476 ?_Xlength@?$vector@V?$basic_string@DU?$char_traits@D@std@@V?$allocator@D@2@@std@@V?$allocator@V?$basic_string@DU?$char_traits@D@std@@V?$allocator@D@2@@std@@@2@@std@@CAXXZ
   12D476 ?_Xran@?$_String_val@U?$_Simple_types@D@std@@@std@@SAXXZ
   12D476 ?__LINE__Var@?0??add_matrices@SymList@relion@@QEAAXAEBV?$Matrix2D@M@3@0H@Z@4JA
   12D476 ?__LINE__Var@?0??read_sym_file@SymList@relion@@QEAAHVFileName@3@@Z@4JA
   12D476 ?__LINE__Var@?0??symmetriseMap@relion@@YAXAEAV?$MultidimArray@M@2@AEAVFileName@2@_N@Z@4JA
   12D476 ?add_matrices@SymList@relion@@QEAAXAEBV?$Matrix2D@M@2@0H@Z
   12D476 ?alias@?$MultidimArray@M@relion@@UEAAXAEBV12@@Z
   12D476 ?allocate@?$allocator@V?$basic_string@DU?$char_traits@D@std@@V?$allocator@D@2@@std@@@std@@QEAAPEAV?$basic_string@DU?$char_traits@D@std@@V?$allocator@D@2@@2@_K@Z
   12D476 ?append@?$basic_string@DU?$char_traits@D@std@@V?$allocator@D@2@@std@@QEAAAEAV12@AEBV12@@Z
   12D476 ?append@?$basic_string@DU?$char_traits@D@std@@V?$allocator@D@2@@std@@QEAAAEAV12@QEBD@Z
   12D476 ?append@?$basic_string@DU?$char_traits@D@std@@V?$allocator@D@2@@std@@QEAAAEAV12@QEBD_K@Z
   12D476 ?arrayByArray@relion@@YAXAEBV?$MultidimArray@M@1@0AEAV21@D@Z
   12D476 ?arrayByScalar@relion@@YAXAEBV?$MultidimArray@M@1@MAEAV21@D@Z
   12D476 ?c_str@?$basic_string@DU?$char_traits@D@std@@V?$allocator@D@2@@std@@QEBAPEBDXZ
   12D476 ?capacity@?$vector@V?$basic_string@DU?$char_traits@D@std@@V?$allocator@D@2@@std@@V?$allocator@V?$basic_string@DU?$char_traits@D@std@@V?$allocator@D@2@@std@@@2@@std@@QEBA_KXZ
   12D476 ?clear@?$Matrix1D@H@relion@@QEAAXXZ
   12D476 ?clear@?$Matrix2D@H@relion@@QEAAXXZ
   12D476 ?clear@?$MultidimArray@M@relion@@QEAAXXZ
   12D476 ?clear@?$vector@V?$basic_string@DU?$char_traits@D@std@@V?$allocator@D@2@@std@@V?$allocator@V?$basic_string@DU?$char_traits@D@std@@V?$allocator@D@2@@std@@@2@@std@@QEAAXXZ
   12D476 ?computeMax@?$Matrix2D@M@relion@@QEBAMXZ
   12D476 ?compute_subgroup@SymList@relion@@QEAAXXZ
   12D476 ?copyShape@?$MultidimArray@M@relion@@QEAAXAEBV12@@Z
   12D476 ?coreAllocate@?$MultidimArray@M@relion@@UEAAXXZ
   12D476 ?coreAllocateReuse@?$MultidimArray@M@relion@@UEAAXXZ
   12D476 ?coreArrayByArray@relion@@YAXAEBV?$MultidimArray@M@1@0AEAV21@D@Z
   12D476 ?coreArrayByScalar@relion@@YAXAEBV?$MultidimArray@M@1@AEBMAEAV21@D@Z
   12D476 ?coreDeallocate@?$Matrix1D@H@relion@@QEAAXXZ
   12D476 ?coreDeallocate@?$Matrix2D@H@relion@@QEAAXXZ
   12D476 ?coreDeallocate@?$MultidimArray@M@relion@@UEAAXXZ
   12D476 ?coreInit@?$Matrix1D@H@relion@@QEAAXXZ
   12D476 ?coreInit@?$Matrix2D@H@relion@@QEAAXXZ
   12D476 ?coreInit@?$MultidimArray@M@relion@@QEAAXXZ
   12D476 ?data@?$basic_string@DU?$char_traits@D@std@@V?$allocator@D@2@@std@@QEBAPEBDXZ
   12D476 ?deallocate@?$allocator@V?$basic_string@DU?$char_traits@D@std@@V?$allocator@D@2@@std@@@std@@QEAAXQEAV?$basic_string@DU?$char_traits@D@std@@V?$allocator@D@2@@2@_K@Z
   12D476 ?eof@?$char_traits@D@std@@SAHXZ
   12D476 ?eq_int_type@?$char_traits@D@std@@SA_NAEBH0@Z
   12D476 ?equal@?$Matrix2D@M@relion@@QEBA_NAEBV12@M@Z
   12D476 ?fill_symmetry_class@SymList@relion@@QEAAXVFileName@2@HHAEAV?$vector@V?$basic_string@DU?$char_traits@D@std@@V?$allocator@D@2@@std@@V?$allocator@V?$basic_string@DU?$char_traits@D@std@@V?$allocator@D@2@@std@@@2@@std@@@Z
   12D476 ?firstToken@relion@@YAPEADPEBD@Z
   12D476 ?found_not_tried@relion@@YA_NAEBV?$Matrix2D@H@1@AEAH1H@Z
   12D476 ?getDim@?$MultidimArray@M@relion@@QEBAHXZ
   12D476 ?get_matrices@SymList@relion@@QEBAXHAEAV?$Matrix2D@M@2@0@Z
   12D476 ?initConstant@?$Matrix1D@H@relion@@QEAAXH@Z
   12D476 ?initIdentity@?$Matrix2D@M@relion@@QEAAXXZ
   12D476 ?initZeros@?$Matrix1D@M@relion@@QEAAXH@Z
   12D476 ?insert@?$basic_string@DU?$char_traits@D@std@@V?$allocator@D@2@@std@@QEAAAEAV12@_KQEBD0@Z
   12D476 ?insert@?$basic_string@DU?$char_traits@D@std@@V?$allocator@D@2@@std@@QEAAAEAV12@_KQEBD@Z
   12D476 ?inv@?$Matrix2D@M@relion@@QEBA?AV12@XZ
   12D476 ?inv@?$Matrix2D@M@relion@@QEBAXAEAV12@@Z
   12D476 ?isIdentity@?$Matrix2D@M@relion@@QEBA_NXZ
   12D476 ?isSymmetryGroup@SymList@relion@@QEAA_NVFileName@2@AEAH1@Z
   12D476 ?max_size@?$_Default_allocator_traits@V?$allocator@V?$basic_string@DU?$char_traits@D@std@@V?$allocator@D@2@@std@@@std@@@std@@SA_KAEBV?$allocator@V?$basic_string@DU?$char_traits@D@std@@V?$allocator@D@2@@std@@@2@@Z
   12D476 ?max_size@?$vector@V?$basic_string@DU?$char_traits@D@std@@V?$allocator@D@2@@std@@V?$allocator@V?$basic_string@DU?$char_traits@D@std@@V?$allocator@D@2@@std@@@2@@std@@QEBA_KXZ
   12D476 ?nextToken@relion@@YAPEADXZ
   12D476 ?non_redundant_ewald_sphere@SymList@relion@@QEAAMHH@Z
   12D476 ?push_back@?$basic_string@DU?$char_traits@D@std@@V?$allocator@D@2@@std@@QEAAXD@Z
   12D476 ?push_back@?$vector@V?$basic_string@DU?$char_traits@D@std@@V?$allocator@D@2@@std@@V?$allocator@V?$basic_string@DU?$char_traits@D@std@@V?$allocator@D@2@@std@@@2@@std@@QEAAX$$QEAV?$basic_string@DU?$char_traits@D@std@@V?$allocator@D@2@@2@@Z
   12D476 ?read_sym_file@SymList@relion@@QEAAHVFileName@2@@Z
   12D476 ?resize@?$Matrix1D@H@relion@@QEAAXH_N@Z
   12D476 ?resize@?$Matrix2D@H@relion@@QEAAXHH@Z
   12D476 ?resize@?$MultidimArray@M@relion@@UEAAXJ@Z
   12D476 ?resize@?$MultidimArray@M@relion@@UEAAXJJ@Z
   12D476 ?resize@?$MultidimArray@M@relion@@UEAAXJJJJ_N@Z
   12D476 ?resize@?$MultidimArray@M@relion@@UEAAXJJJ_N@Z
   12D476 ?setSmallValuesToZero@?$Matrix2D@M@relion@@QEAAXM@Z
   12D476 ?setXmippOrigin@?$MultidimArray@M@relion@@QEAAXXZ
   12D476 ?set_matrices@SymList@relion@@QEAAXHAEBV?$Matrix2D@M@2@0@Z
   12D476 ?size@?$Matrix1D@H@relion@@QEBAHXZ
   12D476 ?size@?$basic_string@DU?$char_traits@D@std@@V?$allocator@D@2@@std@@QEBA_KXZ
   12D476 ?size@?$vector@V?$basic_string@DU?$char_traits@D@std@@V?$allocator@D@2@@std@@V?$allocator@V?$basic_string@DU?$char_traits@D@std@@V?$allocator@D@2@@std@@@2@@std@@QEBA_KXZ
   12D476 ?symmetriseMap@relion@@YAXAEAV?$MultidimArray@M@1@AEAVFileName@1@_N@Z
   12D476 ?writeDefinition@SymList@relion@@QEAAXAEAV?$basic_ostream@DU?$char_traits@D@std@@@std@@VFileName@2@@Z
   12D476 __real@0000000000000000
   12D476 __real@38d1b717
   12D476 __real@3d06849b86a12b9b
   12D476 __real@3dd67750
   12D476 __real@3e567750
   12D476 __real@3e860a92
   12D476 __real@3f060a92
   12D476 __real@3f860a92
   12D476 __real@4000000000000000
   12D476 __real@4010000000000000
   12D476 __real@402921fb54442d18
   12D476 __real@4076800000000000
   12D476 __real@40c90fdb
   12D476 __xmm@80000000000000008000000000000000
   20A714 ??$?0$$V@?$_Compressed_pair@V?$allocator@H@std@@V?$_Vector_val@U?$_Simple_types@H@std@@@2@$00@std@@QEAA@U_Zero_then_variadic_args_t@1@@Z
   20A714 ??$?0AEBV?$allocator@D@std@@$$V@?$_Compressed_pair@V?$allocator@D@std@@V?$_String_val@U?$_Simple_types@D@std@@@2@$00@std@@QEAA@U_One_then_variadic_args_t@1@AEBV?$allocator@D@1@@Z
   20A714 ??$?0AEBV?$allocator@D@std@@X@?$_String_alloc@U?$_String_base_types@DV?$allocator@D@std@@@std@@@std@@QEAA@AEBV?$allocator@D@1@@Z
   20A714 ??$?0H@?$allocator@U_Container_proxy@std@@@std@@QEAA@AEBV?$allocator@H@1@@Z
   20A714 ??$?8DU?$char_traits@D@std@@V?$allocator@D@1@@std@@YA_NAEBV?$basic_string@DU?$char_traits@D@std@@V?$allocator@D@2@@0@QEBD@Z
   20A714 ??$?9DD@std@@YA_NAEBV?$allocator@D@0@0@Z
   20A714 ??$?HDU?$char_traits@D@std@@V?$allocator@D@1@@std@@YA?AV?$basic_string@DU?$char_traits@D@std@@V?$allocator@D@2@@0@QEBDAEBV10@@Z
   20A714 ??$_Copy_memmove@PEAHPEAH@std@@YAPEAHPEAH00@Z
   20A714 ??$_Destroy_range1@V?$allocator@H@std@@@std@@YAXPEAH0AEAV?$allocator@H@0@U?$integral_constant@_N$00@0@@Z
   20A714 ??$_Destroy_range@V?$allocator@H@std@@@std@@YAXPEAH0AEAV?$allocator@H@0@@Z
   20A714 ??$_Emplace_back_with_unused_capacity@AEBH@?$vector@HV?$allocator@H@std@@@std@@AEAA@AEBH@Z
   20A714 ??$_Emplace_back_with_unused_capacity@AEBV?$basic_string@DU?$char_traits@D@std@@V?$allocator@D@2@@std@@@?$vector@V?$basic_string@DU?$char_traits@D@std@@V?$allocator@D@2@@std@@V?$allocator@V?$basic_string@DU?$char_traits@D@std@@V?$allocator@D@2@@std@@@2@@std@@AEAA@AEBV?$basic_string@DU?$char_traits@D@std@@V?$allocator@D@2@@1@@Z
   20A714 ??$_Emplace_reallocate@AEBH@?$vector@HV?$allocator@H@std@@@std@@QEAAPEAHQEAHAEBH@Z
   20A714 ??$_Emplace_reallocate@AEBV?$basic_string@DU?$char_traits@D@std@@V?$allocator@D@2@@std@@@?$vector@V?$basic_string@DU?$char_traits@D@std@@V?$allocator@D@2@@std@@V?$allocator@V?$basic_string@DU?$char_traits@D@std@@V?$allocator@D@2@@std@@@2@@std@@QEAAPEAV?$basic_string@DU?$char_traits@D@std@@V?$allocator@D@2@@1@QEAV21@AEBV21@@Z
   20A714 ??$_Get_size_of_n@$03@std@@YA_K_K@Z
   20A714 ??$_Get_unwrapped@H@std@@YAPEAHQEAH@Z
   20A714 ??$_Get_unwrapped_n@H_J$0A@@std@@YAPEAHQEAH_J@Z
   20A714 ??$_Idl_distance1@PEAHPEAH@std@@YA_JAEBQEAH0Urandom_access_iterator_tag@0@@Z
   20A714 ??$_Idl_distance@PEAHPEAH@std@@YA@AEBQEAH0@Z
   20A714 ??$_Max_value@PEAD@std@@YAAEBQEADAEBQEAD0@Z
   20A714 ??$_Pocma@V?$allocator@D@std@@@std@@YAXAEAV?$allocator@D@0@0@Z
   20A714 ??$_Pocma@V?$allocator@D@std@@@std@@YAXAEAV?$allocator@D@0@0U?$integral_constant@_N$00@0@@Z
   20A714 ??$_Ptr_move_cat@HH@std@@YA?AU_Really_trivial_ptr_iterator_tag@0@AEBQEAH0@Z
   20A714 ??$_Reallocate_grow_by@V<lambda_9013ee9e23efe4882b67eff5b0ecf103>@@$$V@?$basic_string@DU?$char_traits@D@std@@V?$allocator@D@2@@std@@QEAAAEAV01@_KV<lambda_9013ee9e23efe4882b67eff5b0ecf103>@@@Z
   20A714 ??$_Reallocate_grow_by@V<lambda_e1befb086ad3257e3f042a63030725f7>@@_KD@?$basic_string@DU?$char_traits@D@std@@V?$allocator@D@2@@std@@QEAAAEAV01@_KV<lambda_e1befb086ad3257e3f042a63030725f7>@@_KD@Z
   20A714 ??$_Seek_wrapped@H@std@@YAXAEAPEAHQEAH@Z
   20A714 ??$_Traits_equal@U?$char_traits@D@std@@@std@@YA_NQEBD_K01@Z
   20A714 ??$_Traits_find@U?$char_traits@D@std@@@std@@YA_KQEBD_K101@Z
   20A714 ??$_Traits_find_ch@U?$char_traits@D@std@@@std@@YA_KQEBD_K1D@Z
   20A714 ??$_Traits_find_first_not_of@U?$char_traits@D@std@@@std@@YA_KQEBD_K101U?$integral_constant@_N$00@0@@Z
   20A714 ??$_Traits_find_first_not_of@U?$char_traits@D@std@@@std@@YA_KQEBD_K101U?$integral_constant@_N$0A@@0@@Z
   20A714 ??$_Traits_find_first_of@U?$char_traits@D@std@@@std@@YA_KQEBD_K101U?$integral_constant@_N$00@0@@Z
   20A714 ??$_Traits_find_first_of@U?$char_traits@D@std@@@std@@YA_KQEBD_K101U?$integral_constant@_N$0A@@0@@Z
   20A714 ??$_Traits_find_last_not_of@U?$char_traits@D@std@@@std@@YA_KQEBD_K101U?$integral_constant@_N$00@0@@Z
   20A714 ??$_Traits_find_last_not_of@U?$char_traits@D@std@@@std@@YA_KQEBD_K101U?$integral_constant@_N$0A@@0@@Z
   20A714 ??$_Traits_find_not_ch@U?$char_traits@D@std@@@std@@YA_KQEBD_K1D@Z
   20A714 ??$_Traits_rfind_not_ch@U?$char_traits@D@std@@@std@@YA_KQEBD_K1D@Z
   20A714 ??$_Unfancy@H@std@@YAPEAHPEAH@Z
   20A714 ??$_Uninitialized_move@PEAHPEAHV?$allocator@H@std@@@std@@YAPEAHQEAH0PEAHAEAV?$allocator@H@0@@Z
   20A714 ??$_Uninitialized_move_al_unchecked@HHV?$allocator@H@std@@@std@@YAPEAHQEAH00AEAV?$allocator@H@0@U_Really_trivial_ptr_iterator_tag@0@U?$integral_constant@_N$00@0@@Z
   20A714 ??$addressof@D@std@@YAPEADAEAD@Z
   20A714 ??$addressof@V?$_Vector_val@U?$_Simple_types@H@std@@@std@@@std@@YAPEAV?$_Vector_val@U?$_Simple_types@H@std@@@0@AEAV10@@Z
   20A714 ??$addressof@V?$basic_string@DU?$char_traits@D@std@@V?$allocator@D@2@@std@@@std@@YAPEAV?$basic_string@DU?$char_traits@D@std@@V?$allocator@D@2@@0@AEAV10@@Z
   20A714 ??$construct@HAEBH@?$_Default_allocator_traits@V?$allocator@H@std@@@std@@SAXAEAV?$allocator@H@1@QEAHAEBH@Z
   20A714 ??$construct@V?$basic_string@DU?$char_traits@D@std@@V?$allocator@D@2@@std@@AEBV12@@?$_Default_allocator_traits@V?$allocator@V?$basic_string@DU?$char_traits@D@std@@V?$allocator@D@2@@std@@@std@@@std@@SAXAEAV?$allocator@V?$basic_string@DU?$char_traits@D@std@@V?$allocator@D@2@@std@@@1@QEAV?$basic_string@DU?$char_traits@D@std@@V?$allocator@D@2@@1@AEBV31@@Z
   20A714 ??$emplace_back@AEBH@?$vector@HV?$allocator@H@std@@@std@@QEAA@AEBH@Z
   20A714 ??$emplace_back@AEBV?$basic_string@DU?$char_traits@D@std@@V?$allocator@D@2@@std@@@?$vector@V?$basic_string@DU?$char_traits@D@std@@V?$allocator@D@2@@std@@V?$allocator@V?$basic_string@DU?$char_traits@D@std@@V?$allocator@D@2@@std@@@2@@std@@QEAA@AEBV?$basic_string@DU?$char_traits@D@std@@V?$allocator@D@2@@1@@Z
   20A714 ??$ends@DU?$char_traits@D@std@@@std@@YAAEAV?$basic_ostream@DU?$char_traits@D@std@@@0@AEAV10@@Z
   20A714 ??$forward@AEBH@std@@YAAEBHAEBH@Z
   20A714 ??$forward@AEBV?$allocator@D@std@@@std@@YAAEBV?$allocator@D@0@AEBV10@@Z
   20A714 ??$forward@AEBV?$basic_string@DU?$char_traits@D@std@@V?$allocator@D@2@@std@@@std@@YAAEBV?$basic_string@DU?$char_traits@D@std@@V?$allocator@D@2@@0@AEBV10@@Z
   20A714 ??0?$_String_bitmap@D$00@std@@QEAA@XZ
   20A714 ??0?$_Vector_alloc@U?$_Vec_base_types@HV?$allocator@H@std@@@std@@@std@@QEAA@XZ
   20A714 ??0?$_Vector_val@U?$_Simple_types@H@std@@@std@@QEAA@XZ
   20A714 ??0?$allocator@H@std@@QEAA@XZ
   20A714 ??0?$basic_ostringstream@DU?$char_traits@D@std@@V?$allocator@D@2@@std@@QEAA@H@Z
   20A714 ??0?$basic_string@DU?$char_traits@D@std@@V?$allocator@D@2@@std@@QEAA@AEBV01@_K1AEBV?$allocator@D@1@@Z
   20A714 ??0?$basic_string@DU?$char_traits@D@std@@V?$allocator@D@2@@std@@QEAA@AEBV?$allocator@D@1@@Z
   20A714 ??0?$basic_string@DU?$char_traits@D@std@@V?$allocator@D@2@@std@@QEAA@XZ
   20A714 ??0?$basic_stringbuf@DU?$char_traits@D@std@@V?$allocator@D@2@@std@@QEAA@H@Z
   20A714 ??0?$fpos@U_Mbstatet@@@std@@QEAA@_J@Z
   20A714 ??0?$vector@HV?$allocator@H@std@@@std@@QEAA@XZ
   20A714 ??1?$_Vector_alloc@U?$_Vec_base_types@HV?$allocator@H@std@@@std@@@std@@QEAA@XZ
   20A714 ??1?$basic_ostringstream@DU?$char_traits@D@std@@V?$allocator@D@2@@std@@UEAA@XZ
   20A714 ??1?$basic_stringbuf@DU?$char_traits@D@std@@V?$allocator@D@2@@std@@UEAA@XZ
   20A714 ??1?$vector@HV?$allocator@H@std@@@std@@QEAA@XZ
   20A714 ??4?$basic_string@DU?$char_traits@D@std@@V?$allocator@D@2@@std@@QEAAAEAV01@$$QEAV01@@Z
   20A714 ??A?$basic_string@DU?$char_traits@D@std@@V?$allocator@D@2@@std@@QEAAAEAD_K@Z
   20A714 ??A?$basic_string@DU?$char_traits@D@std@@V?$allocator@D@2@@std@@QEBAAEBD_K@Z
   20A714 ??A?$vector@HV?$allocator@H@std@@@std@@QEAAAEAH_K@Z
   20A714 ??B?$fpos@U_Mbstatet@@@std@@QEBA_JXZ
   20A714 ??R<lambda_9013ee9e23efe4882b67eff5b0ecf103>@@QEBAXQEADQEBD_K@Z
   20A714 ??R<lambda_e1befb086ad3257e3f042a63030725f7>@@QEBAXQEADQEBD_K2D@Z
   20A714 ??Y?$basic_string@DU?$char_traits@D@std@@V?$allocator@D@2@@std@@QEAAAEAV01@AEBV01@@Z
   20A714 ??Y?$basic_string@DU?$char_traits@D@std@@V?$allocator@D@2@@std@@QEAAAEAV01@D@Z
   20A714 ??Y?$basic_string@DU?$char_traits@D@std@@V?$allocator@D@2@@std@@QEAAAEAV01@QEBD@Z
   20A714 ??_7?$basic_ostringstream@DU?$char_traits@D@std@@V?$allocator@D@2@@std@@6B@
   20A714 ??_7?$basic_stringbuf@DU?$char_traits@D@std@@V?$allocator@D@2@@std@@6B@
   20A714 ??_8?$basic_ostringstream@DU?$char_traits@D@std@@V?$allocator@D@2@@std@@7B@
   20A714 ??_C@_01JOAMLHOP@?9@
   20A714 ??_C@_02DPKJAMEF@?$CFd@
   20A714 ??_C@_02HAOIJKIC@?$CFc@
   20A714 ??_C@_02NJPGOMH@?$CFf@
   20A714 ??_C@_03BHFFHIBL@rot@
   20A714 ??_C@_03FHAMIGJI@psi@
   20A714 ??_C@_03FIIJDNCO@?6?5?7@
   20A714 ??_C@_04BFAHMMK@?$CFlld@
   20A714 ??_C@_04HJDPHINC@tilt@
   20A714 ??_C@_0BO@LFGPDMIB@string?5subscript?5out?5of?5range@
   20A714 ??_C@_0CE@MIHMABHB@d?3?2software?2liblion?2src?2strings@
   20A714 ??_C@_0CI@FDDLBILJ@checkAngle?3?5Not?5recognized?5angl@
   20A714 ??_C@_0GI@OLBHAGPC@c?3?2program?5files?5?$CIx86?$CJ?2microsof@
   20A714 ??_C@_1EA@OADAPGGK@?$AA?$CC?$AAs?$AAt?$AAr?$AAi?$AAn?$AAg?$AA?5?$AAs?$AAu?$AAb?$AAs?$AAc?$AAr?$AAi@
   20A714 ??_C@_1HC@HBCEAHKD@?$AAs?$AAt?$AAd?$AA?3?$AA?3?$AAv?$AAe?$AAc?$AAt?$AAo?$AAr?$AA?$DM?$AAi?$AAn?$AAt@
   20A714 ??_C@_1LO@NPPEKPAI@?$AAs?$AAt?$AAd?$AA?3?$AA?3?$AAb?$AAa?$AAs?$AAi?$AAc?$AA_?$AAs?$AAt?$AAr?$AAi@
   20A714 ??_C@_1NA@CLPMMMDB@?$AAc?$AA?3?$AA?2?$AAp?$AAr?$AAo?$AAg?$AAr?$AAa?$AAm?$AA?5?$AAf?$AAi?$AAl?$AAe@
   20A714 ??_D?$basic_ostringstream@DU?$char_traits@D@std@@V?$allocator@D@2@@std@@QEAAXXZ
   20A714 ??_E?$basic_ostringstream@DU?$char_traits@D@std@@V?$allocator@D@2@@std@@$4PPPPPPPM@A@EAAPEAXI@Z
   20A714 ??_G?$basic_ostringstream@DU?$char_traits@D@std@@V?$allocator@D@2@@std@@UEAAPEAXI@Z
   20A714 ??_G?$basic_stringbuf@DU?$char_traits@D@std@@V?$allocator@D@2@@std@@UEAAPEAXI@Z
   20A714 ??_R0?AV?$_Iosb@H@std@@@8
   20A714 ??_R0?AV?$basic_ios@DU?$char_traits@D@std@@@std@@@8
   20A714 ??_R0?AV?$basic_ostream@DU?$char_traits@D@std@@@std@@@8
   20A714 ??_R0?AV?$basic_ostringstream@DU?$char_traits@D@std@@V?$allocator@D@2@@std@@@8
   20A714 ??_R0?AV?$basic_streambuf@DU?$char_traits@D@std@@@std@@@8
   20A714 ??_R0?AV?$basic_stringbuf@DU?$char_traits@D@std@@V?$allocator@D@2@@std@@@8
   20A714 ??_R0?AVios_base@std@@@8
   20A714 ??_R17?0A@EA@?$_Iosb@H@std@@8
   20A714 ??_R17A@3EA@?$_Iosb@H@std@@8
   20A714 ??_R1A@?0A@EA@?$_Iosb@H@std@@8
   20A714 ??_R1A@?0A@EA@?$basic_ios@DU?$char_traits@D@std@@@std@@8
   20A714 ??_R1A@?0A@EA@?$basic_ostream@DU?$char_traits@D@std@@@std@@8
   20A714 ??_R1A@?0A@EA@?$basic_ostringstream@DU?$char_traits@D@std@@V?$allocator@D@2@@std@@8
   20A714 ??_R1A@?0A@EA@?$basic_streambuf@DU?$char_traits@D@std@@@std@@8
   20A714 ??_R1A@?0A@EA@?$basic_stringbuf@DU?$char_traits@D@std@@V?$allocator@D@2@@std@@8
   20A714 ??_R1A@?0A@EA@ios_base@std@@8
   20A714 ??_R1A@A@3EA@ios_base@std@@8
   20A714 ??_R1A@A@3FA@?$basic_ios@DU?$char_traits@D@std@@@std@@8
   20A714 ??_R2?$_Iosb@H@std@@8
   20A714 ??_R2?$basic_ios@DU?$char_traits@D@std@@@std@@8
   20A714 ??_R2?$basic_ostream@DU?$char_traits@D@std@@@std@@8
   20A714 ??_R2?$basic_ostringstream@DU?$char_traits@D@std@@V?$allocator@D@2@@std@@8
   20A714 ??_R2?$basic_streambuf@DU?$char_traits@D@std@@@std@@8
   20A714 ??_R2?$basic_stringbuf@DU?$char_traits@D@std@@V?$allocator@D@2@@std@@8
   20A714 ??_R2ios_base@std@@8
   20A714 ??_R3?$_Iosb@H@std@@8
   20A714 ??_R3?$basic_ios@DU?$char_traits@D@std@@@std@@8
   20A714 ??_R3?$basic_ostream@DU?$char_traits@D@std@@@std@@8
   20A714 ??_R3?$basic_ostringstream@DU?$char_traits@D@std@@V?$allocator@D@2@@std@@8
   20A714 ??_R3?$basic_streambuf@DU?$char_traits@D@std@@@std@@8
   20A714 ??_R3?$basic_stringbuf@DU?$char_traits@D@std@@V?$allocator@D@2@@std@@8
   20A714 ??_R3ios_base@std@@8
   20A714 ??_R4?$basic_ostringstream@DU?$char_traits@D@std@@V?$allocator@D@2@@std@@6B@
   20A714 ??_R4?$basic_stringbuf@DU?$char_traits@D@std@@V?$allocator@D@2@@std@@6B@
   20A714 ?_Alloc_proxy@?$_Vector_alloc@U?$_Vec_base_types@HV?$allocator@H@std@@@std@@@std@@QEAAXXZ
   20A714 ?_Assign_rv_contents@?$basic_string@DU?$char_traits@D@std@@V?$allocator@D@2@@std@@QEAAX$$QEAV12@U?$integral_constant@_N$00@2@@Z
   20A714 ?_Become_small@?$basic_string@DU?$char_traits@D@std@@V?$allocator@D@2@@std@@QEAAXXZ
   20A714 ?_Calculate_growth@?$vector@HV?$allocator@H@std@@@std@@AEBA_K_K@Z
   20A714 ?_Change_array@?$vector@HV?$allocator@H@std@@@std@@AEAAXQEAH_K1@Z
   20A714 ?_Clamp_suffix_size@?$_String_val@U?$_Simple_types@D@std@@@std@@QEBA_K_K0@Z
   20A714 ?_Destroy@?$vector@HV?$allocator@H@std@@@std@@AEAAXPEAH0@Z
   20A714 ?_Eos@?$basic_string@DU?$char_traits@D@std@@V?$allocator@D@2@@std@@QEAAX_K@Z
   20A714 ?_Equal@?$basic_string@DU?$char_traits@D@std@@V?$allocator@D@2@@std@@QEBA_NQEBD@Z
   20A714 ?_Free_proxy@?$_Vector_alloc@U?$_Vec_base_types@HV?$allocator@H@std@@@std@@@std@@QEAAXXZ
   20A714 ?_Get_data@?$_Vector_alloc@U?$_Vec_base_types@HV?$allocator@H@std@@@std@@@std@@QEAAAEAV?$_Vector_val@U?$_Simple_types@H@std@@@2@XZ
   20A714 ?_Get_data@?$_Vector_alloc@U?$_Vec_base_types@HV?$allocator@H@std@@@std@@@std@@QEBAAEBV?$_Vector_val@U?$_Simple_types@H@std@@@2@XZ
   20A714 ?_Get_first@?$_Compressed_pair@V?$allocator@H@std@@V?$_Vector_val@U?$_Simple_types@H@std@@@2@$00@std@@QEAAAEAV?$allocator@H@2@XZ
   20A714 ?_Get_first@?$_Compressed_pair@V?$allocator@H@std@@V?$_Vector_val@U?$_Simple_types@H@std@@@2@$00@std@@QEBAAEBV?$allocator@H@2@XZ
   20A714 ?_Get_second@?$_Compressed_pair@V?$allocator@H@std@@V?$_Vector_val@U?$_Simple_types@H@std@@@2@$00@std@@QEAAAEAV?$_Vector_val@U?$_Simple_types@H@std@@@2@XZ
   20A714 ?_Get_second@?$_Compressed_pair@V?$allocator@H@std@@V?$_Vector_val@U?$_Simple_types@H@std@@@2@$00@std@@QEBAAEBV?$_Vector_val@U?$_Simple_types@H@std@@@2@XZ
   20A714 ?_Getal@?$_Vector_alloc@U?$_Vec_base_types@HV?$allocator@H@std@@@std@@@std@@QEAAAEAV?$allocator@H@2@XZ
   20A714 ?_Getal@?$_Vector_alloc@U?$_Vec_base_types@HV?$allocator@H@std@@@std@@@std@@QEBAAEBV?$allocator@H@2@XZ
   20A714 ?_Getpfirst@?$_Vector_alloc@U?$_Vec_base_types@HV?$allocator@H@std@@@std@@@std@@QEBAPEAPEAU_Iterator_base12@2@XZ
   20A714 ?_Getstate@?$basic_stringbuf@DU?$char_traits@D@std@@V?$allocator@D@2@@std@@CAHH@Z
   20A714 ?_Has_unused_capacity@?$vector@HV?$allocator@H@std@@@std@@AEBA_NXZ
   20A714 ?_Mark@?$_String_bitmap@D$00@std@@QEAA_NPEBDQEBD@Z
   20A714 ?_Match@?$_String_bitmap@D$00@std@@QEBA_ND@Z
   20A714 ?_Move_alloc@?$_String_alloc@U?$_String_base_types@DV?$allocator@D@std@@@std@@@std@@QEAAXAEAV?$allocator@D@2@@Z
   20A714 ?_Myend@?$_Vector_alloc@U?$_Vec_base_types@HV?$allocator@H@std@@@std@@@std@@QEAAAEAPEAHXZ
   20A714 ?_Myend@?$_Vector_alloc@U?$_Vec_base_types@HV?$allocator@H@std@@@std@@@std@@QEBAAEBQEAHXZ
   20A714 ?_Myfirst@?$_Vector_alloc@U?$_Vec_base_types@HV?$allocator@H@std@@@std@@@std@@QEAAAEAPEAHXZ
   20A714 ?_Myfirst@?$_Vector_alloc@U?$_Vec_base_types@HV?$allocator@H@std@@@std@@@std@@QEBAAEBQEAHXZ
   20A714 ?_Mylast@?$_Vector_alloc@U?$_Vec_base_types@HV?$allocator@H@std@@@std@@@std@@QEAAAEAPEAHXZ
   20A714 ?_Mylast@?$_Vector_alloc@U?$_Vec_base_types@HV?$allocator@H@std@@@std@@@std@@QEBAAEBQEAHXZ
   20A714 ?_Myproxy@?$_Vector_alloc@U?$_Vec_base_types@HV?$allocator@H@std@@@std@@@std@@QEAAAEAPEAU_Container_proxy@2@XZ
   20A714 ?_OptionsStorage@?1??__local_stdio_scanf_options@@9@4_KA
   20A714 ?_Orphan_all@?$_Vector_alloc@U?$_Vec_base_types@HV?$allocator@H@std@@@std@@@std@@QEAAXXZ
   20A714 ?_Orphan_range@?$vector@HV?$allocator@H@std@@@std@@AEBAXPEAH0@Z
   20A714 ?_Tidy@?$basic_stringbuf@DU?$char_traits@D@std@@V?$allocator@D@2@@std@@IEAAXXZ
   20A714 ?_Tidy@?$vector@HV?$allocator@H@std@@@std@@AEAAXXZ
   20A714 ?_Umove@?$vector@HV?$allocator@H@std@@@std@@AEAAPEAHPEAH00@Z
   20A714 ?_Umove_if_noexcept1@?$vector@HV?$allocator@H@std@@@std@@AEAAXPEAH00U?$integral_constant@_N$00@2@@Z
   20A714 ?_Umove_if_noexcept@?$vector@HV?$allocator@H@std@@@std@@AEAAXPEAH00@Z
   20A714 ?_Xlength@?$vector@HV?$allocator@H@std@@@std@@CAXXZ
   20A714 ?__LINE__Var@?0??checkAngle@relion@@YAXAEBV?$basic_string@DU?$char_traits@D@std@@V?$allocator@D@2@@std@@@Z@4JA
   20A714 ?__LINE__Var@?0??firstWord@relion@@YAPEADPEADHAEBV?$basic_string@DU?$char_traits@D@std@@V?$allocator@D@2@@std@@@Z@4JA
   20A714 ?__LINE__Var@?0??textToDOUBLE@relion@@YAMPEBDHV?$basic_string@DU?$char_traits@D@std@@V?$allocator@D@2@@std@@@Z@4JA
   20A714 ?__LINE__Var@?0??textToFloat@relion@@YAMPEBDHV?$basic_string@DU?$char_traits@D@std@@V?$allocator@D@2@@std@@@Z@4JA
   20A714 ?__LINE__Var@?0??textToInt@relion@@YAHPEBDHV?$basic_string@DU?$char_traits@D@std@@V?$allocator@D@2@@std@@@Z@4JA
   20A714 ?__LINE__Var@?0??textToInteger@relion@@YAHPEBDHV?$basic_string@DU?$char_traits@D@std@@V?$allocator@D@2@@std@@@Z@4JA
   20A714 ?__LINE__Var@?0??textToLongLong@relion@@YA_JPEBDHV?$basic_string@DU?$char_traits@D@std@@V?$allocator@D@2@@std@@@Z@4JA
   20A714 ?allocate@?$allocator@H@std@@QEAAPEAH_K@Z
   20A714 ?append@?$basic_string@DU?$char_traits@D@std@@V?$allocator@D@2@@std@@QEAAAEAV12@_KD@Z
   20A714 ?assign@?$basic_string@DU?$char_traits@D@std@@V?$allocator@D@2@@std@@QEAAAEAV12@AEBV12@_K_K@Z
   20A714 ?assign@?$char_traits@D@std@@SAPEADQEAD_KD@Z
   20A714 ?bestPrecision@relion@@YAHMH@Z
   20A714 ?capacity@?$vector@HV?$allocator@H@std@@@std@@QEBA_KXZ
   20A714 ?checkAngle@relion@@YAXAEBV?$basic_string@DU?$char_traits@D@std@@V?$allocator@D@2@@std@@@Z
   20A714 ?clear@?$basic_string@DU?$char_traits@D@std@@V?$allocator@D@2@@std@@QEAAXXZ
   20A714 ?compare@?$char_traits@D@std@@SAHQEBD0_K@Z
   20A714 ?deallocate@?$allocator@H@std@@QEAAXQEAH_K@Z
   20A714 ?eq@?$char_traits@D@std@@SA_NAEBD0@Z
   20A714 ?erase@?$basic_string@DU?$char_traits@D@std@@V?$allocator@D@2@@std@@QEAAAEAV12@_K@Z
   20A714 ?erase@?$basic_string@DU?$char_traits@D@std@@V?$allocator@D@2@@std@@QEAAAEAV12@_K_K@Z
   20A714 ?find@?$basic_string@DU?$char_traits@D@std@@V?$allocator@D@2@@std@@QEBA_KAEBV12@_K@Z
   20A714 ?find@?$basic_string@DU?$char_traits@D@std@@V?$allocator@D@2@@std@@QEBA_KD_K@Z
   20A714 ?find@?$char_traits@D@std@@SAPEBDQEBD_KAEBD@Z
   20A714 ?find_first_not_of@?$basic_string@DU?$char_traits@D@std@@V?$allocator@D@2@@std@@QEBA_KAEBV12@_K@Z
   20A714 ?find_first_not_of@?$basic_string@DU?$char_traits@D@std@@V?$allocator@D@2@@std@@QEBA_KD_K@Z
   20A714 ?find_first_not_of@?$basic_string@DU?$char_traits@D@std@@V?$allocator@D@2@@std@@QEBA_KQEBD_K@Z
   20A714 ?find_first_of@?$basic_string@DU?$char_traits@D@std@@V?$allocator@D@2@@std@@QEBA_KAEBV12@_K@Z
   20A714 ?find_first_of@?$basic_string@DU?$char_traits@D@std@@V?$allocator@D@2@@std@@QEBA_KQEBD_K@Z
   20A714 ?find_last_not_of@?$basic_string@DU?$char_traits@D@std@@V?$allocator@D@2@@std@@QEBA_KD_K@Z
   20A714 ?find_last_not_of@?$basic_string@DU?$char_traits@D@std@@V?$allocator@D@2@@std@@QEBA_KQEBD_K@Z
   20A714 ?firstWord@relion@@YAPEADPEADHAEBV?$basic_string@DU?$char_traits@D@std@@V?$allocator@D@2@@std@@@Z
   20A714 ?floatToString@relion@@YA?AV?$basic_string@DU?$char_traits@D@std@@V?$allocator@D@2@@std@@MHH@Z
   20A714 ?get_allocator@?$basic_string@DU?$char_traits@D@std@@V?$allocator@D@2@@std@@QEBA?AV?$allocator@D@2@XZ
   20A714 ?integerToString@relion@@YA?AV?$basic_string@DU?$char_traits@D@std@@V?$allocator@D@2@@std@@HHD@Z
   20A714 ?length@?$basic_string@DU?$char_traits@D@std@@V?$allocator@D@2@@std@@QEBA_KXZ
   20A714 ?log10@@YAMM@Z
   20A714 ?max_size@?$_Default_allocator_traits@V?$allocator@H@std@@@std@@SA_KAEBV?$allocator@H@2@@Z
   20A714 ?max_size@?$vector@HV?$allocator@H@std@@@std@@QEBA_KXZ
   20A714 ?nextToken@relion@@YA?AV?$basic_string@DU?$char_traits@D@std@@V?$allocator@D@2@@std@@AEBV23@AEAH@Z
   20A714 ?not_eof@?$char_traits@D@std@@SAHAEBH@Z
   20A714 ?overflow@?$basic_stringbuf@DU?$char_traits@D@std@@V?$allocator@D@2@@std@@MEAAHH@Z
   20A714 ?pbackfail@?$basic_stringbuf@DU?$char_traits@D@std@@V?$allocator@D@2@@std@@MEAAHH@Z
   20A714 ?pointer_to@?$pointer_traits@PEAD@std@@SAPEADAEAD@Z
   20A714 ?push_back@?$vector@HV?$allocator@H@std@@@std@@QEAAXAEBH@Z
   20A714 ?push_back@?$vector@V?$basic_string@DU?$char_traits@D@std@@V?$allocator@D@2@@std@@V?$allocator@V?$basic_string@DU?$char_traits@D@std@@V?$allocator@D@2@@std@@@2@@std@@QEAAXAEBV?$basic_string@DU?$char_traits@D@std@@V?$allocator@D@2@@2@@Z
   20A714 ?removeChar@relion@@YA?AV?$basic_string@DU?$char_traits@D@std@@V?$allocator@D@2@@std@@AEBV23@D@Z
   20A714 ?removeQuotes@relion@@YAXPEAPEAD@Z
   20A714 ?removeSpaces@relion@@YA?AV?$basic_string@DU?$char_traits@D@std@@V?$allocator@D@2@@std@@AEBV23@@Z
   20A714 ?reserve@?$basic_string@DU?$char_traits@D@std@@V?$allocator@D@2@@std@@QEAAX_K@Z
   20A714 ?resize@?$basic_string@DU?$char_traits@D@std@@V?$allocator@D@2@@std@@QEAAX_KD@Z
   20A714 ?seekoff@?$basic_stringbuf@DU?$char_traits@D@std@@V?$allocator@D@2@@std@@MEAA?AV?$fpos@U_Mbstatet@@@2@_JHH@Z
   20A714 ?seekpos@?$basic_stringbuf@DU?$char_traits@D@std@@V?$allocator@D@2@@std@@MEAA?AV?$fpos@U_Mbstatet@@@2@V32@H@Z
   20A714 ?simplify@relion@@YA?AV?$basic_string@DU?$char_traits@D@std@@V?$allocator@D@2@@std@@AEBV23@@Z
   20A714 ?size@?$vector@HV?$allocator@H@std@@@std@@QEBA_KXZ
   20A714 ?splitString@relion@@YAHAEBV?$basic_string@DU?$char_traits@D@std@@V?$allocator@D@2@@std@@0AEAV?$vector@V?$basic_string@DU?$char_traits@D@std@@V?$allocator@D@2@@std@@V?$allocator@V?$basic_string@DU?$char_traits@D@std@@V?$allocator@D@2@@std@@@2@@3@_N@Z
   20A714 ?str@?$basic_ostringstream@DU?$char_traits@D@std@@V?$allocator@D@2@@std@@QEBA?AV?$basic_string@DU?$char_traits@D@std@@V?$allocator@D@2@@2@XZ
   20A714 ?str@?$basic_stringbuf@DU?$char_traits@D@std@@V?$allocator@D@2@@std@@QEBA?AV?$basic_string@DU?$char_traits@D@std@@V?$allocator@D@2@@2@XZ
   20A714 ?stringToString@relion@@YA?AV?$basic_string@DU?$char_traits@D@std@@V?$allocator@D@2@@std@@AEBV23@H@Z
   20A714 ?substr@?$basic_string@DU?$char_traits@D@std@@V?$allocator@D@2@@std@@QEBA?AV12@_K0@Z
   20A714 ?textToDOUBLE@relion@@YAMPEBDHV?$basic_string@DU?$char_traits@D@std@@V?$allocator@D@2@@std@@@Z
   20A714 ?textToFloat@relion@@YAMPEBDHV?$basic_string@DU?$char_traits@D@std@@V?$allocator@D@2@@std@@@Z
   20A714 ?textToInt@relion@@YAHPEBDHV?$basic_string@DU?$char_traits@D@std@@V?$allocator@D@2@@std@@@Z
   20A714 ?textToInteger@relion@@YAHPEBDHV?$basic_string@DU?$char_traits@D@std@@V?$allocator@D@2@@std@@@Z
   20A714 ?textToLongLong@relion@@YA_JPEBDHV?$basic_string@DU?$char_traits@D@std@@V?$allocator@D@2@@std@@@Z
   20A714 ?toLower@relion@@YAXAEAV?$basic_string@DU?$char_traits@D@std@@V?$allocator@D@2@@std@@@Z
   20A714 ?toLower@relion@@YAXPEAD@Z
   20A714 ?to_char_type@?$char_traits@D@std@@SADAEBH@Z
   20A714 ?to_int_type@?$char_traits@D@std@@SAHAEBD@Z
   20A714 ?tokenize@relion@@YAXAEBV?$basic_string@DU?$char_traits@D@std@@V?$allocator@D@2@@std@@AEAV?$vector@V?$basic_string@DU?$char_traits@D@std@@V?$allocator@D@2@@std@@V?$allocator@V?$basic_string@DU?$char_traits@D@std@@V?$allocator@D@2@@std@@@2@@3@0@Z
   20A714 ?trim@relion@@YAXAEAV?$basic_string@DU?$char_traits@D@std@@V?$allocator@D@2@@std@@@Z
   20A714 ?underflow@?$basic_stringbuf@DU?$char_traits@D@std@@V?$allocator@D@2@@std@@MEAAHXZ
   20A714 ?unescape@relion@@YA?AV?$basic_string@DU?$char_traits@D@std@@V?$allocator@D@2@@std@@AEBV23@@Z
   20A714 __local_stdio_scanf_options
   20A714 _vsscanf_l
   20A714 sscanf
   2CACF0 ??$CenterFFT@M@relion@@YAXAEAV?$MultidimArray@M@0@_N@Z
   2CACF0 ??$FourierTransform@V?$MultidimArray@M@relion@@V?$MultidimArray@VComplex@relion@@@2@@FourierTransformer@relion@@QEAAXAEAV?$MultidimArray@M@1@AEAV?$MultidimArray@VComplex@relion@@@1@_N@Z
   2CACF0 ??$getFourierAlias@V?$MultidimArray@VComplex@relion@@@relion@@@FourierTransformer@relion@@QEAAXAEAV?$MultidimArray@VComplex@relion@@@1@@Z
   2CACF0 ??$getFourierCopy@V?$MultidimArray@VComplex@relion@@@relion@@@FourierTransformer@relion@@QEAAXAEAV?$MultidimArray@VComplex@relion@@@1@@Z
   2CACF0 ??$resize@VComplex@relion@@@?$MultidimArray@VComplex@relion@@@relion@@QEAAXAEBV01@_N@Z
   2CACF0 ??0?$MultidimArray@VComplex@relion@@@relion@@QEAA@XZ
   2CACF0 ??1?$MultidimArray@VComplex@relion@@@relion@@QEAA@XZ
   2CACF0 ??X?$Matrix2D@M@relion@@QEAAXM@Z
   2CACF0 ??_7?$MultidimArray@VComplex@relion@@@relion@@6B@
   2CACF0 ??_C@_01EEMJAFIK@?6@
   2CACF0 ??_C@_01FJMABOPO@x@
   2CACF0 ??_C@_01LBDDMOBJ@?$FN@
   2CACF0 ??_C@_02DJGKEECL@?4?4@
   2CACF0 ??_C@_04GBMHKFLI@?5k?$DN?$FL@
   2CACF0 ??_C@_04MLMOGNDD@?5i?$DN?$FL@
   2CACF0 ??_C@_04NJHLMCNN@?5j?$DN?$FL@
   2CACF0 ??_C@_0BF@JFNIHAKN@?5Number?5of?5images?5?$DN?5@
   2CACF0 ??_C@_0BG@EHMLAHLE@?5Empty?5MultidimArray?$CB@
   2CACF0 ??_C@_0BP@OFALHJNJ@d?3?2software?2liblion?2src?2fftw?4h@
   2CACF0 ??_C@_0CG@KNIMFECE@d?3?2software?2liblion?2src?2project@
   2CACF0 ??_C@_0CP@IBAHBNPO@CenterFFT?5ERROR?3?5Dimension?5shou@
   2CACF0 ??_C@_0DA@CIDOEAHL@Unrecognized?5interpolator?5in?5Pr@
   2CACF0 ??_C@_0EC@BFICAGFC@BUG?5Projector?3?3griddingCorrect?3@
   2CACF0 ??_C@_0EL@JEINJJHF@Projector?3?3resizeData?$CF?$CFERROR?3?5D@
   2CACF0 ??_C@_0FL@HMDDJLGL@Projector?3?3computeFourierTransf@
   2CACF0 ??_C@_0L@NGMHICGL@?5Size?$CIX?$CJ?3?5@
   2CACF0 ??_C@_0N@FBIHDDOD@?5Size?$CIY?0X?$CJ?3?5@
   2CACF0 ??_C@_0P@CHDGBJDP@?5Size?$CIZ?0Y?0X?$CJ?3?5@
   2CACF0 ??_FComplex@relion@@QEAAXXZ
   2CACF0 ??_H@YAXPEAX_K1P6APEAX0@Z@Z
   2CACF0 ??_R0?AV?$MultidimArray@VComplex@relion@@@relion@@@8
   2CACF0 ??_R1A@?0A@EA@?$MultidimArray@VComplex@relion@@@relion@@8
   2CACF0 ??_R2?$MultidimArray@VComplex@relion@@@relion@@8
   2CACF0 ??_R3?$MultidimArray@VComplex@relion@@@relion@@8
   2CACF0 ??_R4?$MultidimArray@VComplex@relion@@@relion@@6B@
   2CACF0 ?__LINE__Var@?0??computeFourierTransformMap@Projector@relion@@QEAAXAEAV?$MultidimArray@M@3@0HH_N11@Z@4JA
   2CACF0 ?__LINE__Var@?0??getSize@Projector@relion@@QEAAJXZ@4JA
   2CACF0 ?__LINE__Var@?0??griddingCorrect@Projector@relion@@QEAAXAEAV?$MultidimArray@M@3@@Z@4JA
   2CACF0 ?__LINE__Var@?0??initialiseData@Projector@relion@@QEAAXH@Z@4JA
   2CACF0 ?__LINE__Var@?0??project@Projector@relion@@QEAAXAEAV?$MultidimArray@VComplex@relion@@@3@AEAV?$Matrix2D@M@3@_N@Z@4JA
   2CACF0 ?__LINE__Var@?0??rotate2D@Projector@relion@@QEAAXAEAV?$MultidimArray@VComplex@relion@@@3@AEAV?$Matrix2D@M@3@_N@Z@4JA
   2CACF0 ?__LINE__Var@?0??rotate3D@Projector@relion@@QEAAXAEAV?$MultidimArray@VComplex@relion@@@3@AEAV?$Matrix2D@M@3@_N@Z@4JA
   2CACF0 ?alias@?$MultidimArray@VComplex@relion@@@relion@@UEAAXAEBV12@@Z
   2CACF0 ?clear@?$MultidimArray@VComplex@relion@@@relion@@QEAAXXZ
   2CACF0 ?computeFourierTransformMap@Projector@relion@@QEAAXAEAV?$MultidimArray@M@2@0HH_N11@Z
   2CACF0 ?copyShape@?$MultidimArray@VComplex@relion@@@relion@@QEAAXAEBV12@@Z
   2CACF0 ?coreAllocate@?$MultidimArray@VComplex@relion@@@relion@@UEAAXXZ
   2CACF0 ?coreAllocateReuse@?$MultidimArray@VComplex@relion@@@relion@@UEAAXXZ
   2CACF0 ?coreDeallocate@?$MultidimArray@VComplex@relion@@@relion@@UEAAXXZ
   2CACF0 ?coreInit@?$MultidimArray@VComplex@relion@@@relion@@QEAAXXZ
   2CACF0 ?getSize@Projector@relion@@QEAAJXZ
   2CACF0 ?griddingCorrect@Projector@relion@@QEAAXAEAV?$MultidimArray@M@2@@Z
   2CACF0 ?initZeros@?$MultidimArray@M@relion@@QEAAXJ@Z
   2CACF0 ?initZeros@?$MultidimArray@M@relion@@QEAAXJJ@Z
   2CACF0 ?initZeros@?$MultidimArray@M@relion@@QEAAXJJJ@Z
   2CACF0 ?initZeros@?$MultidimArray@M@relion@@QEAAXJJJJ@Z
   2CACF0 ?initZeros@?$MultidimArray@M@relion@@QEAAXXZ
   2CACF0 ?initZeros@?$MultidimArray@VComplex@relion@@@relion@@QEAAXXZ
   2CACF0 ?initZeros@Projector@relion@@QEAAXH@Z
   2CACF0 ?initialiseData@Projector@relion@@QEAAXH@Z
   2CACF0 ?printShape@?$MultidimArray@M@relion@@QEBAXAEAV?$basic_ostream@DU?$char_traits@D@std@@@std@@@Z
   2CACF0 ?project@Projector@relion@@QEAAXAEAV?$MultidimArray@VComplex@relion@@@2@AEAV?$Matrix2D@M@2@_N@Z
   2CACF0 ?resize@?$MultidimArray@VComplex@relion@@@relion@@UEAAXJ@Z
   2CACF0 ?resize@?$MultidimArray@VComplex@relion@@@relion@@UEAAXJJ@Z
   2CACF0 ?resize@?$MultidimArray@VComplex@relion@@@relion@@UEAAXJJJJ_N@Z
   2CACF0 ?resize@?$MultidimArray@VComplex@relion@@@relion@@UEAAXJJJ_N@Z
   2CACF0 ?rotate2D@Projector@relion@@QEAAXAEAV?$MultidimArray@VComplex@relion@@@2@AEAV?$Matrix2D@M@2@_N@Z
   2CACF0 ?rotate3D@Projector@relion@@QEAAXAEAV?$MultidimArray@VComplex@relion@@@2@AEAV?$Matrix2D@M@2@_N@Z
   2CACF0 ?setXmippOrigin@?$MultidimArray@VComplex@relion@@@relion@@QEAAXXZ
   346602 ??$ask_Tvector@M@relion@@YAXAEAPEAMHH@Z
   346602 ??$free_Tvector@M@relion@@YAXAEAPEAMHH@Z
   346602 ??_C@_01IHBHIGKO@?0@
   346602 ??_C@_02GFKOMOKH@?5?$CI@
   346602 ??_C@_03ELIFGAKH@?$CK?$CK?$CK@
   346602 ??_C@_03OFAPEBGM@?$CFs?6@
   346602 ??_C@_04DNDOGAJC@?5?5?5?$CI@
   346602 ??_C@_05HEMHFIDK@?$CJ?9?9?9?$DO@
   346602 ??_C@_0BF@GCHICAH@cf2?5failed?5in?5bessjy@
   346602 ??_C@_0BH@MNANABE@Bad?5x?5in?5routine?5BETAI@
   346602 ??_C@_0BI@EJIMGAON@bad?5arguments?5in?5bessjy@
   346602 ??_C@_0BN@ELEEGBCK@?4?4?4now?5exiting?5to?5system?4?4?4?6@
   346602 ??_C@_0BN@KNFCGCIJ@Too?5many?5iterations?5in?5brent@
   346602 ??_C@_0BO@ICHIJIOA@x?5less?5than?50?5in?5routine?5gser@
   346602 ??_C@_0BP@NJKBEJKL@allocation?5failure?5in?5vector?$CI?$CJ@
   346602 ??_C@_0CA@NHAGANDB@bessy?5series?5failed?5to?5converge@
   346602 ??_C@_0CB@NFIBGKIE@x?5not?5in?5range?5in?5routine?5chebe@
   346602 ??_C@_0CB@OCILAKGF@d?3?2software?2liblion?2src?2memory?4@
   346602 ??_C@_0CD@HICMEJNA@Invalid?5arguments?5in?5routine?5ga@
   346602 ??_C@_0CE@LMGKAMMM@a?5too?5large?0?5ITMAX?5too?5small?5in@
   346602 ??_C@_0CF@LIBKMLPB@Numerical?5Recipes?5run?9time?5erro@
   346602 ??_C@_0CG@BFFCBOIG@Too?5many?5iterations?5in?5routine?5@
   346602 ??_C@_0CN@DHJAFAIO@a?5or?5b?5too?5big?0?5or?5ITMAX?5too?5sm@
   346602 ??_C@_0CN@MFAIKPEE@a?5too?5large?0?5ITMAX?5too?5small?5in@
   346602 ??_C@_0DA@LGEJMDCG@x?5too?5large?5in?5bessjy?$DL?5try?5asym@
   346602 ?Pythag@relion@@YAMMM@Z
   346602 ?_OptionsStorage@?1??__local_stdio_printf_options@@9@4_KA
   346602 ?beschb@relion@@YAXMPEAM000@Z
   346602 ?bessi0@relion@@YAMM@Z
   346602 ?bessi0_5@relion@@YAMM@Z
   346602 ?bessi1@relion@@YAMM@Z
   346602 ?bessi1_5@relion@@YAMM@Z
   346602 ?bessi2@relion@@YAMM@Z
   346602 ?bessi2_5@relion@@YAMM@Z
   346602 ?bessi3@relion@@YAMM@Z
   346602 ?bessi3_5@relion@@YAMM@Z
   346602 ?bessi4@relion@@YAMM@Z
   346602 ?bessj0@relion@@YAMM@Z
   346602 ?bessj1_5@relion@@YAMM@Z
   346602 ?bessj3_5@relion@@YAMM@Z
   346602 ?bessjy@relion@@YAXMMPEAM000@Z
   346602 ?betacf@relion@@YAMMMM@Z
   346602 ?betai@relion@@YAMMMM@Z
   346602 ?brent@relion@@YAMMMMP6AMPEAMPEAX@Z1M0H00@Z
   346602 ?chebev@relion@@YAMMMQEAMHM@Z
   346602 ?cosh@@YAMM@Z
   346602 ?exp@@YAMM@Z
   346602 ?fabs@@YAMM@Z
   346602 ?gammln@relion@@YAMM@Z
   346602 ?gammp@relion@@YAMMM@Z
   346602 ?gcf@relion@@YAXPEAMMM0@Z
   346602 ?gser@relion@@YAXPEAMMM0@Z
   346602 ?linmin@relion@@YAXPEAM0HAEAMP6AM0PEAX@Z2@Z
   346602 ?log@@YAMM@Z
   346602 ?mnbrak@relion@@YAXPEAM00000P6AM0PEAX@Z1H00@Z
   346602 ?nrerror@relion@@YAXQEBD@Z
   346602 ?powell@relion@@YAXPEAM0HMAEAHAEAMP6AM0PEAX@Z3_N@Z
   346602 ?sinh@@YAMM@Z
   346602 ?svbksb@relion@@YAXPEAM00HH00@Z
   346602 ?svdcmp@relion@@YAXPEAMHH00@Z
   346602 __local_stdio_printf_options
   346602 __real@0da24260
   346602 __real@24e69595
   346602 __real@3951b717
   346602 __real@39b4484bfeebc2a0
   346602 __real@3bc79ca10c924223
   346602 __real@3c9cd2b297d889bc
   346602 __real@3ddb7cdfd9d7bdbb
   346602 __real@3e7918d350375dfb
   346602 __real@3e8c1a8aab292861
   346602 __real@3e9421f5f40d8376
   346602 __real@3ea992788c9726a9
   346602 __real@3efcac653e340f37
   346602 __real@3f22bfec7e1aa561
   346602 __real@3f353da9d9adb0d3
   346602 __real@3f5ad64fd85a7496
   346602 __real@3f6275482b92d5db
   346602 __real@3f68b395992ee59c
   346602 __real@3f70125efd3b7f88
   346602 __real@3f7134a34ac8503b
   346602 __real@3f72c3d75ac54874
   346602 __real@3f82c3f38a50d154
   346602 __real@3f8b35a5ff2d9d1c
   346602 __real@3f924e3a4aa99c71
   346602 __real@3f9760a9381d27d9
   346602 __real@3f9afce6f0e55ae3
   346602 __real@3f9b39b5835a121a
   346602 __real@3fa278a88849e5fd
   346602 __real@3fc00000
   346602 __real@3fc34f07faf62aea
   346602 __real@3fd0000000000000
   346602 __real@3fd105b474e732aa
   346602 __real@3fd87221858bc59c
   346602 __real@3fd988453365de00
   346602 __real@3fe07ac98fab8428
   346602 __real@3fe45f306d974364
   346602 __real@3fe45f306dc9c883
   346602 __real@3fe921fb5496fd7f
   346602 __real@3fec1fff5991eca7
   346602 __real@3ff34ed83fc7962c
   346602 __real@3ff8000000000000
   346602 __real@3ff9e3779e9d0e99
   346602 __real@40000000
   346602 __real@40040d931ff6ce25
   346602 __real@4008000000000000
   346602 __real@4008b833b89430a4
   346602 __real@400c1ffee6248ca7
   346602 __real@400e000000000000
   346602 __real@4014000000000000
   346602 __real@4016000000000000
   346602 __real@4020000000000000
   346602 __real@4059000000000000
   346602 __real@40600000
   346602 __real@4070bda6ffb3a9e6
   346602 __real@40800000
   346602 __real@40c00000
   346602 __real@40ecf114c0c1fc8f
   346602 __real@40f2e50548605682
   346602 __real@41621c1316f9db23
   346602 __real@41c36b769c59999a
   346602 __real@41ceaeb69c800000
   346602 __real@422aceb2e7560000
   346602 __real@422aceb2e89c0000
   346602 __real@7149f2ca
   346602 __real@bec1648790299c51
   346602 __real@bedcfcc9cd06fbfc
   346602 __real@bf51fffb817f9f0a
   346602 __real@bf59d0c14e13894a
   346602 __real@bf6da81156948c3f
   346602 __real@bf852051af1f3cdc
   346602 __real@bf8ffffffe483202
   346602 __real@bf90df2bca084c55
   346602 __real@bf9512271efdc716
   346602 __real@bf9da5e2fe119350
   346602 __real@bfa46b2ecd1cfebe
   346602 __real@bfe0000000000000
   346602 __real@c0671cf7c59edb22
   346602 __real@c16563cb05c28f5c
   346602 __real@c208e3c794900000
   346602 _vfprintf_l
   346602 fabsf
   346602 fprintf
   392DB2 ??6relion@@YAAEAV?$basic_ostream@DU?$char_traits@D@std@@@std@@AEAV12@AEBV?$MultidimArray@VComplex@relion@@@0@@Z
   392DB2 ??_C@_01ODHLEDKK@?$CI@
   392DB2 ??_C@_0BE@GDKJGDOH@NULL?5MultidimArray?6@
   392DB2 ??_C@_0L@HBKBPCLN@Image?5No?4?5@
   392DB2 ??_C@_0L@ONKIKJCO@Slice?5No?4?5@
   3A93A4 ??$?0$$TH$0A@@?$pair@PEAPEAVMetaDataContainer@relion@@_J@std@@QEAA@$$QEA$$T$$QEAH@Z
   3A93A4 ??$?0$$V@?$_Compressed_pair@V?$allocator@I@std@@V?$_Vector_val@U?$_Simple_types@I@std@@@2@$00@std@@QEAA@U_Zero_then_variadic_args_t@1@@Z
   3A93A4 ??$?0$$V@?$_Compressed_pair@V?$allocator@J@std@@V?$_Vector_val@U?$_Simple_types@J@std@@@2@$00@std@@QEAA@U_Zero_then_variadic_args_t@1@@Z
   3A93A4 ??$?0$$V@?$_Compressed_pair@V?$allocator@PEAVMetaDataContainer@relion@@@std@@V?$_Vector_val@U?$_Simple_types@PEAVMetaDataContainer@relion@@@std@@@2@$00@std@@QEAA@U_Zero_then_variadic_args_t@1@@Z
   3A93A4 ??$?0$$V@?$_Compressed_pair@V?$allocator@U?$_Tree_node@U?$pair@$$CBW4EMDLabel@relion@@PEAX@std@@PEAX@std@@@std@@V?$_Tree_val@U?$_Tree_simple_types@U?$pair@$$CBW4EMDLabel@relion@@PEAX@std@@@std@@@2@$00@std@@QEAA@U_Zero_then_variadic_args_t@1@@Z
   3A93A4 ??$?0$$V@?$_Compressed_pair@V?$allocator@W4EMDLabel@relion@@@std@@V?$_Vector_val@U?$_Simple_types@W4EMDLabel@relion@@@std@@@2@$00@std@@QEAA@U_Zero_then_variadic_args_t@1@@Z
   3A93A4 ??$?0AEAPEAV_Facet_base@std@@@?$_Compressed_pair@U?$default_delete@V_Facet_base@std@@@std@@PEAV_Facet_base@2@$00@std@@QEAA@U_Zero_then_variadic_args_t@1@AEAPEAV_Facet_base@1@@Z
   3A93A4 ??$?0AEBU?$less@W4EMDLabel@relion@@@std@@U_Zero_then_variadic_args_t@1@@?$_Compressed_pair@U?$less@W4EMDLabel@relion@@@std@@V?$_Compressed_pair@V?$allocator@U?$_Tree_node@U?$pair@$$CBW4EMDLabel@relion@@PEAX@std@@PEAX@std@@@std@@V?$_Tree_val@U?$_Tree_simple_types@U?$pair@$$CBW4EMDLabel@relion@@PEAX@std@@@std@@@2@$00@2@$00@std@@QEAA@U_One_then_variadic_args_t@1@AEBU?$less@W4EMDLabel@relion@@@1@$$QEAU_Zero_then_variadic_args_t@1@@Z
   3A93A4 ??$?0I@?$allocator@U_Container_proxy@std@@@std@@QEAA@AEBV?$allocator@I@1@@Z
   3A93A4 ??$?0J@?$allocator@U_Container_proxy@std@@@std@@QEAA@AEBV?$allocator@J@1@@Z
   3A93A4 ??$?0PEAPEAVMetaDataContainer@relion@@AEA_J$0A@@?$pair@PEAPEAVMetaDataContainer@relion@@_J@std@@QEAA@$$QEAPEAPEAVMetaDataContainer@relion@@AEA_J@Z
   3A93A4 ??$?0PEAVMetaDataContainer@relion@@@?$allocator@U_Container_proxy@std@@@std@@QEAA@AEBV?$allocator@PEAVMetaDataContainer@relion@@@1@@Z
   3A93A4 ??$?0PEAV_Facet_base@std@@@?$_Unique_ptr_base@V_Facet_base@std@@U?$default_delete@V_Facet_base@std@@@2@@std@@QEAA@PEAV_Facet_base@1@@Z
   3A93A4 ??$?0U?$_Tree_node@U?$pair@$$CBW4EMDLabel@relion@@PEAX@std@@PEAX@std@@@?$allocator@U_Container_proxy@std@@@std@@QEAA@AEBV?$allocator@U?$_Tree_node@U?$pair@$$CBW4EMDLabel@relion@@PEAX@std@@PEAX@std@@@1@@Z
   3A93A4 ??$?0U?$default_delete@V_Facet_base@std@@@std@@$0A@@?$unique_ptr@V_Facet_base@std@@U?$default_delete@V_Facet_base@std@@@2@@std@@QEAA@PEAV_Facet_base@1@@Z
   3A93A4 ??$?0W4EMDLabel@relion@@@?$allocator@U_Container_proxy@std@@@std@@QEAA@AEBV?$allocator@W4EMDLabel@relion@@@1@@Z
   3A93A4 ??$?0_J@?$_Optimistic_temporary_buffer@PEAVMetaDataContainer@relion@@@std@@QEAA@_J@Z
   3A93A4 ??$?5DU?$char_traits@D@std@@V?$allocator@D@1@@std@@YAAEAV?$basic_istream@DU?$char_traits@D@std@@@0@$$QEAV10@AEAV?$basic_string@DU?$char_traits@D@std@@V?$allocator@D@2@@0@@Z
   3A93A4 ??$?5DU?$char_traits@D@std@@V?$allocator@D@1@@std@@YAAEAV?$basic_istream@DU?$char_traits@D@std@@@0@AEAV10@AEAV?$basic_string@DU?$char_traits@D@std@@V?$allocator@D@2@@0@@Z
   3A93A4 ??$?8DU?$char_traits@D@std@@V?$allocator@D@1@@std@@YA_NAEBV?$basic_string@DU?$char_traits@D@std@@V?$allocator@D@2@@0@0@Z
   3A93A4 ??$?9DU?$char_traits@D@std@@V?$allocator@D@1@@std@@YA_NAEBV?$basic_string@DU?$char_traits@D@std@@V?$allocator@D@2@@0@0@Z
   3A93A4 ??$?9W4EMDLabel@relion@@W401@@std@@YA_NAEBV?$allocator@W4EMDLabel@relion@@@0@0@Z
   3A93A4 ??$?MDU?$char_traits@D@std@@V?$allocator@D@1@@std@@YA_NAEBV?$basic_string@DU?$char_traits@D@std@@V?$allocator@D@2@@0@0@Z
   3A93A4 ??$_Adl_verify_range1@PEAPEAVMetaDataContainer@relion@@PEAPEAV12@@std@@YAXAEBQEAPEAVMetaDataContainer@relion@@0U?$integral_constant@_N$00@0@@Z
   3A93A4 ??$_Adl_verify_range1@PEAW4EMDLabel@relion@@PEAW412@@std@@YAXAEBQEAW4EMDLabel@relion@@0U?$integral_constant@_N$00@0@@Z
   3A93A4 ??$_Adl_verify_range1@V?$_Vector_iterator@V?$_Vector_val@U?$_Simple_types@I@std@@@std@@@std@@V12@@std@@YAXAEBV?$_Vector_iterator@V?$_Vector_val@U?$_Simple_types@I@std@@@std@@@0@0U?$integral_constant@_N$00@0@@Z
   3A93A4 ??$_Adl_verify_range1@V?$_Vector_iterator@V?$_Vector_val@U?$_Simple_types@PEAVMetaDataContainer@relion@@@std@@@std@@@std@@V12@@std@@YAXAEBV?$_Vector_iterator@V?$_Vector_val@U?$_Simple_types@PEAVMetaDataContainer@relion@@@std@@@std@@@0@0U?$integral_constant@_N$00@0@@Z
   3A93A4 ??$_Adl_verify_range1@V?$_Vector_iterator@V?$_Vector_val@U?$_Simple_types@W4EMDLabel@relion@@@std@@@std@@@std@@V12@@std@@YAXAEBV?$_Vector_iterator@V?$_Vector_val@U?$_Simple_types@W4EMDLabel@relion@@@std@@@std@@@0@0U?$integral_constant@_N$00@0@@Z
   3A93A4 ??$_Adl_verify_range@PEAPEAVMetaDataContainer@relion@@PEAPEAV12@@std@@YAXAEBQEAPEAVMetaDataContainer@relion@@0@Z
   3A93A4 ??$_Adl_verify_range@PEAW4EMDLabel@relion@@PEAW412@@std@@YAXAEBQEAW4EMDLabel@relion@@0@Z
   3A93A4 ??$_Adl_verify_range@V?$_Vector_iterator@V?$_Vector_val@U?$_Simple_types@I@std@@@std@@@std@@V12@@std@@YAXAEBV?$_Vector_iterator@V?$_Vector_val@U?$_Simple_types@I@std@@@std@@@0@0@Z
   3A93A4 ??$_Adl_verify_range@V?$_Vector_iterator@V?$_Vector_val@U?$_Simple_types@PEAVMetaDataContainer@relion@@@std@@@std@@@std@@V12@@std@@YAXAEBV?$_Vector_iterator@V?$_Vector_val@U?$_Simple_types@PEAVMetaDataContainer@relion@@@std@@@std@@@0@0@Z
   3A93A4 ??$_Adl_verify_range@V?$_Vector_iterator@V?$_Vector_val@U?$_Simple_types@W4EMDLabel@relion@@@std@@@std@@@std@@V12@@std@@YAXAEBV?$_Vector_iterator@V?$_Vector_val@U?$_Simple_types@W4EMDLabel@relion@@@std@@@std@@@0@0@Z
   3A93A4 ??$_Advance1@PEAPEAVMetaDataContainer@relion@@_J@std@@YAXAEAPEAPEAVMetaDataContainer@relion@@_JUrandom_access_iterator_tag@0@@Z
   3A93A4 ??$_Advance1@PEAW4EMDLabel@relion@@_J@std@@YAXAEAPEAW4EMDLabel@relion@@_JUrandom_access_iterator_tag@0@@Z
   3A93A4 ??$_Assign_range@PEAW4EMDLabel@relion@@@?$vector@W4EMDLabel@relion@@V?$allocator@W4EMDLabel@relion@@@std@@@std@@AEAAXPEAW4EMDLabel@relion@@0Uforward_iterator_tag@1@@Z
   3A93A4 ??$_Buffered_inplace_merge_divide_and_conquer2@PEAPEAVMetaDataContainer@relion@@P6A_NPEAV12@0@Z@std@@YAXPEAPEAVMetaDataContainer@relion@@00_J1QEAPEAV12@_JP6A_NPEAV12@4@Z0011@Z
   3A93A4 ??$_Buffered_inplace_merge_divide_and_conquer@PEAPEAVMetaDataContainer@relion@@P6A_NPEAV12@0@Z@std@@YAXPEAPEAVMetaDataContainer@relion@@00_J1QEAPEAV12@_JP6A_NPEAV12@4@Z@Z
   3A93A4 ??$_Buffered_inplace_merge_unchecked@PEAPEAVMetaDataContainer@relion@@P6A_NPEAV12@0@Z@std@@YAXPEAPEAVMetaDataContainer@relion@@00_J1QEAPEAV12@_JP6A_NPEAV12@4@Z@Z
   3A93A4 ??$_Buffered_inplace_merge_unchecked_impl@PEAPEAVMetaDataContainer@relion@@P6A_NPEAV12@0@Z@std@@YAXPEAPEAVMetaDataContainer@relion@@00_J1QEAPEAV12@_JP6A_NPEAV12@4@Z@Z
   3A93A4 ??$_Buffered_merge_sort_unchecked@PEAPEAVMetaDataContainer@relion@@P6A_NPEAV12@0@Z@std@@YAXQEAPEAVMetaDataContainer@relion@@0_J0P6A_NPEAV12@2@Z@Z
   3A93A4 ??$_Buffered_rotate_unchecked@PEAPEAVMetaDataContainer@relion@@@std@@YAPEAPEAVMetaDataContainer@relion@@QEAPEAV12@00_J101@Z
   3A93A4 ??$_Chunked_merge_unchecked@PEAPEAVMetaDataContainer@relion@@PEAPEAV12@P6A_NPEAV12@0@Z@std@@YAXPEAPEAVMetaDataContainer@relion@@QEAPEAV12@0_J_JP6A_NPEAV12@4@Z@Z
   3A93A4 ??$_Const_cast@$$CBI@std@@YA@PEBI@Z
   3A93A4 ??$_Const_cast@$$CBW4EMDLabel@relion@@@std@@YA@PEBW4EMDLabel@relion@@@Z
   3A93A4 ??$_Construct_in_place@PEAVMetaDataContainer@relion@@PEAV12@@std@@YAXAEAPEAVMetaDataContainer@relion@@$$QEAPEAV12@@Z
   3A93A4 ??$_Copy_backward_memmove@PEAPEAVMetaDataContainer@relion@@PEAPEAV12@@std@@YAPEAPEAVMetaDataContainer@relion@@PEAPEAV12@00@Z
   3A93A4 ??$_Copy_memmove@PEAIPEAI@std@@YAPEAIPEAI00@Z
   3A93A4 ??$_Copy_memmove@PEAJPEAJ@std@@YAPEAJPEAJ00@Z
   3A93A4 ??$_Copy_memmove@PEAPEAVMetaDataContainer@relion@@PEAPEAV12@@std@@YAPEAPEAVMetaDataContainer@relion@@PEAPEAV12@00@Z
   3A93A4 ??$_Copy_memmove@PEAW4EMDLabel@relion@@PEAW412@@std@@YAPEAW4EMDLabel@relion@@PEAW412@00@Z
   3A93A4 ??$_Copy_unchecked1@PEAW4EMDLabel@relion@@PEAW412@@std@@YAPEAW4EMDLabel@relion@@PEAW412@00U_Trivially_copyable_ptr_iterator_tag@0@@Z
   3A93A4 ??$_Copy_unchecked@PEAW4EMDLabel@relion@@PEAW412@@std@@YAPEAW4EMDLabel@relion@@PEAW412@00@Z
   3A93A4 ??$_Debug_lt_pred@AEAP6A_NPEAVMetaDataContainer@relion@@0@ZAEAPEAV12@AEAPEAV12@@std@@YA_NAEAP6A_NPEAVMetaDataContainer@relion@@0@ZAEAPEAV12@2@Z
   3A93A4 ??$_Destroy_range1@PEAPEAVMetaDataContainer@relion@@@std@@YAXPEAPEAVMetaDataContainer@relion@@0U?$integral_constant@_N$00@0@@Z
   3A93A4 ??$_Destroy_range1@V?$allocator@I@std@@@std@@YAXPEAI0AEAV?$allocator@I@0@U?$integral_constant@_N$00@0@@Z
   3A93A4 ??$_Destroy_range1@V?$allocator@J@std@@@std@@YAXPEAJ0AEAV?$allocator@J@0@U?$integral_constant@_N$00@0@@Z
   3A93A4 ??$_Destroy_range1@V?$allocator@PEAVMetaDataContainer@relion@@@std@@@std@@YAXPEAPEAVMetaDataContainer@relion@@0AEAV?$allocator@PEAVMetaDataContainer@relion@@@0@U?$integral_constant@_N$00@0@@Z
   3A93A4 ??$_Destroy_range1@V?$allocator@W4EMDLabel@relion@@@std@@@std@@YAXPEAW4EMDLabel@relion@@0AEAV?$allocator@W4EMDLabel@relion@@@0@U?$integral_constant@_N$00@0@@Z
   3A93A4 ??$_Destroy_range@PEAPEAVMetaDataContainer@relion@@@std@@YAXPEAPEAVMetaDataContainer@relion@@0@Z
   3A93A4 ??$_Destroy_range@V?$allocator@I@std@@@std@@YAXPEAI0AEAV?$allocator@I@0@@Z
   3A93A4 ??$_Destroy_range@V?$allocator@J@std@@@std@@YAXPEAJ0AEAV?$allocator@J@0@@Z
   3A93A4 ??$_Destroy_range@V?$allocator@PEAVMetaDataContainer@relion@@@std@@@std@@YAXPEAPEAVMetaDataContainer@relion@@0AEAV?$allocator@PEAVMetaDataContainer@relion@@@0@@Z
   3A93A4 ??$_Destroy_range@V?$allocator@W4EMDLabel@relion@@@std@@@std@@YAXPEAW4EMDLabel@relion@@0AEAV?$allocator@W4EMDLabel@relion@@@0@@Z
   3A93A4 ??$_Distance1@PEAPEAVMetaDataContainer@relion@@@std@@YA_JPEAPEAVMetaDataContainer@relion@@0Urandom_access_iterator_tag@0@@Z
   3A93A4 ??$_Distance1@PEAW4EMDLabel@relion@@@std@@YA_JPEAW4EMDLabel@relion@@0Urandom_access_iterator_tag@0@@Z
   3A93A4 ??$_Emplace_back@PEAVMetaDataContainer@relion@@@?$_Uninitialized_backout@PEAPEAVMetaDataContainer@relion@@@std@@QEAAX$$QEAPEAVMetaDataContainer@relion@@@Z
   3A93A4 ??$_Emplace_back_with_unused_capacity@AEBI@?$vector@IV?$allocator@I@std@@@std@@AEAA@AEBI@Z
   3A93A4 ??$_Emplace_back_with_unused_capacity@AEBJ@?$vector@JV?$allocator@J@std@@@std@@AEAA@AEBJ@Z
   3A93A4 ??$_Emplace_back_with_unused_capacity@AEBW4EMDLabel@relion@@@?$vector@W4EMDLabel@relion@@V?$allocator@W4EMDLabel@relion@@@std@@@std@@AEAA@AEBW4EMDLabel@relion@@@Z
   3A93A4 ??$_Emplace_reallocate@AEBI@?$vector@IV?$allocator@I@std@@@std@@QEAAPEAIQEAIAEBI@Z
   3A93A4 ??$_Emplace_reallocate@AEBJ@?$vector@JV?$allocator@J@std@@@std@@QEAAPEAJQEAJAEBJ@Z
   3A93A4 ??$_Emplace_reallocate@AEBW4EMDLabel@relion@@@?$vector@W4EMDLabel@relion@@V?$allocator@W4EMDLabel@relion@@@std@@@std@@QEAAPEAW4EMDLabel@relion@@QEAW423@AEBW423@@Z
   3A93A4 ??$_Fgetc@D@std@@YA_NAEADPEAU_iobuf@@@Z
   3A93A4 ??$_Find_unchecked1@PEAIH@std@@YAPEAIPEAIQEAIAEBHU?$integral_constant@_N$0A@@0@@Z
   3A93A4 ??$_Find_unchecked1@PEAW4EMDLabel@relion@@W412@@std@@YAPEAW4EMDLabel@relion@@PEAW412@QEAW412@AEBW412@U?$integral_constant@_N$0A@@0@@Z
   3A93A4 ??$_Find_unchecked@PEAIH@std@@YAPEAIQEAI0AEBH@Z
   3A93A4 ??$_Find_unchecked@PEAW4EMDLabel@relion@@W412@@std@@YAPEAW4EMDLabel@relion@@QEAW412@0AEBW412@@Z
   3A93A4 ??$_Fputc@D@std@@YA_NDPEAU_iobuf@@@Z
   3A93A4 ??$_Freenode0@V?$allocator@U?$_Tree_node@U?$pair@$$CBW4EMDLabel@relion@@PEAX@std@@PEAX@std@@@std@@@?$_Tree_node@U?$pair@$$CBW4EMDLabel@relion@@PEAX@std@@PEAX@std@@SAXAEAV?$allocator@U?$_Tree_node@U?$pair@$$CBW4EMDLabel@relion@@PEAX@std@@PEAX@std@@@1@PEAU01@@Z
   3A93A4 ??$_Get_size_of_n@$07@std@@YA_K_K@Z
   3A93A4 ??$_Get_size_of_n@$0DA@@std@@YA_K_K@Z
   3A93A4 ??$_Get_temporary_buffer@PEAVMetaDataContainer@relion@@@std@@YA?AU?$pair@PEAPEAVMetaDataContainer@relion@@_J@0@_J@Z
   3A93A4 ??$_Get_unwrapped@I@std@@YAPEAIQEAI@Z
   3A93A4 ??$_Get_unwrapped@J@std@@YAPEAJQEAJ@Z
   3A93A4 ??$_Get_unwrapped@PEAVMetaDataContainer@relion@@@std@@YAPEAPEAVMetaDataContainer@relion@@QEAPEAV12@@Z
   3A93A4 ??$_Get_unwrapped@V?$_Vector_iterator@V?$_Vector_val@U?$_Simple_types@I@std@@@std@@@std@@$0A@@std@@YA@AEBV?$_Vector_iterator@V?$_Vector_val@U?$_Simple_types@I@std@@@std@@@0@@Z
   3A93A4 ??$_Get_unwrapped@V?$_Vector_iterator@V?$_Vector_val@U?$_Simple_types@PEAVMetaDataContainer@relion@@@std@@@std@@@std@@$0A@@std@@YA@AEBV?$_Vector_iterator@V?$_Vector_val@U?$_Simple_types@PEAVMetaDataContainer@relion@@@std@@@std@@@0@@Z
   3A93A4 ??$_Get_unwrapped@V?$_Vector_iterator@V?$_Vector_val@U?$_Simple_types@W4EMDLabel@relion@@@std@@@std@@@std@@$0A@@std@@YA@AEBV?$_Vector_iterator@V?$_Vector_val@U?$_Simple_types@W4EMDLabel@relion@@@std@@@std@@@0@@Z
   3A93A4 ??$_Get_unwrapped@W4EMDLabel@relion@@@std@@YAPEAW4EMDLabel@relion@@QEAW412@@Z
   3A93A4 ??$_Get_unwrapped_n@I_J$0A@@std@@YAPEAIQEAI_J@Z
   3A93A4 ??$_Get_unwrapped_n@J_J$0A@@std@@YAPEAJQEAJ_J@Z
   3A93A4 ??$_Get_unwrapped_n@PEAVMetaDataContainer@relion@@_J$0A@@std@@YAPEAPEAVMetaDataContainer@relion@@QEAPEAV12@_J@Z
   3A93A4 ??$_Get_unwrapped_n@W4EMDLabel@relion@@_J$0A@@std@@YAPEAW4EMDLabel@relion@@QEAW412@_J@Z
   3A93A4 ??$_Idl_distance1@PEAIPEAI@std@@YA_JAEBQEAI0Urandom_access_iterator_tag@0@@Z
   3A93A4 ??$_Idl_distance1@PEAJPEAJ@std@@YA_JAEBQEAJ0Urandom_access_iterator_tag@0@@Z
   3A93A4 ??$_Idl_distance1@PEAPEAVMetaDataContainer@relion@@PEAPEAV12@@std@@YA_JAEBQEAPEAVMetaDataContainer@relion@@0Urandom_access_iterator_tag@0@@Z
   3A93A4 ??$_Idl_distance1@PEAW4EMDLabel@relion@@PEAW412@@std@@YA_JAEBQEAW4EMDLabel@relion@@0Urandom_access_iterator_tag@0@@Z
   3A93A4 ??$_Idl_distance@PEAIPEAI@std@@YA@AEBQEAI0@Z
   3A93A4 ??$_Idl_distance@PEAJPEAJ@std@@YA@AEBQEAJ0@Z
   3A93A4 ??$_Idl_distance@PEAPEAVMetaDataContainer@relion@@PEAPEAV12@@std@@YA@AEBQEAPEAVMetaDataContainer@relion@@0@Z
   3A93A4 ??$_Idl_distance@PEAW4EMDLabel@relion@@PEAW412@@std@@YA@AEBQEAW4EMDLabel@relion@@0@Z
   3A93A4 ??$_Inplace_merge_buffer_left@PEAPEAVMetaDataContainer@relion@@P6A_NPEAV12@0@Z@std@@YAXPEAPEAVMetaDataContainer@relion@@00QEAPEAV12@P6A_NPEAV12@2@Z@Z
   3A93A4 ??$_Inplace_merge_buffer_right@PEAPEAVMetaDataContainer@relion@@P6A_NPEAV12@0@Z@std@@YAXPEAPEAVMetaDataContainer@relion@@00QEAPEAV12@P6A_NPEAV12@2@Z@Z
   3A93A4 ??$_Insertion_sort_isort_max_chunks@PEAPEAVMetaDataContainer@relion@@P6A_NPEAV12@0@Z@std@@YAXPEAPEAVMetaDataContainer@relion@@QEAPEAV12@_JP6A_NPEAV12@3@Z@Z
   3A93A4 ??$_Insertion_sort_unchecked@PEAPEAVMetaDataContainer@relion@@P6A_NPEAV12@0@Z@std@@YAPEAPEAVMetaDataContainer@relion@@PEAPEAV12@QEAPEAV12@P6A_NPEAV12@2@Z@Z
   3A93A4 ??$_Insertion_sort_unchecked@V?$_Vector_iterator@V?$_Vector_val@U?$_Simple_types@PEAVMetaDataContainer@relion@@@std@@@std@@@std@@P6A_NPEAVMetaDataContainer@relion@@0@Z@std@@YA?AV?$_Vector_iterator@V?$_Vector_val@U?$_Simple_types@PEAVMetaDataContainer@relion@@@std@@@std@@@0@V10@V10@P6A_NPEAVMetaDataContainer@relion@@2@Z@Z
   3A93A4 ??$_Merge_move@PEAPEAVMetaDataContainer@relion@@PEAPEAV12@P6A_NPEAV12@0@Z@std@@YAPEAPEAVMetaDataContainer@relion@@PEAPEAV12@QEAPEAV12@10P6A_NPEAV12@2@Z@Z
   3A93A4 ??$_Min_value@_J@std@@YAAEB_JAEB_J0@Z
   3A93A4 ??$_Move_backward_unchecked1@PEAPEAVMetaDataContainer@relion@@PEAPEAV12@@std@@YAPEAPEAVMetaDataContainer@relion@@PEAPEAV12@00U_Trivially_copyable_ptr_iterator_tag@0@@Z
   3A93A4 ??$_Move_backward_unchecked1@V?$_Vector_iterator@V?$_Vector_val@U?$_Simple_types@PEAVMetaDataContainer@relion@@@std@@@std@@@std@@V12@@std@@YA?AV?$_Vector_iterator@V?$_Vector_val@U?$_Simple_types@PEAVMetaDataContainer@relion@@@std@@@std@@@0@V10@00U_General_ptr_iterator_tag@0@@Z
   3A93A4 ??$_Move_backward_unchecked@PEAPEAVMetaDataContainer@relion@@PEAPEAV12@@std@@YAPEAPEAVMetaDataContainer@relion@@PEAPEAV12@00@Z
   3A93A4 ??$_Move_backward_unchecked@V?$_Vector_iterator@V?$_Vector_val@U?$_Simple_types@PEAVMetaDataContainer@relion@@@std@@@std@@@std@@V12@@std@@YA?AV?$_Vector_iterator@V?$_Vector_val@U?$_Simple_types@PEAVMetaDataContainer@relion@@@std@@@std@@@0@V10@00@Z
   3A93A4 ??$_Move_unchecked1@PEAPEAVMetaDataContainer@relion@@PEAPEAV12@@std@@YAPEAPEAVMetaDataContainer@relion@@PEAPEAV12@00U_Trivially_copyable_ptr_iterator_tag@0@@Z
   3A93A4 ??$_Move_unchecked1@PEAW4EMDLabel@relion@@PEAW412@@std@@YAPEAW4EMDLabel@relion@@PEAW412@00U_Trivially_copyable_ptr_iterator_tag@0@@Z
   3A93A4 ??$_Move_unchecked@PEAPEAVMetaDataContainer@relion@@PEAPEAV12@@std@@YAPEAPEAVMetaDataContainer@relion@@PEAPEAV12@00@Z
   3A93A4 ??$_Move_unchecked@PEAW4EMDLabel@relion@@PEAW412@@std@@YAPEAW4EMDLabel@relion@@PEAW412@00@Z
   3A93A4 ??$_Next_iter@PEAPEAVMetaDataContainer@relion@@@std@@YAPEAPEAVMetaDataContainer@relion@@PEAPEAV12@@Z
   3A93A4 ??$_Pass_fn@P6A_NPEAVMetaDataContainer@relion@@0@Z$0A@@std@@YAP6A_NPEAVMetaDataContainer@relion@@0@ZP6A_N00@Z@Z
   3A93A4 ??$_Pocca@V?$allocator@W4EMDLabel@relion@@@std@@@std@@YAXAEAV?$allocator@W4EMDLabel@relion@@@0@AEBV10@@Z
   3A93A4 ??$_Pocca@V?$allocator@W4EMDLabel@relion@@@std@@@std@@YAXAEAV?$allocator@W4EMDLabel@relion@@@0@AEBV10@U?$integral_constant@_N$0A@@0@@Z
   3A93A4 ??$_Pocma@V?$allocator@W4EMDLabel@relion@@@std@@@std@@YAXAEAV?$allocator@W4EMDLabel@relion@@@0@0@Z
   3A93A4 ??$_Pocma@V?$allocator@W4EMDLabel@relion@@@std@@@std@@YAXAEAV?$allocator@W4EMDLabel@relion@@@0@0U?$integral_constant@_N$00@0@@Z
   3A93A4 ??$_Prev_iter@PEAPEAVMetaDataContainer@relion@@@std@@YAPEAPEAVMetaDataContainer@relion@@PEAPEAV12@@Z
   3A93A4 ??$_Ptr_copy_cat@W4EMDLabel@relion@@W412@@std@@YA?AU_Really_trivial_ptr_iterator_tag@0@AEBQEAW4EMDLabel@relion@@0@Z
   3A93A4 ??$_Ptr_move_cat@II@std@@YA?AU_Really_trivial_ptr_iterator_tag@0@AEBQEAI0@Z
   3A93A4 ??$_Ptr_move_cat@JJ@std@@YA?AU_Really_trivial_ptr_iterator_tag@0@AEBQEAJ0@Z
   3A93A4 ??$_Ptr_move_cat@PEAVMetaDataContainer@relion@@PEAV12@@std@@YA?AU_Really_trivial_ptr_iterator_tag@0@AEBQEAPEAVMetaDataContainer@relion@@0@Z
   3A93A4 ??$_Ptr_move_cat@V?$_Vector_iterator@V?$_Vector_val@U?$_Simple_types@PEAVMetaDataContainer@relion@@@std@@@std@@@std@@V12@@std@@YA?AU_General_ptr_iterator_tag@0@AEBV?$_Vector_iterator@V?$_Vector_val@U?$_Simple_types@PEAVMetaDataContainer@relion@@@std@@@std@@@0@0@Z
   3A93A4 ??$_Ptr_move_cat@W4EMDLabel@relion@@W412@@std@@YA?AU_Really_trivial_ptr_iterator_tag@0@AEBQEAW4EMDLabel@relion@@0@Z
   3A93A4 ??$_Refancy@PEAD$0A@@std@@YAPEADPEAD@Z
   3A93A4 ??$_Resize@V<lambda_222d45f3feb8b8962599ebe912e91acb>@@@?$vector@PEAVMetaDataContainer@relion@@V?$allocator@PEAVMetaDataContainer@relion@@@std@@@std@@AEAAX_KV<lambda_222d45f3feb8b8962599ebe912e91acb>@@@Z
   3A93A4 ??$_Return_temporary_buffer@PEAVMetaDataContainer@relion@@@std@@YAXQEAPEAVMetaDataContainer@relion@@@Z
   3A93A4 ??$_Reverse_unchecked1@PEAPEAVMetaDataContainer@relion@@@std@@YAXQEAPEAVMetaDataContainer@relion@@0U?$integral_constant@_K$07@0@@Z
   3A93A4 ??$_Reverse_unchecked@PEAPEAVMetaDataContainer@relion@@@std@@YAXQEAPEAVMetaDataContainer@relion@@0@Z
   3A93A4 ??$_Rotate_one_left@PEAPEAVMetaDataContainer@relion@@@std@@YAXPEAPEAVMetaDataContainer@relion@@00@Z
   3A93A4 ??$_Rotate_one_right@PEAPEAVMetaDataContainer@relion@@@std@@YAXPEAPEAVMetaDataContainer@relion@@00@Z
   3A93A4 ??$_Rotate_unchecked1@PEAPEAVMetaDataContainer@relion@@@std@@YAPEAPEAVMetaDataContainer@relion@@PEAPEAV12@00Urandom_access_iterator_tag@0@@Z
   3A93A4 ??$_Rotate_unchecked@PEAPEAVMetaDataContainer@relion@@@std@@YAPEAPEAVMetaDataContainer@relion@@PEAPEAV12@00@Z
   3A93A4 ??$_Seek_wrapped@I@std@@YAXAEAPEAIQEAI@Z
   3A93A4 ??$_Seek_wrapped@J@std@@YAXAEAPEAJQEAJ@Z
   3A93A4 ??$_Seek_wrapped@PEAVMetaDataContainer@relion@@@std@@YAXAEAPEAPEAVMetaDataContainer@relion@@QEAPEAV12@@Z
   3A93A4 ??$_Seek_wrapped@V?$_Vector_iterator@V?$_Vector_val@U?$_Simple_types@I@std@@@std@@@std@@PEAI$0A@@std@@YAXAEAV?$_Vector_iterator@V?$_Vector_val@U?$_Simple_types@I@std@@@std@@@0@AEBQEAI@Z
   3A93A4 ??$_Seek_wrapped@V?$_Vector_iterator@V?$_Vector_val@U?$_Simple_types@W4EMDLabel@relion@@@std@@@std@@@std@@PEAW4EMDLabel@relion@@$0A@@std@@YAXAEAV?$_Vector_iterator@V?$_Vector_val@U?$_Simple_types@W4EMDLabel@relion@@@std@@@std@@@0@AEBQEAW4EMDLabel@relion@@@Z
   3A93A4 ??$_Seek_wrapped@W4EMDLabel@relion@@@std@@YAXAEAPEAW4EMDLabel@relion@@QEAW412@@Z
   3A93A4 ??$_Stable_sort_unchecked@PEAPEAVMetaDataContainer@relion@@P6A_NPEAV12@0@Z@std@@YAXQEAPEAVMetaDataContainer@relion@@0_J01P6A_NPEAV12@2@Z@Z
   3A93A4 ??$_Temporary_buffer_size@_J@std@@YA_J_J@Z
   3A93A4 ??$_Traits_compare@U?$char_traits@D@std@@@std@@YAHQEBD_K01@Z
   3A93A4 ??$_Ucopy@PEAW4EMDLabel@relion@@@?$vector@W4EMDLabel@relion@@V?$allocator@W4EMDLabel@relion@@@std@@@std@@AEAAPEAW4EMDLabel@relion@@PEAW423@00@Z
   3A93A4 ??$_Unfancy@$$CBD@std@@YAPEBDPEBD@Z
   3A93A4 ??$_Unfancy@I@std@@YAPEAIPEAI@Z
   3A93A4 ??$_Unfancy@J@std@@YAPEAJPEAJ@Z
   3A93A4 ??$_Unfancy@PEAVMetaDataContainer@relion@@@std@@YAPEAPEAVMetaDataContainer@relion@@PEAPEAV12@@Z
   3A93A4 ??$_Unfancy@W4EMDLabel@relion@@@std@@YAPEAW4EMDLabel@relion@@PEAW412@@Z
   3A93A4 ??$_Ungetc@D@std@@YA_NAEBDPEAU_iobuf@@@Z
   3A93A4 ??$_Uninitialized_chunked_merge_unchecked@PEAPEAVMetaDataContainer@relion@@PEAV12@P6A_NPEAV12@0@Z@std@@YAXPEAPEAVMetaDataContainer@relion@@QEAPEAV12@0_J_JP6A_NPEAV12@4@Z@Z
   3A93A4 ??$_Uninitialized_copy@PEAW4EMDLabel@relion@@PEAW412@V?$allocator@W4EMDLabel@relion@@@std@@@std@@YAPEAW4EMDLabel@relion@@QEAW412@0PEAW412@AEAV?$allocator@W4EMDLabel@relion@@@0@@Z
   3A93A4 ??$_Uninitialized_copy_al_unchecked@W4EMDLabel@relion@@W412@V?$allocator@W4EMDLabel@relion@@@std@@@std@@YAPEAW4EMDLabel@relion@@QEAW412@00AEAV?$allocator@W4EMDLabel@relion@@@0@U_Really_trivial_ptr_iterator_tag@0@U?$integral_constant@_N$00@0@@Z
   3A93A4 ??$_Uninitialized_merge_move@PEAPEAVMetaDataContainer@relion@@PEAV12@P6A_NPEAV12@0@Z@std@@YAPEAPEAVMetaDataContainer@relion@@PEAPEAV12@QEAPEAV12@11P6A_NPEAV12@2@Z@Z
   3A93A4 ??$_Uninitialized_move@PEAIPEAIV?$allocator@I@std@@@std@@YAPEAIQEAI0PEAIAEAV?$allocator@I@0@@Z
   3A93A4 ??$_Uninitialized_move@PEAJPEAJV?$allocator@J@std@@@std@@YAPEAJQEAJ0PEAJAEAV?$allocator@J@0@@Z
   3A93A4 ??$_Uninitialized_move@PEAPEAVMetaDataContainer@relion@@PEAPEAV12@V?$allocator@PEAVMetaDataContainer@relion@@@std@@@std@@YAPEAPEAVMetaDataContainer@relion@@QEAPEAV12@0PEAPEAV12@AEAV?$allocator@PEAVMetaDataContainer@relion@@@0@@Z
   3A93A4 ??$_Uninitialized_move@PEAW4EMDLabel@relion@@PEAW412@V?$allocator@W4EMDLabel@relion@@@std@@@std@@YAPEAW4EMDLabel@relion@@QEAW412@0PEAW412@AEAV?$allocator@W4EMDLabel@relion@@@0@@Z
   3A93A4 ??$_Uninitialized_move_al_unchecked@IIV?$allocator@I@std@@@std@@YAPEAIQEAI00AEAV?$allocator@I@0@U_Really_trivial_ptr_iterator_tag@0@U?$integral_constant@_N$00@0@@Z
   3A93A4 ??$_Uninitialized_move_al_unchecked@JJV?$allocator@J@std@@@std@@YAPEAJQEAJ00AEAV?$allocator@J@0@U_Really_trivial_ptr_iterator_tag@0@U?$integral_constant@_N$00@0@@Z
   3A93A4 ??$_Uninitialized_move_al_unchecked@PEAVMetaDataContainer@relion@@PEAV12@V?$allocator@PEAVMetaDataContainer@relion@@@std@@@std@@YAPEAPEAVMetaDataContainer@relion@@QEAPEAV12@00AEAV?$allocator@PEAVMetaDataContainer@relion@@@0@U_Really_trivial_ptr_iterator_tag@0@U?$integral_constant@_N$00@0@@Z
   3A93A4 ??$_Uninitialized_move_al_unchecked@W4EMDLabel@relion@@W412@V?$allocator@W4EMDLabel@relion@@@std@@@std@@YAPEAW4EMDLabel@relion@@QEAW412@00AEAV?$allocator@W4EMDLabel@relion@@@0@U_Really_trivial_ptr_iterator_tag@0@U?$integral_constant@_N$00@0@@Z
   3A93A4 ??$_Uninitialized_move_unchecked1@PEAPEAVMetaDataContainer@relion@@PEAPEAV12@@std@@YAPEAPEAVMetaDataContainer@relion@@QEAPEAV12@00U_Really_trivial_ptr_iterator_tag@0@@Z
   3A93A4 ??$_Uninitialized_move_unchecked@PEAPEAVMetaDataContainer@relion@@PEAPEAV12@@std@@YAPEAPEAVMetaDataContainer@relion@@QEAPEAV12@00@Z
   3A93A4 ??$_Uninitialized_value_construct_n1@PEAPEAVMetaDataContainer@relion@@_KV?$allocator@PEAVMetaDataContainer@relion@@@std@@@std@@YAPEAPEAVMetaDataContainer@relion@@PEAPEAV12@_KAEAV?$allocator@PEAVMetaDataContainer@relion@@@0@U?$integral_constant@_N$00@0@@Z
   3A93A4 ??$_Uninitialized_value_construct_n@PEAPEAVMetaDataContainer@relion@@_KV?$allocator@PEAVMetaDataContainer@relion@@@std@@@std@@YAPEAPEAVMetaDataContainer@relion@@PEAPEAV12@_KAEAV?$allocator@PEAVMetaDataContainer@relion@@@0@@Z
   3A93A4 ??$_Verify_range@PEAVMetaDataContainer@relion@@@std@@YAXQEBQEAVMetaDataContainer@relion@@0@Z
   3A93A4 ??$_Verify_range@W4EMDLabel@relion@@@std@@YAXQEBW4EMDLabel@relion@@0@Z
   3A93A4 ??$_Zero_range@PEAPEAVMetaDataContainer@relion@@@std@@YAPEAPEAVMetaDataContainer@relion@@QEAPEAV12@0@Z
   3A93A4 ??$addressof@$$CBV?$codecvt@DDU_Mbstatet@@@std@@@std@@YAPEBV?$codecvt@DDU_Mbstatet@@@0@AEBV10@@Z
   3A93A4 ??$addressof@$$CBV?$vector@W4EMDLabel@relion@@V?$allocator@W4EMDLabel@relion@@@std@@@std@@@std@@YAPEBV?$vector@W4EMDLabel@relion@@V?$allocator@W4EMDLabel@relion@@@std@@@0@AEBV10@@Z
   3A93A4 ??$addressof@PEAU?$_Tree_node@U?$pair@$$CBW4EMDLabel@relion@@PEAX@std@@PEAX@std@@@std@@YAPEAPEAU?$_Tree_node@U?$pair@$$CBW4EMDLabel@relion@@PEAX@std@@PEAX@0@AEAPEAU10@@Z
   3A93A4 ??$addressof@PEAVMetaDataContainer@relion@@@std@@YAPEAPEAVMetaDataContainer@relion@@AEAPEAV12@@Z
   3A93A4 ??$addressof@U?$pair@$$CBW4EMDLabel@relion@@PEAX@std@@@std@@YAPEAU?$pair@$$CBW4EMDLabel@relion@@PEAX@0@AEAU10@@Z
   3A93A4 ??$addressof@V?$_Tree_val@U?$_Tree_simple_types@U?$pair@$$CBW4EMDLabel@relion@@PEAX@std@@@std@@@std@@@std@@YAPEAV?$_Tree_val@U?$_Tree_simple_types@U?$pair@$$CBW4EMDLabel@relion@@PEAX@std@@@std@@@0@AEAV10@@Z
   3A93A4 ??$addressof@V?$_Vector_val@U?$_Simple_types@I@std@@@std@@@std@@YAPEAV?$_Vector_val@U?$_Simple_types@I@std@@@0@AEAV10@@Z
   3A93A4 ??$addressof@V?$_Vector_val@U?$_Simple_types@J@std@@@std@@@std@@YAPEAV?$_Vector_val@U?$_Simple_types@J@std@@@0@AEAV10@@Z
   3A93A4 ??$addressof@V?$_Vector_val@U?$_Simple_types@PEAVMetaDataContainer@relion@@@std@@@std@@@std@@YAPEAV?$_Vector_val@U?$_Simple_types@PEAVMetaDataContainer@relion@@@std@@@0@AEAV10@@Z
   3A93A4 ??$addressof@V?$_Vector_val@U?$_Simple_types@W4EMDLabel@relion@@@std@@@std@@@std@@YAPEAV?$_Vector_val@U?$_Simple_types@W4EMDLabel@relion@@@std@@@0@AEAV10@@Z
   3A93A4 ??$addressof@V?$vector@W4EMDLabel@relion@@V?$allocator@W4EMDLabel@relion@@@std@@@std@@@std@@YAPEAV?$vector@W4EMDLabel@relion@@V?$allocator@W4EMDLabel@relion@@@std@@@0@AEAV10@@Z
   3A93A4 ??$advance@PEAPEAVMetaDataContainer@relion@@_J@std@@YAXAEAPEAPEAVMetaDataContainer@relion@@_J@Z
   3A93A4 ??$advance@PEAW4EMDLabel@relion@@_J@std@@YAXAEAPEAW4EMDLabel@relion@@_J@Z
   3A93A4 ??$assign@PEAW4EMDLabel@relion@@X@?$vector@W4EMDLabel@relion@@V?$allocator@W4EMDLabel@relion@@@std@@@std@@QEAAXPEAW4EMDLabel@relion@@0@Z
   3A93A4 ??$construct@IAEBI@?$_Default_allocator_traits@V?$allocator@I@std@@@std@@SAXAEAV?$allocator@I@1@QEAIAEBI@Z
   3A93A4 ??$construct@JAEBJ@?$_Default_allocator_traits@V?$allocator@J@std@@@std@@SAXAEAV?$allocator@J@1@QEAJAEBJ@Z
   3A93A4 ??$construct@PEAU?$_Tree_node@U?$pair@$$CBW4EMDLabel@relion@@PEAX@std@@PEAX@std@@AEAPEAU12@@?$_Default_allocator_traits@V?$allocator@U?$_Tree_node@U?$pair@$$CBW4EMDLabel@relion@@PEAX@std@@PEAX@std@@@std@@@std@@SAXAEAV?$allocator@U?$_Tree_node@U?$pair@$$CBW4EMDLabel@relion@@PEAX@std@@PEAX@std@@@1@QEAPEAU?$_Tree_node@U?$pair@$$CBW4EMDLabel@relion@@PEAX@std@@PEAX@1@AEAPEAU31@@Z
   3A93A4 ??$construct@W4EMDLabel@relion@@AEBW412@@?$_Default_allocator_traits@V?$allocator@W4EMDLabel@relion@@@std@@@std@@SAXAEAV?$allocator@W4EMDLabel@relion@@@1@QEAW4EMDLabel@relion@@AEBW434@@Z
   3A93A4 ??$destroy@PEAU?$_Tree_node@U?$pair@$$CBW4EMDLabel@relion@@PEAX@std@@PEAX@std@@@?$_Default_allocator_traits@V?$allocator@U?$_Tree_node@U?$pair@$$CBW4EMDLabel@relion@@PEAX@std@@PEAX@std@@@std@@@std@@SAXAEAV?$allocator@U?$_Tree_node@U?$pair@$$CBW4EMDLabel@relion@@PEAX@std@@PEAX@std@@@1@QEAPEAU?$_Tree_node@U?$pair@$$CBW4EMDLabel@relion@@PEAX@std@@PEAX@1@@Z
   3A93A4 ??$destroy@PEAVMetaDataContainer@relion@@@?$_Default_allocator_traits@V?$allocator@PEAVMetaDataContainer@relion@@@std@@@std@@SAXAEAV?$allocator@PEAVMetaDataContainer@relion@@@1@QEAPEAVMetaDataContainer@relion@@@Z
   3A93A4 ??$destroy@U?$pair@$$CBW4EMDLabel@relion@@PEAX@std@@@?$_Default_allocator_traits@V?$allocator@U?$_Tree_node@U?$pair@$$CBW4EMDLabel@relion@@PEAX@std@@PEAX@std@@@std@@@std@@SAXAEAV?$allocator@U?$_Tree_node@U?$pair@$$CBW4EMDLabel@relion@@PEAX@std@@PEAX@std@@@1@QEAU?$pair@$$CBW4EMDLabel@relion@@PEAX@1@@Z
   3A93A4 ??$destroy@W4EMDLabel@relion@@@?$_Default_allocator_traits@V?$allocator@W4EMDLabel@relion@@@std@@@std@@SAXAEAV?$allocator@W4EMDLabel@relion@@@1@QEAW4EMDLabel@relion@@@Z
   3A93A4 ??$distance@PEAPEAVMetaDataContainer@relion@@@std@@YA_JPEAPEAVMetaDataContainer@relion@@0@Z
   3A93A4 ??$distance@PEAW4EMDLabel@relion@@@std@@YA_JPEAW4EMDLabel@relion@@0@Z
   3A93A4 ??$emplace_back@AEBI@?$vector@IV?$allocator@I@std@@@std@@QEAA@AEBI@Z
   3A93A4 ??$emplace_back@AEBJ@?$vector@JV?$allocator@J@std@@@std@@QEAA@AEBJ@Z
   3A93A4 ??$emplace_back@AEBW4EMDLabel@relion@@@?$vector@W4EMDLabel@relion@@V?$allocator@W4EMDLabel@relion@@@std@@@std@@QEAA@AEBW4EMDLabel@relion@@@Z
   3A93A4 ??$find@V?$_Vector_iterator@V?$_Vector_val@U?$_Simple_types@I@std@@@std@@@std@@H@std@@YA?AV?$_Vector_iterator@V?$_Vector_val@U?$_Simple_types@I@std@@@std@@@0@V10@V10@AEBH@Z
   3A93A4 ??$find@V?$_Vector_iterator@V?$_Vector_val@U?$_Simple_types@W4EMDLabel@relion@@@std@@@std@@@std@@W4EMDLabel@relion@@@std@@YA?AV?$_Vector_iterator@V?$_Vector_val@U?$_Simple_types@W4EMDLabel@relion@@@std@@@std@@@0@V10@V10@AEBW4EMDLabel@relion@@@Z
   3A93A4 ??$forward@$$T@std@@YA$$QEA$$TAEA$$T@Z
   3A93A4 ??$forward@AEAPEAU?$_Tree_node@U?$pair@$$CBW4EMDLabel@relion@@PEAX@std@@PEAX@std@@@std@@YAAEAPEAU?$_Tree_node@U?$pair@$$CBW4EMDLabel@relion@@PEAX@std@@PEAX@0@AEAPEAU10@@Z
   3A93A4 ??$forward@AEAPEAV_Facet_base@std@@@std@@YAAEAPEAV_Facet_base@0@AEAPEAV10@@Z
   3A93A4 ??$forward@AEA_J@std@@YAAEA_JAEA_J@Z
   3A93A4 ??$forward@AEBI@std@@YAAEBIAEBI@Z
   3A93A4 ??$forward@AEBJ@std@@YAAEBJAEBJ@Z
   3A93A4 ??$forward@AEBU?$less@W4EMDLabel@relion@@@std@@@std@@YAAEBU?$less@W4EMDLabel@relion@@@0@AEBU10@@Z
   3A93A4 ??$forward@AEBW4EMDLabel@relion@@@std@@YAAEBW4EMDLabel@relion@@AEBW412@@Z
   3A93A4 ??$forward@H@std@@YA$$QEAHAEAH@Z
   3A93A4 ??$forward@PEAPEAVMetaDataContainer@relion@@@std@@YA$$QEAPEAPEAVMetaDataContainer@relion@@AEAPEAPEAV12@@Z
   3A93A4 ??$forward@PEAVMetaDataContainer@relion@@@std@@YA$$QEAPEAVMetaDataContainer@relion@@AEAPEAV12@@Z
   3A93A4 ??$forward@U_Zero_then_variadic_args_t@std@@@std@@YA$$QEAU_Zero_then_variadic_args_t@0@AEAU10@@Z
   3A93A4 ??$getValue@H@MetaDataTable@relion@@QEBA_NW4EMDLabel@1@AEAHJ@Z
   3A93A4 ??$getValue@M@MetaDataTable@relion@@QEBA_NW4EMDLabel@1@AEAMJ@Z
   3A93A4 ??$getValue@V?$basic_string@DU?$char_traits@D@std@@V?$allocator@D@2@@std@@@MetaDataTable@relion@@QEBA_NW4EMDLabel@1@AEAV?$basic_string@DU?$char_traits@D@std@@V?$allocator@D@2@@std@@J@Z
   3A93A4 ??$getline@DU?$char_traits@D@std@@V?$allocator@D@2@@std@@YAAEAV?$basic_istream@DU?$char_traits@D@std@@@0@$$QEAV10@AEAV?$basic_string@DU?$char_traits@D@std@@V?$allocator@D@2@@0@D@Z
   3A93A4 ??$getline@DU?$char_traits@D@std@@V?$allocator@D@2@@std@@YAAEAV?$basic_istream@DU?$char_traits@D@std@@@0@AEAV10@AEAV?$basic_string@DU?$char_traits@D@std@@V?$allocator@D@2@@0@D@Z
   3A93A4 ??$lower_bound@PEAPEAVMetaDataContainer@relion@@PEAV12@P6A_NPEAV12@0@Z@std@@YAPEAPEAVMetaDataContainer@relion@@PEAPEAV12@QEAPEAV12@AEBQEAV12@P6A_NPEAV12@3@Z@Z
   3A93A4 ??$move@AEAD@std@@YA$$QEADAEAD@Z
   3A93A4 ??$move@AEAPEAVMetaDataContainer@relion@@@std@@YA$$QEAPEAVMetaDataContainer@relion@@AEAPEAV12@@Z
   3A93A4 ??$move@AEAV?$allocator@W4EMDLabel@relion@@@std@@@std@@YA$$QEAV?$allocator@W4EMDLabel@relion@@@0@AEAV10@@Z
   3A93A4 ??$move@AEAV?$basic_istream@DU?$char_traits@D@std@@@std@@@std@@YA$$QEAV?$basic_istream@DU?$char_traits@D@std@@@0@AEAV10@@Z
   3A93A4 ??$move@AEAV?$vector@W4EMDLabel@relion@@V?$allocator@W4EMDLabel@relion@@@std@@@std@@@std@@YA$$QEAV?$vector@W4EMDLabel@relion@@V?$allocator@W4EMDLabel@relion@@@std@@@0@AEAV10@@Z
   3A93A4 ??$next@PEAPEAVMetaDataContainer@relion@@@std@@YAPEAPEAVMetaDataContainer@relion@@PEAPEAV12@_J@Z
   3A93A4 ??$next@PEAW4EMDLabel@relion@@@std@@YAPEAW4EMDLabel@relion@@PEAW412@_J@Z
   3A93A4 ??$reverse@V?$_Vector_iterator@V?$_Vector_val@U?$_Simple_types@PEAVMetaDataContainer@relion@@@std@@@std@@@std@@@std@@YAXV?$_Vector_iterator@V?$_Vector_val@U?$_Simple_types@PEAVMetaDataContainer@relion@@@std@@@std@@@0@0@Z
   3A93A4 ??$stable_sort@V?$_Vector_iterator@V?$_Vector_val@U?$_Simple_types@PEAVMetaDataContainer@relion@@@std@@@std@@@std@@P6A_NPEAVMetaDataContainer@relion@@0@Z@std@@YAXV?$_Vector_iterator@V?$_Vector_val@U?$_Simple_types@PEAVMetaDataContainer@relion@@@std@@@std@@@0@0P6A_NPEAVMetaDataContainer@relion@@1@Z@Z
   3A93A4 ??$swap@DX@std@@YAXAEAD0@Z
   3A93A4 ??$upper_bound@PEAPEAVMetaDataContainer@relion@@PEAV12@P6A_NPEAV12@0@Z@std@@YAPEAPEAVMetaDataContainer@relion@@PEAPEAV12@0AEBQEAV12@P6A_NPEAV12@2@Z@Z
   3A93A4 ??$use_facet@V?$codecvt@DDU_Mbstatet@@@std@@@std@@YAAEBV?$codecvt@DDU_Mbstatet@@@0@AEBVlocale@0@@Z
   3A93A4 ??$use_facet@V?$ctype@D@std@@@std@@YAAEBV?$ctype@D@0@AEBVlocale@0@@Z
   3A93A4 ??0<lambda_222d45f3feb8b8962599ebe912e91acb>@@QEAA@QEAV?$vector@PEAVMetaDataContainer@relion@@V?$allocator@PEAVMetaDataContainer@relion@@@std@@@std@@@Z
   3A93A4 ??0?$_String_const_iterator@V?$_String_val@U?$_Simple_types@D@std@@@std@@@std@@QEAA@PEBDPEBU_Container_base12@1@@Z
   3A93A4 ??0?$_String_iterator@V?$_String_val@U?$_Simple_types@D@std@@@std@@@std@@QEAA@PEADPEBU_Container_base12@1@@Z
   3A93A4 ??0?$_Tree@V?$_Tmap_traits@W4EMDLabel@relion@@PEAXU?$less@W4EMDLabel@relion@@@std@@V?$allocator@U?$pair@$$CBW4EMDLabel@relion@@PEAX@std@@@4@$0A@@std@@@std@@QEAA@AEBU?$less@W4EMDLabel@relion@@@1@@Z
   3A93A4 ??0?$_Tree_comp_alloc@V?$_Tmap_traits@W4EMDLabel@relion@@PEAXU?$less@W4EMDLabel@relion@@@std@@V?$allocator@U?$pair@$$CBW4EMDLabel@relion@@PEAX@std@@@4@$0A@@std@@@std@@QEAA@AEBU?$less@W4EMDLabel@relion@@@1@@Z
   3A93A4 ??0?$_Tree_const_iterator@V?$_Tree_val@U?$_Tree_simple_types@U?$pair@$$CBW4EMDLabel@relion@@PEAX@std@@@std@@@std@@@std@@QEAA@$$QEAV01@@Z
   3A93A4 ??0?$_Tree_const_iterator@V?$_Tree_val@U?$_Tree_simple_types@U?$pair@$$CBW4EMDLabel@relion@@PEAX@std@@@std@@@std@@@std@@QEAA@AEBV01@@Z
   3A93A4 ??0?$_Tree_const_iterator@V?$_Tree_val@U?$_Tree_simple_types@U?$pair@$$CBW4EMDLabel@relion@@PEAX@std@@@std@@@std@@@std@@QEAA@PEAU?$_Tree_node@U?$pair@$$CBW4EMDLabel@relion@@PEAX@std@@PEAX@1@PEBV?$_Tree_val@U?$_Tree_simple_types@U?$pair@$$CBW4EMDLabel@relion@@PEAX@std@@@std@@@1@@Z
   3A93A4 ??0?$_Tree_iterator@V?$_Tree_val@U?$_Tree_simple_types@U?$pair@$$CBW4EMDLabel@relion@@PEAX@std@@@std@@@std@@@std@@QEAA@PEAU?$_Tree_node@U?$pair@$$CBW4EMDLabel@relion@@PEAX@std@@PEAX@1@PEBV?$_Tree_val@U?$_Tree_simple_types@U?$pair@$$CBW4EMDLabel@relion@@PEAX@std@@@std@@@1@@Z
   3A93A4 ??0?$_Tree_unchecked_const_iterator@V?$_Tree_val@U?$_Tree_simple_types@U?$pair@$$CBW4EMDLabel@relion@@PEAX@std@@@std@@@std@@U_Iterator_base12@2@@std@@QEAA@$$QEAV01@@Z
   3A93A4 ??0?$_Tree_unchecked_const_iterator@V?$_Tree_val@U?$_Tree_simple_types@U?$pair@$$CBW4EMDLabel@relion@@PEAX@std@@@std@@@std@@U_Iterator_base12@2@@std@@QEAA@AEBV01@@Z
   3A93A4 ??0?$_Tree_unchecked_const_iterator@V?$_Tree_val@U?$_Tree_simple_types@U?$pair@$$CBW4EMDLabel@relion@@PEAX@std@@@std@@@std@@U_Iterator_base12@2@@std@@QEAA@PEAU?$_Tree_node@U?$pair@$$CBW4EMDLabel@relion@@PEAX@std@@PEAX@1@PEBV?$_Tree_val@U?$_Tree_simple_types@U?$pair@$$CBW4EMDLabel@relion@@PEAX@std@@@std@@@1@@Z
   3A93A4 ??0?$_Tree_val@U?$_Tree_simple_types@U?$pair@$$CBW4EMDLabel@relion@@PEAX@std@@@std@@@std@@QEAA@XZ
   3A93A4 ??0?$_Uninitialized_backout@PEAPEAVMetaDataContainer@relion@@@std@@QEAA@PEAPEAVMetaDataContainer@relion@@0@Z
   3A93A4 ??0?$_Uninitialized_backout@PEAPEAVMetaDataContainer@relion@@@std@@QEAA@PEAPEAVMetaDataContainer@relion@@@Z
   3A93A4 ??0?$_Vector_alloc@U?$_Vec_base_types@IV?$allocator@I@std@@@std@@@std@@QEAA@XZ
   3A93A4 ??0?$_Vector_alloc@U?$_Vec_base_types@JV?$allocator@J@std@@@std@@@std@@QEAA@XZ
   3A93A4 ??0?$_Vector_alloc@U?$_Vec_base_types@PEAVMetaDataContainer@relion@@V?$allocator@PEAVMetaDataContainer@relion@@@std@@@std@@@std@@QEAA@XZ
   3A93A4 ??0?$_Vector_alloc@U?$_Vec_base_types@W4EMDLabel@relion@@V?$allocator@W4EMDLabel@relion@@@std@@@std@@@std@@QEAA@XZ
   3A93A4 ??0?$_Vector_const_iterator@V?$_Vector_val@U?$_Simple_types@I@std@@@std@@@std@@QEAA@$$QEAV01@@Z
   3A93A4 ??0?$_Vector_const_iterator@V?$_Vector_val@U?$_Simple_types@I@std@@@std@@@std@@QEAA@PEAIPEBU_Container_base12@1@@Z
   3A93A4 ??0?$_Vector_const_iterator@V?$_Vector_val@U?$_Simple_types@PEAVMetaDataContainer@relion@@@std@@@std@@@std@@QEAA@$$QEAV01@@Z
   3A93A4 ??0?$_Vector_const_iterator@V?$_Vector_val@U?$_Simple_types@PEAVMetaDataContainer@relion@@@std@@@std@@@std@@QEAA@AEBV01@@Z
   3A93A4 ??0?$_Vector_const_iterator@V?$_Vector_val@U?$_Simple_types@PEAVMetaDataContainer@relion@@@std@@@std@@@std@@QEAA@PEAPEAVMetaDataContainer@relion@@PEBU_Container_base12@1@@Z
   3A93A4 ??0?$_Vector_const_iterator@V?$_Vector_val@U?$_Simple_types@W4EMDLabel@relion@@@std@@@std@@@std@@QEAA@$$QEAV01@@Z
   3A93A4 ??0?$_Vector_const_iterator@V?$_Vector_val@U?$_Simple_types@W4EMDLabel@relion@@@std@@@std@@@std@@QEAA@AEBV01@@Z
   3A93A4 ??0?$_Vector_const_iterator@V?$_Vector_val@U?$_Simple_types@W4EMDLabel@relion@@@std@@@std@@@std@@QEAA@PEAW4EMDLabel@relion@@PEBU_Container_base12@1@@Z
   3A93A4 ??0?$_Vector_const_iterator@V?$_Vector_val@U?$_Simple_types@W4EMDLabel@relion@@@std@@@std@@@std@@QEAA@XZ
   3A93A4 ??0?$_Vector_iterator@V?$_Vector_val@U?$_Simple_types@I@std@@@std@@@std@@QEAA@$$QEAV01@@Z
   3A93A4 ??0?$_Vector_iterator@V?$_Vector_val@U?$_Simple_types@I@std@@@std@@@std@@QEAA@PEAIPEBU_Container_base12@1@@Z
   3A93A4 ??0?$_Vector_iterator@V?$_Vector_val@U?$_Simple_types@PEAVMetaDataContainer@relion@@@std@@@std@@@std@@QEAA@$$QEAV01@@Z
   3A93A4 ??0?$_Vector_iterator@V?$_Vector_val@U?$_Simple_types@PEAVMetaDataContainer@relion@@@std@@@std@@@std@@QEAA@AEBV01@@Z
   3A93A4 ??0?$_Vector_iterator@V?$_Vector_val@U?$_Simple_types@PEAVMetaDataContainer@relion@@@std@@@std@@@std@@QEAA@PEAPEAVMetaDataContainer@relion@@PEBU_Container_base12@1@@Z
   3A93A4 ??0?$_Vector_iterator@V?$_Vector_val@U?$_Simple_types@W4EMDLabel@relion@@@std@@@std@@@std@@QEAA@$$QEAV01@@Z
   3A93A4 ??0?$_Vector_iterator@V?$_Vector_val@U?$_Simple_types@W4EMDLabel@relion@@@std@@@std@@@std@@QEAA@AEBV01@@Z
   3A93A4 ??0?$_Vector_iterator@V?$_Vector_val@U?$_Simple_types@W4EMDLabel@relion@@@std@@@std@@@std@@QEAA@PEAW4EMDLabel@relion@@PEBU_Container_base12@1@@Z
   3A93A4 ??0?$_Vector_iterator@V?$_Vector_val@U?$_Simple_types@W4EMDLabel@relion@@@std@@@std@@@std@@QEAA@XZ
   3A93A4 ??0?$_Vector_val@U?$_Simple_types@I@std@@@std@@QEAA@XZ
   3A93A4 ??0?$_Vector_val@U?$_Simple_types@J@std@@@std@@QEAA@XZ
   3A93A4 ??0?$_Vector_val@U?$_Simple_types@PEAVMetaDataContainer@relion@@@std@@@std@@QEAA@XZ
   3A93A4 ??0?$_Vector_val@U?$_Simple_types@W4EMDLabel@relion@@@std@@@std@@QEAA@XZ
   3A93A4 ??0?$allocator@I@std@@QEAA@XZ
   3A93A4 ??0?$allocator@J@std@@QEAA@XZ
   3A93A4 ??0?$allocator@PEAVMetaDataContainer@relion@@@std@@QEAA@XZ
   3A93A4 ??0?$allocator@U?$_Tree_node@U?$pair@$$CBW4EMDLabel@relion@@PEAX@std@@PEAX@std@@@std@@QEAA@XZ
   3A93A4 ??0?$allocator@W4EMDLabel@relion@@@std@@QEAA@XZ
   3A93A4 ??0?$basic_filebuf@DU?$char_traits@D@std@@@std@@QEAA@PEAU_iobuf@@@Z
   3A93A4 ??0?$basic_ifstream@DU?$char_traits@D@std@@@std@@QEAA@PEBDHH@Z
   3A93A4 ??0?$basic_ofstream@DU?$char_traits@D@std@@@std@@QEAA@XZ
   3A93A4 ??0?$basic_stringbuf@DU?$char_traits@D@std@@V?$allocator@D@2@@std@@QEAA@AEBV?$basic_string@DU?$char_traits@D@std@@V?$allocator@D@2@@1@H@Z
   3A93A4 ??0?$basic_stringstream@DU?$char_traits@D@std@@V?$allocator@D@2@@std@@QEAA@AEBV?$basic_string@DU?$char_traits@D@std@@V?$allocator@D@2@@1@H@Z
   3A93A4 ??0?$basic_stringstream@DU?$char_traits@D@std@@V?$allocator@D@2@@std@@QEAA@H@Z
   3A93A4 ??0?$fpos@U_Mbstatet@@@std@@QEAA@U_Mbstatet@@_J@Z
   3A93A4 ??0?$map@W4EMDLabel@relion@@PEAXU?$less@W4EMDLabel@relion@@@std@@V?$allocator@U?$pair@$$CBW4EMDLabel@relion@@PEAX@std@@@4@@std@@QEAA@XZ
   3A93A4 ??0?$vector@IV?$allocator@I@std@@@std@@QEAA@XZ
   3A93A4 ??0?$vector@JV?$allocator@J@std@@@std@@QEAA@XZ
   3A93A4 ??0?$vector@PEAVMetaDataContainer@relion@@V?$allocator@PEAVMetaDataContainer@relion@@@std@@@std@@QEAA@XZ
   3A93A4 ??0?$vector@W4EMDLabel@relion@@V?$allocator@W4EMDLabel@relion@@@std@@@std@@QEAA@XZ
   3A93A4 ??0MetaDataContainer@relion@@QEAA@XZ
   3A93A4 ??0MetaDataTable@relion@@QEAA@AEBV01@@Z
   3A93A4 ??0MetaDataTable@relion@@QEAA@XZ
   3A93A4 ??0_Iterator_base12@std@@QEAA@AEBU01@@Z
   3A93A4 ??0_Iterator_base12@std@@QEAA@XZ
   3A93A4 ??0_Sentry_base@?$basic_istream@DU?$char_traits@D@std@@@std@@QEAA@AEAV12@@Z
   3A93A4 ??0bad_cast@std@@QEAA@AEBV01@@Z
   3A93A4 ??0bad_cast@std@@QEAA@XZ
   3A93A4 ??0exception@std@@QEAA@AEBV01@@Z
   3A93A4 ??0exception@std@@QEAA@QEBDH@Z
   3A93A4 ??0sentry@?$basic_istream@DU?$char_traits@D@std@@@std@@QEAA@AEAV12@_N@Z
   3A93A4 ??1?$_Optimistic_temporary_buffer@PEAVMetaDataContainer@relion@@@std@@QEAA@XZ
   3A93A4 ??1?$_String_const_iterator@V?$_String_val@U?$_Simple_types@D@std@@@std@@@std@@QEAA@XZ
   3A93A4 ??1?$_String_iterator@V?$_String_val@U?$_Simple_types@D@std@@@std@@@std@@QEAA@XZ
   3A93A4 ??1?$_Tree@V?$_Tmap_traits@W4EMDLabel@relion@@PEAXU?$less@W4EMDLabel@relion@@@std@@V?$allocator@U?$pair@$$CBW4EMDLabel@relion@@PEAX@std@@@4@$0A@@std@@@std@@QEAA@XZ
   3A93A4 ??1?$_Tree_comp_alloc@V?$_Tmap_traits@W4EMDLabel@relion@@PEAXU?$less@W4EMDLabel@relion@@@std@@V?$allocator@U?$pair@$$CBW4EMDLabel@relion@@PEAX@std@@@4@$0A@@std@@@std@@QEAA@XZ
   3A93A4 ??1?$_Tree_const_iterator@V?$_Tree_val@U?$_Tree_simple_types@U?$pair@$$CBW4EMDLabel@relion@@PEAX@std@@@std@@@std@@@std@@QEAA@XZ
   3A93A4 ??1?$_Tree_iterator@V?$_Tree_val@U?$_Tree_simple_types@U?$pair@$$CBW4EMDLabel@relion@@PEAX@std@@@std@@@std@@@std@@QEAA@XZ
   3A93A4 ??1?$_Tree_unchecked_const_iterator@V?$_Tree_val@U?$_Tree_simple_types@U?$pair@$$CBW4EMDLabel@relion@@PEAX@std@@@std@@@std@@U_Iterator_base12@2@@std@@QEAA@XZ
   3A93A4 ??1?$_Uninitialized_backout@PEAPEAVMetaDataContainer@relion@@@std@@QEAA@XZ
   3A93A4 ??1?$_Vector_alloc@U?$_Vec_base_types@IV?$allocator@I@std@@@std@@@std@@QEAA@XZ
   3A93A4 ??1?$_Vector_alloc@U?$_Vec_base_types@JV?$allocator@J@std@@@std@@@std@@QEAA@XZ
   3A93A4 ??1?$_Vector_alloc@U?$_Vec_base_types@PEAVMetaDataContainer@relion@@V?$allocator@PEAVMetaDataContainer@relion@@@std@@@std@@@std@@QEAA@XZ
   3A93A4 ??1?$_Vector_alloc@U?$_Vec_base_types@W4EMDLabel@relion@@V?$allocator@W4EMDLabel@relion@@@std@@@std@@@std@@QEAA@XZ
   3A93A4 ??1?$_Vector_const_iterator@V?$_Vector_val@U?$_Simple_types@I@std@@@std@@@std@@QEAA@XZ
   3A93A4 ??1?$_Vector_const_iterator@V?$_Vector_val@U?$_Simple_types@PEAVMetaDataContainer@relion@@@std@@@std@@@std@@QEAA@XZ
   3A93A4 ??1?$_Vector_const_iterator@V?$_Vector_val@U?$_Simple_types@W4EMDLabel@relion@@@std@@@std@@@std@@QEAA@XZ
   3A93A4 ??1?$_Vector_iterator@V?$_Vector_val@U?$_Simple_types@I@std@@@std@@@std@@QEAA@XZ
   3A93A4 ??1?$_Vector_iterator@V?$_Vector_val@U?$_Simple_types@PEAVMetaDataContainer@relion@@@std@@@std@@@std@@QEAA@XZ
   3A93A4 ??1?$_Vector_iterator@V?$_Vector_val@U?$_Simple_types@W4EMDLabel@relion@@@std@@@std@@@std@@QEAA@XZ
   3A93A4 ??1?$basic_filebuf@DU?$char_traits@D@std@@@std@@UEAA@XZ
   3A93A4 ??1?$basic_ifstream@DU?$char_traits@D@std@@@std@@UEAA@XZ
   3A93A4 ??1?$basic_ofstream@DU?$char_traits@D@std@@@std@@UEAA@XZ
   3A93A4 ??1?$basic_stringstream@DU?$char_traits@D@std@@V?$allocator@D@2@@std@@UEAA@XZ
   3A93A4 ??1?$map@W4EMDLabel@relion@@PEAXU?$less@W4EMDLabel@relion@@@std@@V?$allocator@U?$pair@$$CBW4EMDLabel@relion@@PEAX@std@@@4@@std@@QEAA@XZ
   3A93A4 ??1?$unique_ptr@V_Facet_base@std@@U?$default_delete@V_Facet_base@std@@@2@@std@@QEAA@XZ
   3A93A4 ??1?$vector@IV?$allocator@I@std@@@std@@QEAA@XZ
   3A93A4 ??1?$vector@JV?$allocator@J@std@@@std@@QEAA@XZ
   3A93A4 ??1?$vector@PEAVMetaDataContainer@relion@@V?$allocator@PEAVMetaDataContainer@relion@@@std@@@std@@QEAA@XZ
   3A93A4 ??1?$vector@W4EMDLabel@relion@@V?$allocator@W4EMDLabel@relion@@@std@@@std@@QEAA@XZ
   3A93A4 ??1MetaDataContainer@relion@@QEAA@XZ
   3A93A4 ??1MetaDataTable@relion@@QEAA@XZ
   3A93A4 ??1_Iterator_base12@std@@QEAA@XZ
   3A93A4 ??1_Sentry_base@?$basic_istream@DU?$char_traits@D@std@@@std@@QEAA@XZ
   3A93A4 ??1bad_cast@std@@UEAA@XZ
   3A93A4 ??1exception@std@@UEAA@XZ
   3A93A4 ??1locale@std@@QEAA@XZ
   3A93A4 ??1sentry@?$basic_istream@DU?$char_traits@D@std@@@std@@QEAA@XZ
   3A93A4 ??4?$_Vector_const_iterator@V?$_Vector_val@U?$_Simple_types@PEAVMetaDataContainer@relion@@@std@@@std@@@std@@QEAAAEAV01@AEBV01@@Z
   3A93A4 ??4?$_Vector_const_iterator@V?$_Vector_val@U?$_Simple_types@W4EMDLabel@relion@@@std@@@std@@@std@@QEAAAEAV01@$$QEAV01@@Z
   3A93A4 ??4?$_Vector_iterator@V?$_Vector_val@U?$_Simple_types@PEAVMetaDataContainer@relion@@@std@@@std@@@std@@QEAAAEAV01@AEBV01@@Z
   3A93A4 ??4?$_Vector_iterator@V?$_Vector_val@U?$_Simple_types@W4EMDLabel@relion@@@std@@@std@@@std@@QEAAAEAV01@$$QEAV01@@Z
   3A93A4 ??4?$basic_string@DU?$char_traits@D@std@@V?$allocator@D@2@@std@@QEAAAEAV01@QEBD@Z
   3A93A4 ??4?$vector@W4EMDLabel@relion@@V?$allocator@W4EMDLabel@relion@@@std@@@std@@QEAAAEAV01@$$QEAV01@@Z
   3A93A4 ??4?$vector@W4EMDLabel@relion@@V?$allocator@W4EMDLabel@relion@@@std@@@std@@QEAAAEAV01@AEBV01@@Z
   3A93A4 ??4MetaDataTable@relion@@QEAAAEAV01@AEBV01@@Z
   3A93A4 ??4_Iterator_base12@std@@QEAAAEAU01@AEBU01@@Z
   3A93A4 ??8?$_Tree_const_iterator@V?$_Tree_val@U?$_Tree_simple_types@U?$pair@$$CBW4EMDLabel@relion@@PEAX@std@@@std@@@std@@@std@@QEBA_NAEBV01@@Z
   3A93A4 ??8?$_Vector_const_iterator@V?$_Vector_val@U?$_Simple_types@I@std@@@std@@@std@@QEBA_NAEBV01@@Z
   3A93A4 ??8?$_Vector_const_iterator@V?$_Vector_val@U?$_Simple_types@PEAVMetaDataContainer@relion@@@std@@@std@@@std@@QEBA_NAEBV01@@Z
   3A93A4 ??8?$_Vector_const_iterator@V?$_Vector_val@U?$_Simple_types@W4EMDLabel@relion@@@std@@@std@@@std@@QEBA_NAEBV01@@Z
   3A93A4 ??9?$_Tree_const_iterator@V?$_Tree_val@U?$_Tree_simple_types@U?$pair@$$CBW4EMDLabel@relion@@PEAX@std@@@std@@@std@@@std@@QEBA_NAEBV01@@Z
   3A93A4 ??9?$_Vector_const_iterator@V?$_Vector_val@U?$_Simple_types@I@std@@@std@@@std@@QEBA_NAEBV01@@Z
   3A93A4 ??9?$_Vector_const_iterator@V?$_Vector_val@U?$_Simple_types@PEAVMetaDataContainer@relion@@@std@@@std@@@std@@QEBA_NAEBV01@@Z
   3A93A4 ??9?$_Vector_const_iterator@V?$_Vector_val@U?$_Simple_types@W4EMDLabel@relion@@@std@@@std@@@std@@QEBA_NAEBV01@@Z
   3A93A4 ??A?$vector@JV?$allocator@J@std@@@std@@QEAAAEAJ_K@Z
   3A93A4 ??A?$vector@PEAVMetaDataContainer@relion@@V?$allocator@PEAVMetaDataContainer@relion@@@std@@@std@@QEAAAEAPEAVMetaDataContainer@relion@@_K@Z
   3A93A4 ??A?$vector@PEAVMetaDataContainer@relion@@V?$allocator@PEAVMetaDataContainer@relion@@@std@@@std@@QEBAAEBQEAVMetaDataContainer@relion@@_K@Z
   3A93A4 ??A?$vector@W4EMDLabel@relion@@V?$allocator@W4EMDLabel@relion@@@std@@@std@@QEAAAEAW4EMDLabel@relion@@_K@Z
   3A93A4 ??Bsentry@?$basic_istream@DU?$char_traits@D@std@@@std@@QEBA_NXZ
   3A93A4 ??C?$_Tree_iterator@V?$_Tree_val@U?$_Tree_simple_types@U?$pair@$$CBW4EMDLabel@relion@@PEAX@std@@@std@@@std@@@std@@QEBAPEAU?$pair@$$CBW4EMDLabel@relion@@PEAX@1@XZ
   3A93A4 ??D?$_String_const_iterator@V?$_String_val@U?$_Simple_types@D@std@@@std@@@std@@QEBAAEBDXZ
   3A93A4 ??D?$_String_iterator@V?$_String_val@U?$_Simple_types@D@std@@@std@@@std@@QEBAAEADXZ
   3A93A4 ??D?$_Tree_const_iterator@V?$_Tree_val@U?$_Tree_simple_types@U?$pair@$$CBW4EMDLabel@relion@@PEAX@std@@@std@@@std@@@std@@QEBAAEBU?$pair@$$CBW4EMDLabel@relion@@PEAX@1@XZ
   3A93A4 ??D?$_Tree_iterator@V?$_Tree_val@U?$_Tree_simple_types@U?$pair@$$CBW4EMDLabel@relion@@PEAX@std@@@std@@@std@@@std@@QEBAAEAU?$pair@$$CBW4EMDLabel@relion@@PEAX@1@XZ
   3A93A4 ??D?$_Vector_const_iterator@V?$_Vector_val@U?$_Simple_types@PEAVMetaDataContainer@relion@@@std@@@std@@@std@@QEBAAEBQEAVMetaDataContainer@relion@@XZ
   3A93A4 ??D?$_Vector_const_iterator@V?$_Vector_val@U?$_Simple_types@W4EMDLabel@relion@@@std@@@std@@@std@@QEBAAEBW4EMDLabel@relion@@XZ
   3A93A4 ??D?$_Vector_iterator@V?$_Vector_val@U?$_Simple_types@PEAVMetaDataContainer@relion@@@std@@@std@@@std@@QEBAAEAPEAVMetaDataContainer@relion@@XZ
   3A93A4 ??D?$_Vector_iterator@V?$_Vector_val@U?$_Simple_types@W4EMDLabel@relion@@@std@@@std@@@std@@QEBAAEAW4EMDLabel@relion@@XZ
   3A93A4 ??E?$_Tree_const_iterator@V?$_Tree_val@U?$_Tree_simple_types@U?$pair@$$CBW4EMDLabel@relion@@PEAX@std@@@std@@@std@@@std@@QEAA?AV01@H@Z
   3A93A4 ??E?$_Tree_const_iterator@V?$_Tree_val@U?$_Tree_simple_types@U?$pair@$$CBW4EMDLabel@relion@@PEAX@std@@@std@@@std@@@std@@QEAAAEAV01@XZ
   3A93A4 ??E?$_Tree_iterator@V?$_Tree_val@U?$_Tree_simple_types@U?$pair@$$CBW4EMDLabel@relion@@PEAX@std@@@std@@@std@@@std@@QEAAAEAV01@XZ
   3A93A4 ??E?$_Tree_unchecked_const_iterator@V?$_Tree_val@U?$_Tree_simple_types@U?$pair@$$CBW4EMDLabel@relion@@PEAX@std@@@std@@@std@@U_Iterator_base12@2@@std@@QEAAAEAV01@XZ
   3A93A4 ??E?$_Vector_const_iterator@V?$_Vector_val@U?$_Simple_types@PEAVMetaDataContainer@relion@@@std@@@std@@@std@@QEAAAEAV01@XZ
   3A93A4 ??E?$_Vector_const_iterator@V?$_Vector_val@U?$_Simple_types@W4EMDLabel@relion@@@std@@@std@@@std@@QEAAAEAV01@XZ
   3A93A4 ??E?$_Vector_iterator@V?$_Vector_val@U?$_Simple_types@PEAVMetaDataContainer@relion@@@std@@@std@@@std@@QEAAAEAV01@XZ
   3A93A4 ??E?$_Vector_iterator@V?$_Vector_val@U?$_Simple_types@W4EMDLabel@relion@@@std@@@std@@@std@@QEAA?AV01@H@Z
   3A93A4 ??E?$_Vector_iterator@V?$_Vector_val@U?$_Simple_types@W4EMDLabel@relion@@@std@@@std@@@std@@QEAAAEAV01@XZ
   3A93A4 ??F?$_Vector_const_iterator@V?$_Vector_val@U?$_Simple_types@PEAVMetaDataContainer@relion@@@std@@@std@@@std@@QEAAAEAV01@XZ
   3A93A4 ??F?$_Vector_iterator@V?$_Vector_val@U?$_Simple_types@PEAVMetaDataContainer@relion@@@std@@@std@@@std@@QEAAAEAV01@XZ
   3A93A4 ??H?$_Vector_iterator@V?$_Vector_val@U?$_Simple_types@PEAVMetaDataContainer@relion@@@std@@@std@@@std@@QEBA?AV01@_J@Z
   3A93A4 ??R<lambda_222d45f3feb8b8962599ebe912e91acb>@@QEBAPEAPEAVMetaDataContainer@relion@@PEAPEAV12@_K@Z
   3A93A4 ??R?$default_delete@V_Facet_base@std@@@std@@QEBAXPEAV_Facet_base@1@@Z
   3A93A4 ??Y?$_Vector_const_iterator@V?$_Vector_val@U?$_Simple_types@PEAVMetaDataContainer@relion@@@std@@@std@@@std@@QEAAAEAV01@_J@Z
   3A93A4 ??Y?$_Vector_iterator@V?$_Vector_val@U?$_Simple_types@PEAVMetaDataContainer@relion@@@std@@@std@@@std@@QEAAAEAV01@_J@Z
   3A93A4 ??_7?$basic_filebuf@DU?$char_traits@D@std@@@std@@6B@
   3A93A4 ??_7?$basic_ifstream@DU?$char_traits@D@std@@@std@@6B@
   3A93A4 ??_7?$basic_ofstream@DU?$char_traits@D@std@@@std@@6B@
   3A93A4 ??_7?$basic_stringstream@DU?$char_traits@D@std@@V?$allocator@D@2@@std@@6B@
   3A93A4 ??_7bad_cast@std@@6B@
   3A93A4 ??_7exception@std@@6B@
   3A93A4 ??_8?$basic_ifstream@DU?$char_traits@D@std@@@std@@7B@
   3A93A4 ??_8?$basic_ofstream@DU?$char_traits@D@std@@@std@@7B@
   3A93A4 ??_8?$basic_stringstream@DU?$char_traits@D@std@@V?$allocator@D@2@@std@@7B?$basic_istream@DU?$char_traits@D@std@@@1@@
   3A93A4 ??_8?$basic_stringstream@DU?$char_traits@D@std@@V?$allocator@D@2@@std@@7B?$basic_ostream@DU?$char_traits@D@std@@@1@@
   3A93A4 ??_C@_01EOFPKCAF@?$EA@
   3A93A4 ??_C@_01GPOEFGEJ@?7@
   3A93A4 ??_C@_01IDAFKMJL@_@
   3A93A4 ??_C@_01IPJKGB@?$CD@
   3A93A4 ??_C@_02IGFKBHGM@?5?$CD@
   3A93A4 ??_C@_02KPDBPKPG@?$CD?5@
   3A93A4 ??_C@_02MCBMIIIH@?5?6@
   3A93A4 ??_C@_04DHOOBPFF@star@
   3A93A4 ??_C@_05CAPOLPHP@loop_@
   3A93A4 ??_C@_05OJGBJKKK@data_@
   3A93A4 ??_C@_07DBNLEFLA@loop_?5?6@
   3A93A4 ??_C@_08EPJLHIJG@bad?5cast@
   3A93A4 ??_C@_0BB@GMOFPGF@?5does?5not?5exists@
   3A93A4 ??_C@_0BC@EOODALEL@Unknown?5exception@
   3A93A4 ??_C@_0BD@FEEMDEPI@invalid?5comparator@
   3A93A4 ??_C@_0BJ@DGJKLJFL@Cannot?5sort?5this?5label?3?5@
   3A93A4 ??_C@_0BJ@HAJGEHKO@transposed?5pointer?5range@
   3A93A4 ??_C@_0BJ@LFDBABJJ@ITERATOR?5LIST?5CORRUPTED?$CB@
   3A93A4 ??_C@_0BL@IEINOAOO@MetaDataTable?3?3read?3?5File?5@
   3A93A4 ??_C@_0BO@CAOBBIOC@vector?5iterators?5incompatible@
   3A93A4 ??_C@_0BP@OLDKBHLM@map?1set?5iterators?5incompatible@
   3A93A4 ??_C@_0CB@LIAHLBAO@vector?5iterator?5range?5transpose@
   3A93A4 ??_C@_0CE@EAMOGAIE@vector?5erase?5iterator?5outside?5r@
   3A93A4 ??_C@_0CF@JILFNJOL@map?1set?5erase?5iterator?5outside?5@
   3A93A4 ??_C@_0CF@LOOMKNJJ@ERROR?3?5Unrecognised?5metadata?5la@
   3A93A4 ??_C@_0CG@JDIOCKHH@cannot?5seek?5vector?5iterator?5aft@
   3A93A4 ??_C@_0CG@NLEHEOHN@cannot?5increment?5end?5map?1set?5it@
   3A93A4 ??_C@_0CI@OKFEHCEB@cannot?5dereference?5end?5map?1set?5@
   3A93A4 ??_C@_0CJ@DIFMEJBE@cannot?5seek?5vector?5iterator?5bef@
   3A93A4 ??_C@_0CJ@OAAAAGPM@can?8t?5increment?5vector?5iterator@
   3A93A4 ??_C@_0CK@KKKAMDPA@Requested?5objectID?5not?5found?4?5E@
   3A93A4 ??_C@_0CL@GFFNMEF@d?3?2software?2liblion?2src?2metadat@
   3A93A4 ??_C@_0CM@NNDIPIKB@MetaDataTable?3?3write?5Cannot?5wri@
   3A93A4 ??_C@_0CN@BDPAAJH@d?3?2software?2liblion?2src?2metadat@
   3A93A4 ??_C@_0CN@CGJJIGFD@can?8t?5decrement?5vector?5iterator@
   3A93A4 ??_C@_0CO@LHPFLLJB@cannot?5seek?5value?9initialized?5v@
   3A93A4 ??_C@_0CP@MDHADBHN@can?8t?5dereference?5out?5of?5range?5@
   3A93A4 ??_C@_0DC@DACNKKOM@can?8t?5decrement?5value?9initializ@
   3A93A4 ??_C@_0DC@KEKNBAEB@can?8t?5increment?5value?9initializ@
   3A93A4 ??_C@_0DD@IBKFJEFM@Unrecognised?5label?5type?5in?5Meta@
   3A93A4 ??_C@_0DE@CHADHGFF@can?8t?5dereference?5value?9initial@
   3A93A4 ??_C@_0DE@DMNPKCGM@cannot?5increment?5value?9initiali@
   3A93A4 ??_C@_0DF@IMIHIHOP@cannot?5dereference?5value?9initia@
   3A93A4 ??_C@_0DF@MEDCBOPO@MetaDataTable?3?3addObject?3?5objec@
   3A93A4 ??_C@_0DG@GOHKFKI@MetaDataTable?3?3goToObject?3?5obje@
   3A93A4 ??_C@_0DG@LCFNIIPB@cannot?5dereference?5value?9initia@
   3A93A4 ??_C@_0DI@PBEELKIF@vector?5iterators?5in?5range?5are?5f@
   3A93A4 ??_C@_0DO@BGPCONDD@Requested?5objectID?5not?5found?5?$CIn@
   3A93A4 ??_C@_0DO@JLLDLBBD@MetaDataTable?3?3setValueFromStri@
   3A93A4 ??_C@_0EE@KFAMFEED@MetaDataTable?3?3readStarList?3?5di@
   3A93A4 ??_C@_0EF@BDPEHIEG@MetaDataTable?3?3read?5ERROR?3?5meta@
   3A93A4 ??_C@_0FB@GBFDIKIG@compareMetaDataTableEqualLabel?3@
   3A93A4 ??_C@_0FB@GCNHFOOI@compareMetaDataTableEqualLabel?3@
   3A93A4 ??_C@_0FB@GDBFDENP@compareMetaDataTableEqualLabel?3@
   3A93A4 ??_C@_0FB@IAFMIDHN@compareMetaDataTableEqualLabel?3@
   3A93A4 ??_C@_0FB@IBJOOJEK@compareMetaDataTableEqualLabel?3@
   3A93A4 ??_C@_0FB@ICBKDNCE@compareMetaDataTableEqualLabel?3@
   3A93A4 ??_C@_0FB@IHIBAJGK@compareMetaDataTableEqualLabel?3@
   3A93A4 ??_C@_0FF@HJKEHIBC@cannot?5dereference?5string?5itera@
   3A93A4 ??_C@_0FH@KCFLMCOM@compareMetaDataTableEqualLabel?3@
   3A93A4 ??_C@_0FI@IKLNLOCD@compareMetaDataTableEqualLabel?5@
   3A93A4 ??_C@_0GG@NEGGIBJL@c?3?2program?5files?5?$CIx86?$CJ?2microsof@
   3A93A4 ??_C@_0GJ@EJIMBHLG@c?3?2program?5files?5?$CIx86?$CJ?2microsof@
   3A93A4 ??_C@_0IC@DGJDAAEM@cannot?5dereference?5string?5itera@
   3A93A4 ??_C@_1BAA@HGGAMDGB@?$AAs?$AAt?$AAd?$AA?3?$AA?3?$AA_?$AAV?$AAe?$AAc?$AAt?$AAo?$AAr?$AA_?$AAc?$AAo@
   3A93A4 ??_C@_1BAC@DBNGPINH@?$AAs?$AAt?$AAd?$AA?3?$AA?3?$AA_?$AAV?$AAe?$AAc?$AAt?$AAo?$AAr?$AA_?$AAc?$AAo@
   3A93A4 ??_C@_1BAC@MCOEEEBG@?$AAs?$AAt?$AAd?$AA?3?$AA?3?$AA_?$AAV?$AAe?$AAc?$AAt?$AAo?$AAr?$AA_?$AAc?$AAo@
   3A93A4 ??_C@_1BAI@PAACAGOO@?$AAs?$AAt?$AAd?$AA?3?$AA?3?$AA_?$AAV?$AAe?$AAc?$AAt?$AAo?$AAr?$AA_?$AAc?$AAo@
   3A93A4 ??_C@_1BAO@BGLBIONH@?$AA?$CC?$AAc?$AAa?$AAn?$AAn?$AAo?$AAt?$AA?5?$AAd?$AAe?$AAr?$AAe?$AAf?$AAe?$AAr@
   3A93A4 ??_C@_1BCM@ONOOHPJG@?$AAs?$AAt?$AAd?$AA?3?$AA?3?$AA_?$AAT?$AAr?$AAe?$AAe?$AA_?$AAc?$AAo?$AAn?$AAs@
   3A93A4 ??_C@_1BCO@FLMOFHEF@?$AAs?$AAt?$AAd?$AA?3?$AA?3?$AA_?$AAT?$AAr?$AAe?$AAe?$AA_?$AAc?$AAo?$AAn?$AAs@
   3A93A4 ??_C@_1BCO@PLDDLOIA@?$AAs?$AAt?$AAd?$AA?3?$AA?3?$AA_?$AAT?$AAr?$AAe?$AAe?$AA_?$AAc?$AAo?$AAn?$AAs@
   3A93A4 ??_C@_1BIC@OMDNKJGJ@?$AAs?$AAt?$AAd?$AA?3?$AA?3?$AA_?$AAT?$AAr?$AAe?$AAe?$AA?$DM?$AAc?$AAl?$AAa?$AAs@
   3A93A4 ??_C@_1CG@LJCPDKEJ@?$AAs?$AAt?$AAd?$AA?3?$AA?3?$AA_?$AAV?$AAe?$AAr?$AAi?$AAf?$AAy?$AA_?$AAr?$AAa@
   3A93A4 ??_C@_1CI@JONCLBEJ@?$AAs?$AAt?$AAd?$AA?3?$AA?3?$AA_?$AAD?$AAe?$AAb?$AAu?$AAg?$AA_?$AAl?$AAt?$AA_@
   3A93A4 ??_C@_1CK@NDNHPKPI@?$AA?$CC?$AAi?$AAn?$AAv?$AAa?$AAl?$AAi?$AAd?$AA?5?$AAc?$AAo?$AAm?$AAp?$AAa?$AAr@
   3A93A4 ??_C@_1DG@FJIKMGFD@?$AA?$CC?$AAt?$AAr?$AAa?$AAn?$AAs?$AAp?$AAo?$AAs?$AAe?$AAd?$AA?5?$AAp?$AAo?$AAi@
   3A93A4 ??_C@_1DG@PLBPCAEM@?$AA?$CC?$AAI?$AAT?$AAE?$AAR?$AAA?$AAT?$AAO?$AAR?$AA?5?$AAL?$AAI?$AAS?$AAT?$AA?5@
   3A93A4 ??_C@_1EA@DJDGNIII@?$AA?$CC?$AAv?$AAe?$AAc?$AAt?$AAo?$AAr?$AA?5?$AAi?$AAt?$AAe?$AAr?$AAa?$AAt?$AAo@
   3A93A4 ??_C@_1EC@JLIDLCDH@?$AA?$CC?$AAm?$AAa?$AAp?$AA?1?$AAs?$AAe?$AAt?$AA?5?$AAi?$AAt?$AAe?$AAr?$AAa?$AAt@
   3A93A4 ??_C@_1EE@KLDMFDFL@?$AAs?$AAt?$AAd?$AA?3?$AA?3?$AA_?$AAI?$AAt?$AAe?$AAr?$AAa?$AAt?$AAo?$AAr?$AA_@
   3A93A4 ??_C@_1EG@ODKBEHFN@?$AA?$CC?$AAv?$AAe?$AAc?$AAt?$AAo?$AAr?$AA?5?$AAi?$AAt?$AAe?$AAr?$AAa?$AAt?$AAo@
   3A93A4 ??_C@_1EM@BEMPOGMM@?$AA?$CC?$AAv?$AAe?$AAc?$AAt?$AAo?$AAr?$AA?5?$AAe?$AAr?$AAa?$AAs?$AAe?$AA?5?$AAi@
   3A93A4 ??_C@_1EO@CEDAEPC@?$AA?$CC?$AAm?$AAa?$AAp?$AA?1?$AAs?$AAe?$AAt?$AA?5?$AAe?$AAr?$AAa?$AAs?$AAe?$AA?5@
   3A93A4 ??_C@_1FA@KLFCDGNE@?$AA?$CC?$AAc?$AAa?$AAn?$AAn?$AAo?$AAt?$AA?5?$AAi?$AAn?$AAc?$AAr?$AAe?$AAm?$AAe@
   3A93A4 ??_C@_1FA@LCODAPOP@?$AA?$CC?$AAc?$AAa?$AAn?$AAn?$AAo?$AAt?$AA?5?$AAs?$AAe?$AAe?$AAk?$AA?5?$AAv?$AAe@
   3A93A4 ??_C@_1FE@NKHAAGMB@?$AA?$CC?$AAc?$AAa?$AAn?$AAn?$AAo?$AAt?$AA?5?$AAd?$AAe?$AAr?$AAe?$AAf?$AAe?$AAr@
   3A93A4 ??_C@_1FG@JCGKNFIB@?$AA?$CC?$AAc?$AAa?$AAn?$AAn?$AAo?$AAt?$AA?5?$AAs?$AAe?$AAe?$AAk?$AA?5?$AAv?$AAe@
   3A93A4 ??_C@_1FG@LDPPKMGP@?$AA?$CC?$AAc?$AAa?$AAn?$AA?8?$AAt?$AA?5?$AAi?$AAn?$AAc?$AAr?$AAe?$AAm?$AAe?$AAn@
   3A93A4 ??_C@_1FO@POFEDLP@?$AA?$CC?$AAc?$AAa?$AAn?$AA?8?$AAt?$AA?5?$AAd?$AAe?$AAc?$AAr?$AAe?$AAm?$AAe?$AAn@
   3A93A4 ??_C@_1GA@EIHBFEJD@?$AA?$CC?$AAc?$AAa?$AAn?$AAn?$AAo?$AAt?$AA?5?$AAs?$AAe?$AAe?$AAk?$AA?5?$AAv?$AAa@
   3A93A4 ??_C@_1GC@JDCKOLAC@?$AA?$CC?$AAc?$AAa?$AAn?$AA?8?$AAt?$AA?5?$AAd?$AAe?$AAr?$AAe?$AAf?$AAe?$AAr?$AAe@
   3A93A4 ??_C@_1GI@EDCILPL@?$AA?$CC?$AAc?$AAa?$AAn?$AA?8?$AAt?$AA?5?$AAi?$AAn?$AAc?$AAr?$AAe?$AAm?$AAe?$AAn@
   3A93A4 ??_C@_1GI@IDMAFNCG@?$AA?$CC?$AAc?$AAa?$AAn?$AA?8?$AAt?$AA?5?$AAd?$AAe?$AAc?$AAr?$AAe?$AAm?$AAe?$AAn@
   3A93A4 ??_C@_1GM@BJMCGEGI@?$AA?$CC?$AAc?$AAa?$AAn?$AAn?$AAo?$AAt?$AA?5?$AAi?$AAn?$AAc?$AAr?$AAe?$AAm?$AAe@
   3A93A4 ??_C@_1GM@FNBFNBEL@?$AA?$CC?$AAc?$AAa?$AAn?$AA?8?$AAt?$AA?5?$AAd?$AAe?$AAr?$AAe?$AAf?$AAe?$AAr?$AAe@
   3A93A4 ??_C@_1GO@PNALIMBD@?$AA?$CC?$AAc?$AAa?$AAn?$AAn?$AAo?$AAt?$AA?5?$AAd?$AAe?$AAr?$AAe?$AAf?$AAe?$AAr@
   3A93A4 ??_C@_1HA@ILGCNILF@?$AA?$CC?$AAc?$AAa?$AAn?$AAn?$AAo?$AAt?$AA?5?$AAd?$AAe?$AAr?$AAe?$AAf?$AAe?$AAr@
   3A93A4 ??_C@_1HE@KBMFDAFB@?$AA?$CC?$AAv?$AAe?$AAc?$AAt?$AAo?$AAr?$AA?5?$AAi?$AAt?$AAe?$AAr?$AAa?$AAt?$AAo@
   3A93A4 ??_C@_1HG@JAEFIGNN@?$AAs?$AAt?$AAd?$AA?3?$AA?3?$AAv?$AAe?$AAc?$AAt?$AAo?$AAr?$AA?$DM?$AAl?$AAo?$AAn@
   3A93A4 ??_C@_1KO@CMPBFHAM@?$AA?$CC?$AAc?$AAa?$AAn?$AAn?$AAo?$AAt?$AA?5?$AAd?$AAe?$AAr?$AAe?$AAf?$AAe?$AAr@
   3A93A4 ??_C@_1KO@MOJKOLCB@?$AAs?$AAt?$AAd?$AA?3?$AA?3?$AAv?$AAe?$AAc?$AAt?$AAo?$AAr?$AA?$DM?$AAe?$AAn?$AAu@
   3A93A4 ??_C@_1LK@IMAFIMBP@?$AAs?$AAt?$AAd?$AA?3?$AA?3?$AAv?$AAe?$AAc?$AAt?$AAo?$AAr?$AA?$DM?$AAe?$AAn?$AAu@
   3A93A4 ??_C@_1MG@GDGHDIKC@?$AAs?$AAt?$AAd?$AA?3?$AA?3?$AA_?$AAS?$AAt?$AAr?$AAi?$AAn?$AAg?$AA_?$AAc?$AAo@
   3A93A4 ??_C@_1MM@GNDNJPBP@?$AAc?$AA?3?$AA?2?$AAp?$AAr?$AAo?$AAg?$AAr?$AAa?$AAm?$AA?5?$AAf?$AAi?$AAl?$AAe@
   3A93A4 ??_C@_1NA@KDANOKNP@?$AAs?$AAt?$AAd?$AA?3?$AA?3?$AA_?$AAV?$AAe?$AAc?$AAt?$AAo?$AAr?$AA_?$AAc?$AAo@
   3A93A4 ??_C@_1NC@FANNPLN@?$AAc?$AA?3?$AA?2?$AAp?$AAr?$AAo?$AAg?$AAr?$AAa?$AAm?$AA?5?$AAf?$AAi?$AAl?$AAe@
   3A93A4 ??_C@_1NO@IHMOKPEG@?$AAs?$AAt?$AAd?$AA?3?$AA?3?$AAv?$AAe?$AAc?$AAt?$AAo?$AAr?$AA?$DM?$AAc?$AAl?$AAa@
   3A93A4 ??_C@_1OC@IGMKDIMM@?$AAs?$AAt?$AAd?$AA?3?$AA?3?$AA_?$AAV?$AAe?$AAc?$AAt?$AAo?$AAr?$AA_?$AAc?$AAo@
   3A93A4 ??_C@_1OE@BAPCAKME@?$AAs?$AAt?$AAd?$AA?3?$AA?3?$AA_?$AAT?$AAr?$AAe?$AAe?$AA_?$AAv?$AAa?$AAl?$AA?$DM@
   3A93A4 ??_C@_1OI@JDJOFHPN@?$AAs?$AAt?$AAd?$AA?3?$AA?3?$AA_?$AAV?$AAe?$AAc?$AAt?$AAo?$AAr?$AA_?$AAc?$AAo@
   3A93A4 ??_C@_1OK@HEJAPAJL@?$AAs?$AAt?$AAd?$AA?3?$AA?3?$AAv?$AAe?$AAc?$AAt?$AAo?$AAr?$AA?$DM?$AAc?$AAl?$AAa@
   3A93A4 ??_C@_1OK@OIHCDDKD@?$AAs?$AAt?$AAd?$AA?3?$AA?3?$AA_?$AAV?$AAe?$AAc?$AAt?$AAo?$AAr?$AA_?$AAc?$AAo@
   3A93A4 ??_C@_1PK@BMGLEIPL@?$AAs?$AAt?$AAd?$AA?3?$AA?3?$AA_?$AAV?$AAe?$AAc?$AAt?$AAo?$AAr?$AA_?$AAc?$AAo@
   3A93A4 ??_D?$basic_ifstream@DU?$char_traits@D@std@@@std@@QEAAXXZ
   3A93A4 ??_D?$basic_ofstream@DU?$char_traits@D@std@@@std@@QEAAXXZ
   3A93A4 ??_D?$basic_stringstream@DU?$char_traits@D@std@@V?$allocator@D@2@@std@@QEAAXXZ
   3A93A4 ??_E?$basic_ifstream@DU?$char_traits@D@std@@@std@@$4PPPPPPPM@A@EAAPEAXI@Z
   3A93A4 ??_E?$basic_ofstream@DU?$char_traits@D@std@@@std@@$4PPPPPPPM@A@EAAPEAXI@Z
   3A93A4 ??_E?$basic_stringstream@DU?$char_traits@D@std@@V?$allocator@D@2@@std@@$4PPPPPPPM@A@EAAPEAXI@Z
   3A93A4 ??_G?$basic_filebuf@DU?$char_traits@D@std@@@std@@UEAAPEAXI@Z
   3A93A4 ??_G?$basic_ifstream@DU?$char_traits@D@std@@@std@@UEAAPEAXI@Z
   3A93A4 ??_G?$basic_ofstream@DU?$char_traits@D@std@@@std@@UEAAPEAXI@Z
   3A93A4 ??_G?$basic_stringstream@DU?$char_traits@D@std@@V?$allocator@D@2@@std@@UEAAPEAXI@Z
   3A93A4 ??_GMetaDataContainer@relion@@QEAAPEAXI@Z
   3A93A4 ??_Gbad_cast@std@@UEAAPEAXI@Z
   3A93A4 ??_Gexception@std@@UEAAPEAXI@Z
   3A93A4 ??_R0?AV?$basic_filebuf@DU?$char_traits@D@std@@@std@@@8
   3A93A4 ??_R0?AV?$basic_ifstream@DU?$char_traits@D@std@@@std@@@8
   3A93A4 ??_R0?AV?$basic_iostream@DU?$char_traits@D@std@@@std@@@8
   3A93A4 ??_R0?AV?$basic_istream@DU?$char_traits@D@std@@@std@@@8
   3A93A4 ??_R0?AV?$basic_ofstream@DU?$char_traits@D@std@@@std@@@8
   3A93A4 ??_R0?AV?$basic_stringstream@DU?$char_traits@D@std@@V?$allocator@D@2@@std@@@8
   3A93A4 ??_R0?AVbad_cast@std@@@8
   3A93A4 ??_R0?AVexception@std@@@8
   3A93A4 ??_R1A@?0A@EA@?$basic_filebuf@DU?$char_traits@D@std@@@std@@8
   3A93A4 ??_R1A@?0A@EA@?$basic_ifstream@DU?$char_traits@D@std@@@std@@8
   3A93A4 ??_R1A@?0A@EA@?$basic_iostream@DU?$char_traits@D@std@@@std@@8
   3A93A4 ??_R1A@?0A@EA@?$basic_istream@DU?$char_traits@D@std@@@std@@8
   3A93A4 ??_R1A@?0A@EA@?$basic_ofstream@DU?$char_traits@D@std@@@std@@8
   3A93A4 ??_R1A@?0A@EA@?$basic_stringstream@DU?$char_traits@D@std@@V?$allocator@D@2@@std@@8
   3A93A4 ??_R1A@?0A@EA@bad_cast@std@@8
   3A93A4 ??_R1A@?0A@EA@exception@std@@8
   3A93A4 ??_R1BA@?0A@EA@?$basic_ostream@DU?$char_traits@D@std@@@std@@8
   3A93A4 ??_R2?$basic_filebuf@DU?$char_traits@D@std@@@std@@8
   3A93A4 ??_R2?$basic_ifstream@DU?$char_traits@D@std@@@std@@8
   3A93A4 ??_R2?$basic_iostream@DU?$char_traits@D@std@@@std@@8
   3A93A4 ??_R2?$basic_istream@DU?$char_traits@D@std@@@std@@8
   3A93A4 ??_R2?$basic_ofstream@DU?$char_traits@D@std@@@std@@8
   3A93A4 ??_R2?$basic_stringstream@DU?$char_traits@D@std@@V?$allocator@D@2@@std@@8
   3A93A4 ??_R2bad_cast@std@@8
   3A93A4 ??_R2exception@std@@8
   3A93A4 ??_R3?$basic_filebuf@DU?$char_traits@D@std@@@std@@8
   3A93A4 ??_R3?$basic_ifstream@DU?$char_traits@D@std@@@std@@8
   3A93A4 ??_R3?$basic_iostream@DU?$char_traits@D@std@@@std@@8
   3A93A4 ??_R3?$basic_istream@DU?$char_traits@D@std@@@std@@8
   3A93A4 ??_R3?$basic_ofstream@DU?$char_traits@D@std@@@std@@8
   3A93A4 ??_R3?$basic_stringstream@DU?$char_traits@D@std@@V?$allocator@D@2@@std@@8
   3A93A4 ??_R3bad_cast@std@@8
   3A93A4 ??_R3exception@std@@8
   3A93A4 ??_R4?$basic_filebuf@DU?$char_traits@D@std@@@std@@6B@
   3A93A4 ??_R4?$basic_ifstream@DU?$char_traits@D@std@@@std@@6B@
   3A93A4 ??_R4?$basic_ofstream@DU?$char_traits@D@std@@@std@@6B@
   3A93A4 ??_R4?$basic_stringstream@DU?$char_traits@D@std@@V?$allocator@D@2@@std@@6B@
   3A93A4 ??_R4bad_cast@std@@6B@
   3A93A4 ??_R4exception@std@@6B@
   3A93A4 ?_Adopt@_Iterator_base12@std@@QEAAXPEBU_Container_base12@2@@Z
   3A93A4 ?_Alloc_proxy@?$_Tree_comp_alloc@V?$_Tmap_traits@W4EMDLabel@relion@@PEAXU?$less@W4EMDLabel@relion@@@std@@V?$allocator@U?$pair@$$CBW4EMDLabel@relion@@PEAX@std@@@4@$0A@@std@@@std@@QEAAXXZ
   3A93A4 ?_Alloc_proxy@?$_Vector_alloc@U?$_Vec_base_types@IV?$allocator@I@std@@@std@@@std@@QEAAXXZ
   3A93A4 ?_Alloc_proxy@?$_Vector_alloc@U?$_Vec_base_types@JV?$allocator@J@std@@@std@@@std@@QEAAXXZ
   3A93A4 ?_Alloc_proxy@?$_Vector_alloc@U?$_Vec_base_types@PEAVMetaDataContainer@relion@@V?$allocator@PEAVMetaDataContainer@relion@@@std@@@std@@@std@@QEAAXXZ
   3A93A4 ?_Alloc_proxy@?$_Vector_alloc@U?$_Vec_base_types@W4EMDLabel@relion@@V?$allocator@W4EMDLabel@relion@@@std@@@std@@@std@@QEAAXXZ
   3A93A4 ?_Buy@?$vector@W4EMDLabel@relion@@V?$allocator@W4EMDLabel@relion@@@std@@@std@@AEAA_N_K@Z
   3A93A4 ?_Buyheadnode@?$_Tree_comp_alloc@V?$_Tmap_traits@W4EMDLabel@relion@@PEAXU?$less@W4EMDLabel@relion@@@std@@V?$allocator@U?$pair@$$CBW4EMDLabel@relion@@PEAX@std@@@4@$0A@@std@@@std@@QEAAPEAU?$_Tree_node@U?$pair@$$CBW4EMDLabel@relion@@PEAX@std@@PEAX@2@XZ
   3A93A4 ?_Calculate_growth@?$vector@IV?$allocator@I@std@@@std@@AEBA_K_K@Z
   3A93A4 ?_Calculate_growth@?$vector@JV?$allocator@J@std@@@std@@AEBA_K_K@Z
   3A93A4 ?_Calculate_growth@?$vector@PEAVMetaDataContainer@relion@@V?$allocator@PEAVMetaDataContainer@relion@@@std@@@std@@AEBA_K_K@Z
   3A93A4 ?_Calculate_growth@?$vector@W4EMDLabel@relion@@V?$allocator@W4EMDLabel@relion@@@std@@@std@@AEBA_K_K@Z
   3A93A4 ?_Change_array@?$vector@IV?$allocator@I@std@@@std@@AEAAXQEAI_K1@Z
   3A93A4 ?_Change_array@?$vector@JV?$allocator@J@std@@@std@@AEAAXQEAJ_K1@Z
   3A93A4 ?_Change_array@?$vector@PEAVMetaDataContainer@relion@@V?$allocator@PEAVMetaDataContainer@relion@@@std@@@std@@AEAAXQEAPEAVMetaDataContainer@relion@@_K1@Z
   3A93A4 ?_Change_array@?$vector@W4EMDLabel@relion@@V?$allocator@W4EMDLabel@relion@@@std@@@std@@AEAAXQEAW4EMDLabel@relion@@_K1@Z
   3A93A4 ?_Compat@?$_Vector_const_iterator@V?$_Vector_val@U?$_Simple_types@I@std@@@std@@@std@@QEBAXAEBV12@@Z
   3A93A4 ?_Compat@?$_Vector_const_iterator@V?$_Vector_val@U?$_Simple_types@PEAVMetaDataContainer@relion@@@std@@@std@@@std@@QEBAXAEBV12@@Z
   3A93A4 ?_Compat@?$_Vector_const_iterator@V?$_Vector_val@U?$_Simple_types@W4EMDLabel@relion@@@std@@@std@@@std@@QEBAXAEBV12@@Z
   3A93A4 ?_Construct@?$_Tree_comp_alloc@V?$_Tmap_traits@W4EMDLabel@relion@@PEAXU?$less@W4EMDLabel@relion@@@std@@V?$allocator@U?$pair@$$CBW4EMDLabel@relion@@PEAX@std@@@4@$0A@@std@@@std@@QEAAXXZ
   3A93A4 ?_Copy_alloc@?$_Vector_alloc@U?$_Vec_base_types@W4EMDLabel@relion@@V?$allocator@W4EMDLabel@relion@@@std@@@std@@@std@@QEAAXAEBV?$allocator@W4EMDLabel@relion@@@2@@Z
   3A93A4 ?_Destroy@?$vector@IV?$allocator@I@std@@@std@@AEAAXPEAI0@Z
   3A93A4 ?_Destroy@?$vector@JV?$allocator@J@std@@@std@@AEAAXPEAJ0@Z
   3A93A4 ?_Destroy@?$vector@PEAVMetaDataContainer@relion@@V?$allocator@PEAVMetaDataContainer@relion@@@std@@@std@@AEAAXPEAPEAVMetaDataContainer@relion@@0@Z
   3A93A4 ?_Destroy@?$vector@W4EMDLabel@relion@@V?$allocator@W4EMDLabel@relion@@@std@@@std@@AEAAXPEAW4EMDLabel@relion@@0@Z
   3A93A4 ?_Endwrite@?$basic_filebuf@DU?$char_traits@D@std@@@std@@IEAA_NXZ
   3A93A4 ?_Equal@?$basic_string@DU?$char_traits@D@std@@V?$allocator@D@2@@std@@QEBA_NAEBV12@@Z
   3A93A4 ?_Erase@?$_Tree@V?$_Tmap_traits@W4EMDLabel@relion@@PEAXU?$less@W4EMDLabel@relion@@@std@@V?$allocator@U?$pair@$$CBW4EMDLabel@relion@@PEAX@std@@@4@$0A@@std@@@std@@IEAAXPEAU?$_Tree_node@U?$pair@$$CBW4EMDLabel@relion@@PEAX@std@@PEAX@2@@Z
   3A93A4 ?_Extract@?$_Tree_val@U?$_Tree_simple_types@U?$pair@$$CBW4EMDLabel@relion@@PEAX@std@@@std@@@std@@QEAAPEAU?$_Tree_node@U?$pair@$$CBW4EMDLabel@relion@@PEAX@std@@PEAX@2@V?$_Tree_const_iterator@V?$_Tree_val@U?$_Tree_simple_types@U?$pair@$$CBW4EMDLabel@relion@@PEAX@std@@@std@@@std@@@2@@Z
   3A93A4 ?_Free_proxy@?$_Tree_comp_alloc@V?$_Tmap_traits@W4EMDLabel@relion@@PEAXU?$less@W4EMDLabel@relion@@@std@@V?$allocator@U?$pair@$$CBW4EMDLabel@relion@@PEAX@std@@@4@$0A@@std@@@std@@QEAAXXZ
   3A93A4 ?_Free_proxy@?$_Vector_alloc@U?$_Vec_base_types@IV?$allocator@I@std@@@std@@@std@@QEAAXXZ
   3A93A4 ?_Free_proxy@?$_Vector_alloc@U?$_Vec_base_types@JV?$allocator@J@std@@@std@@@std@@QEAAXXZ
   3A93A4 ?_Free_proxy@?$_Vector_alloc@U?$_Vec_base_types@PEAVMetaDataContainer@relion@@V?$allocator@PEAVMetaDataContainer@relion@@@std@@@std@@@std@@QEAAXXZ
   3A93A4 ?_Free_proxy@?$_Vector_alloc@U?$_Vec_base_types@W4EMDLabel@relion@@V?$allocator@W4EMDLabel@relion@@@std@@@std@@@std@@QEAAXXZ
   3A93A4 ?_Freeheadnode@?$_Tree_comp_alloc@V?$_Tmap_traits@W4EMDLabel@relion@@PEAXU?$less@W4EMDLabel@relion@@@std@@V?$allocator@U?$pair@$$CBW4EMDLabel@relion@@PEAX@std@@@4@$0A@@std@@@std@@QEAAXPEAU?$_Tree_node@U?$pair@$$CBW4EMDLabel@relion@@PEAX@std@@PEAX@2@@Z
   3A93A4 ?_Get_data@?$_Tree_comp_alloc@V?$_Tmap_traits@W4EMDLabel@relion@@PEAXU?$less@W4EMDLabel@relion@@@std@@V?$allocator@U?$pair@$$CBW4EMDLabel@relion@@PEAX@std@@@4@$0A@@std@@@std@@QEAAAEAV?$_Tree_val@U?$_Tree_simple_types@U?$pair@$$CBW4EMDLabel@relion@@PEAX@std@@@std@@@2@XZ
   3A93A4 ?_Get_data@?$_Tree_comp_alloc@V?$_Tmap_traits@W4EMDLabel@relion@@PEAXU?$less@W4EMDLabel@relion@@@std@@V?$allocator@U?$pair@$$CBW4EMDLabel@relion@@PEAX@std@@@4@$0A@@std@@@std@@QEBAAEBV?$_Tree_val@U?$_Tree_simple_types@U?$pair@$$CBW4EMDLabel@relion@@PEAX@std@@@std@@@2@XZ
   3A93A4 ?_Get_data@?$_Vector_alloc@U?$_Vec_base_types@IV?$allocator@I@std@@@std@@@std@@QEAAAEAV?$_Vector_val@U?$_Simple_types@I@std@@@2@XZ
   3A93A4 ?_Get_data@?$_Vector_alloc@U?$_Vec_base_types@IV?$allocator@I@std@@@std@@@std@@QEBAAEBV?$_Vector_val@U?$_Simple_types@I@std@@@2@XZ
   3A93A4 ?_Get_data@?$_Vector_alloc@U?$_Vec_base_types@JV?$allocator@J@std@@@std@@@std@@QEAAAEAV?$_Vector_val@U?$_Simple_types@J@std@@@2@XZ
   3A93A4 ?_Get_data@?$_Vector_alloc@U?$_Vec_base_types@JV?$allocator@J@std@@@std@@@std@@QEBAAEBV?$_Vector_val@U?$_Simple_types@J@std@@@2@XZ
   3A93A4 ?_Get_data@?$_Vector_alloc@U?$_Vec_base_types@PEAVMetaDataContainer@relion@@V?$allocator@PEAVMetaDataContainer@relion@@@std@@@std@@@std@@QEAAAEAV?$_Vector_val@U?$_Simple_types@PEAVMetaDataContainer@relion@@@std@@@2@XZ
   3A93A4 ?_Get_data@?$_Vector_alloc@U?$_Vec_base_types@PEAVMetaDataContainer@relion@@V?$allocator@PEAVMetaDataContainer@relion@@@std@@@std@@@std@@QEBAAEBV?$_Vector_val@U?$_Simple_types@PEAVMetaDataContainer@relion@@@std@@@2@XZ
   3A93A4 ?_Get_data@?$_Vector_alloc@U?$_Vec_base_types@W4EMDLabel@relion@@V?$allocator@W4EMDLabel@relion@@@std@@@std@@@std@@QEAAAEAV?$_Vector_val@U?$_Simple_types@W4EMDLabel@relion@@@std@@@2@XZ
   3A93A4 ?_Get_data@?$_Vector_alloc@U?$_Vec_base_types@W4EMDLabel@relion@@V?$allocator@W4EMDLabel@relion@@@std@@@std@@@std@@QEBAAEBV?$_Vector_val@U?$_Simple_types@W4EMDLabel@relion@@@std@@@2@XZ
   3A93A4 ?_Get_first@?$_Compressed_pair@U?$default_delete@V_Facet_base@std@@@std@@PEAV_Facet_base@2@$00@std@@QEAAAEAU?$default_delete@V_Facet_base@std@@@2@XZ
   3A93A4 ?_Get_first@?$_Compressed_pair@V?$allocator@I@std@@V?$_Vector_val@U?$_Simple_types@I@std@@@2@$00@std@@QEAAAEAV?$allocator@I@2@XZ
   3A93A4 ?_Get_first@?$_Compressed_pair@V?$allocator@I@std@@V?$_Vector_val@U?$_Simple_types@I@std@@@2@$00@std@@QEBAAEBV?$allocator@I@2@XZ
   3A93A4 ?_Get_first@?$_Compressed_pair@V?$allocator@J@std@@V?$_Vector_val@U?$_Simple_types@J@std@@@2@$00@std@@QEAAAEAV?$allocator@J@2@XZ
   3A93A4 ?_Get_first@?$_Compressed_pair@V?$allocator@J@std@@V?$_Vector_val@U?$_Simple_types@J@std@@@2@$00@std@@QEBAAEBV?$allocator@J@2@XZ
   3A93A4 ?_Get_first@?$_Compressed_pair@V?$allocator@PEAVMetaDataContainer@relion@@@std@@V?$_Vector_val@U?$_Simple_types@PEAVMetaDataContainer@relion@@@std@@@2@$00@std@@QEAAAEAV?$allocator@PEAVMetaDataContainer@relion@@@2@XZ
   3A93A4 ?_Get_first@?$_Compressed_pair@V?$allocator@PEAVMetaDataContainer@relion@@@std@@V?$_Vector_val@U?$_Simple_types@PEAVMetaDataContainer@relion@@@std@@@2@$00@std@@QEBAAEBV?$allocator@PEAVMetaDataContainer@relion@@@2@XZ
   3A93A4 ?_Get_first@?$_Compressed_pair@V?$allocator@U?$_Tree_node@U?$pair@$$CBW4EMDLabel@relion@@PEAX@std@@PEAX@std@@@std@@V?$_Tree_val@U?$_Tree_simple_types@U?$pair@$$CBW4EMDLabel@relion@@PEAX@std@@@std@@@2@$00@std@@QEAAAEAV?$allocator@U?$_Tree_node@U?$pair@$$CBW4EMDLabel@relion@@PEAX@std@@PEAX@std@@@2@XZ
   3A93A4 ?_Get_first@?$_Compressed_pair@V?$allocator@W4EMDLabel@relion@@@std@@V?$_Vector_val@U?$_Simple_types@W4EMDLabel@relion@@@std@@@2@$00@std@@QEAAAEAV?$allocator@W4EMDLabel@relion@@@2@XZ
   3A93A4 ?_Get_first@?$_Compressed_pair@V?$allocator@W4EMDLabel@relion@@@std@@V?$_Vector_val@U?$_Simple_types@W4EMDLabel@relion@@@std@@@2@$00@std@@QEBAAEBV?$allocator@W4EMDLabel@relion@@@2@XZ
   3A93A4 ?_Get_second@?$_Compressed_pair@U?$default_delete@V_Facet_base@std@@@std@@PEAV_Facet_base@2@$00@std@@QEAAAEAPEAV_Facet_base@2@XZ
   3A93A4 ?_Get_second@?$_Compressed_pair@U?$default_delete@V_Facet_base@std@@@std@@PEAV_Facet_base@2@$00@std@@QEBAAEBQEAV_Facet_base@2@XZ
   3A93A4 ?_Get_second@?$_Compressed_pair@U?$less@W4EMDLabel@relion@@@std@@V?$_Compressed_pair@V?$allocator@U?$_Tree_node@U?$pair@$$CBW4EMDLabel@relion@@PEAX@std@@PEAX@std@@@std@@V?$_Tree_val@U?$_Tree_simple_types@U?$pair@$$CBW4EMDLabel@relion@@PEAX@std@@@std@@@2@$00@2@$00@std@@QEAAAEAV?$_Compressed_pair@V?$allocator@U?$_Tree_node@U?$pair@$$CBW4EMDLabel@relion@@PEAX@std@@PEAX@std@@@std@@V?$_Tree_val@U?$_Tree_simple_types@U?$pair@$$CBW4EMDLabel@relion@@PEAX@std@@@std@@@2@$00@2@XZ
   3A93A4 ?_Get_second@?$_Compressed_pair@U?$less@W4EMDLabel@relion@@@std@@V?$_Compressed_pair@V?$allocator@U?$_Tree_node@U?$pair@$$CBW4EMDLabel@relion@@PEAX@std@@PEAX@std@@@std@@V?$_Tree_val@U?$_Tree_simple_types@U?$pair@$$CBW4EMDLabel@relion@@PEAX@std@@@std@@@2@$00@2@$00@std@@QEBAAEBV?$_Compressed_pair@V?$allocator@U?$_Tree_node@U?$pair@$$CBW4EMDLabel@relion@@PEAX@std@@PEAX@std@@@std@@V?$_Tree_val@U?$_Tree_simple_types@U?$pair@$$CBW4EMDLabel@relion@@PEAX@std@@@std@@@2@$00@2@XZ
   3A93A4 ?_Get_second@?$_Compressed_pair@V?$allocator@I@std@@V?$_Vector_val@U?$_Simple_types@I@std@@@2@$00@std@@QEAAAEAV?$_Vector_val@U?$_Simple_types@I@std@@@2@XZ
   3A93A4 ?_Get_second@?$_Compressed_pair@V?$allocator@I@std@@V?$_Vector_val@U?$_Simple_types@I@std@@@2@$00@std@@QEBAAEBV?$_Vector_val@U?$_Simple_types@I@std@@@2@XZ
   3A93A4 ?_Get_second@?$_Compressed_pair@V?$allocator@J@std@@V?$_Vector_val@U?$_Simple_types@J@std@@@2@$00@std@@QEAAAEAV?$_Vector_val@U?$_Simple_types@J@std@@@2@XZ
   3A93A4 ?_Get_second@?$_Compressed_pair@V?$allocator@J@std@@V?$_Vector_val@U?$_Simple_types@J@std@@@2@$00@std@@QEBAAEBV?$_Vector_val@U?$_Simple_types@J@std@@@2@XZ
   3A93A4 ?_Get_second@?$_Compressed_pair@V?$allocator@PEAVMetaDataContainer@relion@@@std@@V?$_Vector_val@U?$_Simple_types@PEAVMetaDataContainer@relion@@@std@@@2@$00@std@@QEAAAEAV?$_Vector_val@U?$_Simple_types@PEAVMetaDataContainer@relion@@@std@@@2@XZ
   3A93A4 ?_Get_second@?$_Compressed_pair@V?$allocator@PEAVMetaDataContainer@relion@@@std@@V?$_Vector_val@U?$_Simple_types@PEAVMetaDataContainer@relion@@@std@@@2@$00@std@@QEBAAEBV?$_Vector_val@U?$_Simple_types@PEAVMetaDataContainer@relion@@@std@@@2@XZ
   3A93A4 ?_Get_second@?$_Compressed_pair@V?$allocator@U?$_Tree_node@U?$pair@$$CBW4EMDLabel@relion@@PEAX@std@@PEAX@std@@@std@@V?$_Tree_val@U?$_Tree_simple_types@U?$pair@$$CBW4EMDLabel@relion@@PEAX@std@@@std@@@2@$00@std@@QEAAAEAV?$_Tree_val@U?$_Tree_simple_types@U?$pair@$$CBW4EMDLabel@relion@@PEAX@std@@@std@@@2@XZ
   3A93A4 ?_Get_second@?$_Compressed_pair@V?$allocator@U?$_Tree_node@U?$pair@$$CBW4EMDLabel@relion@@PEAX@std@@PEAX@std@@@std@@V?$_Tree_val@U?$_Tree_simple_types@U?$pair@$$CBW4EMDLabel@relion@@PEAX@std@@@std@@@2@$00@std@@QEBAAEBV?$_Tree_val@U?$_Tree_simple_types@U?$pair@$$CBW4EMDLabel@relion@@PEAX@std@@@std@@@2@XZ
   3A93A4 ?_Get_second@?$_Compressed_pair@V?$allocator@W4EMDLabel@relion@@@std@@V?$_Vector_val@U?$_Simple_types@W4EMDLabel@relion@@@std@@@2@$00@std@@QEAAAEAV?$_Vector_val@U?$_Simple_types@W4EMDLabel@relion@@@std@@@2@XZ
   3A93A4 ?_Get_second@?$_Compressed_pair@V?$allocator@W4EMDLabel@relion@@@std@@V?$_Vector_val@U?$_Simple_types@W4EMDLabel@relion@@@std@@@2@$00@std@@QEBAAEBV?$_Vector_val@U?$_Simple_types@W4EMDLabel@relion@@@std@@@2@XZ
   3A93A4 ?_Getal@?$_Tree_comp_alloc@V?$_Tmap_traits@W4EMDLabel@relion@@PEAXU?$less@W4EMDLabel@relion@@@std@@V?$allocator@U?$pair@$$CBW4EMDLabel@relion@@PEAX@std@@@4@$0A@@std@@@std@@QEAAAEAV?$allocator@U?$_Tree_node@U?$pair@$$CBW4EMDLabel@relion@@PEAX@std@@PEAX@std@@@2@XZ
   3A93A4 ?_Getal@?$_Vector_alloc@U?$_Vec_base_types@IV?$allocator@I@std@@@std@@@std@@QEAAAEAV?$allocator@I@2@XZ
   3A93A4 ?_Getal@?$_Vector_alloc@U?$_Vec_base_types@IV?$allocator@I@std@@@std@@@std@@QEBAAEBV?$allocator@I@2@XZ
   3A93A4 ?_Getal@?$_Vector_alloc@U?$_Vec_base_types@JV?$allocator@J@std@@@std@@@std@@QEAAAEAV?$allocator@J@2@XZ
   3A93A4 ?_Getal@?$_Vector_alloc@U?$_Vec_base_types@JV?$allocator@J@std@@@std@@@std@@QEBAAEBV?$allocator@J@2@XZ
   3A93A4 ?_Getal@?$_Vector_alloc@U?$_Vec_base_types@PEAVMetaDataContainer@relion@@V?$allocator@PEAVMetaDataContainer@relion@@@std@@@std@@@std@@QEAAAEAV?$allocator@PEAVMetaDataContainer@relion@@@2@XZ
   3A93A4 ?_Getal@?$_Vector_alloc@U?$_Vec_base_types@PEAVMetaDataContainer@relion@@V?$allocator@PEAVMetaDataContainer@relion@@@std@@@std@@@std@@QEBAAEBV?$allocator@PEAVMetaDataContainer@relion@@@2@XZ
   3A93A4 ?_Getal@?$_Vector_alloc@U?$_Vec_base_types@W4EMDLabel@relion@@V?$allocator@W4EMDLabel@relion@@@std@@@std@@@std@@QEAAAEAV?$allocator@W4EMDLabel@relion@@@2@XZ
   3A93A4 ?_Getal@?$_Vector_alloc@U?$_Vec_base_types@W4EMDLabel@relion@@V?$allocator@W4EMDLabel@relion@@@std@@@std@@@std@@QEBAAEBV?$allocator@W4EMDLabel@relion@@@2@XZ
   3A93A4 ?_Getcont@_Iterator_base12@std@@QEBAPEBU_Container_base12@2@XZ
   3A93A4 ?_Getfacet@locale@std@@QEBAPEBVfacet@12@_K@Z
   3A93A4 ?_Getpfirst@?$_Tree_comp_alloc@V?$_Tmap_traits@W4EMDLabel@relion@@PEAXU?$less@W4EMDLabel@relion@@@std@@V?$allocator@U?$pair@$$CBW4EMDLabel@relion@@PEAX@std@@@4@$0A@@std@@@std@@QEBAPEAPEAU_Iterator_base12@2@XZ
   3A93A4 ?_Getpfirst@?$_Vector_alloc@U?$_Vec_base_types@IV?$allocator@I@std@@@std@@@std@@QEBAPEAPEAU_Iterator_base12@2@XZ
   3A93A4 ?_Getpfirst@?$_Vector_alloc@U?$_Vec_base_types@JV?$allocator@J@std@@@std@@@std@@QEBAPEAPEAU_Iterator_base12@2@XZ
   3A93A4 ?_Getpfirst@?$_Vector_alloc@U?$_Vec_base_types@PEAVMetaDataContainer@relion@@V?$allocator@PEAVMetaDataContainer@relion@@@std@@@std@@@std@@QEBAPEAPEAU_Iterator_base12@2@XZ
   3A93A4 ?_Getpfirst@?$_Vector_alloc@U?$_Vec_base_types@W4EMDLabel@relion@@V?$allocator@W4EMDLabel@relion@@@std@@@std@@@std@@QEBAPEAPEAU_Iterator_base12@2@XZ
   3A93A4 ?_Has_unused_capacity@?$vector@IV?$allocator@I@std@@@std@@AEBA_NXZ
   3A93A4 ?_Has_unused_capacity@?$vector@JV?$allocator@J@std@@@std@@AEBA_NXZ
   3A93A4 ?_Has_unused_capacity@?$vector@W4EMDLabel@relion@@V?$allocator@W4EMDLabel@relion@@@std@@@std@@AEBA_NXZ
   3A93A4 ?_Init@?$basic_filebuf@DU?$char_traits@D@std@@@std@@IEAAXPEAU_iobuf@@W4_Initfl@12@@Z
   3A93A4 ?_Init@?$basic_stringbuf@DU?$char_traits@D@std@@V?$allocator@D@2@@std@@IEAAXPEBD_KH@Z
   3A93A4 ?_Initcvt@?$basic_filebuf@DU?$char_traits@D@std@@@std@@IEAAXAEBV?$codecvt@DDU_Mbstatet@@@2@@Z
   3A93A4 ?_Lmost@?$_Tree_val@U?$_Tree_simple_types@U?$pair@$$CBW4EMDLabel@relion@@PEAX@std@@@std@@@std@@QEBAAEAPEAU?$_Tree_node@U?$pair@$$CBW4EMDLabel@relion@@PEAX@std@@PEAX@2@XZ
   3A93A4 ?_Lock@?$basic_filebuf@DU?$char_traits@D@std@@@std@@UEAAXXZ
   3A93A4 ?_Lrotate@?$_Tree_val@U?$_Tree_simple_types@U?$pair@$$CBW4EMDLabel@relion@@PEAX@std@@@std@@@std@@QEAAXPEAU?$_Tree_node@U?$pair@$$CBW4EMDLabel@relion@@PEAX@std@@PEAX@2@@Z
   3A93A4 ?_Max@?$_Tree_val@U?$_Tree_simple_types@U?$pair@$$CBW4EMDLabel@relion@@PEAX@std@@@std@@@std@@SAPEAU?$_Tree_node@U?$pair@$$CBW4EMDLabel@relion@@PEAX@std@@PEAX@2@PEAU32@@Z
   3A93A4 ?_Min@?$_Tree_val@U?$_Tree_simple_types@U?$pair@$$CBW4EMDLabel@relion@@PEAX@std@@@std@@@std@@SAPEAU?$_Tree_node@U?$pair@$$CBW4EMDLabel@relion@@PEAX@std@@PEAX@2@PEAU32@@Z
   3A93A4 ?_Move_alloc@?$_Vector_alloc@U?$_Vec_base_types@W4EMDLabel@relion@@V?$allocator@W4EMDLabel@relion@@@std@@@std@@@std@@QEAAXAEAV?$allocator@W4EMDLabel@relion@@@2@@Z
   3A93A4 ?_Move_assign_from@?$vector@W4EMDLabel@relion@@V?$allocator@W4EMDLabel@relion@@@std@@@std@@AEAAX$$QEAV12@U?$integral_constant@_N$00@2@@Z
   3A93A4 ?_Move_from@?$vector@W4EMDLabel@relion@@V?$allocator@W4EMDLabel@relion@@@std@@@std@@AEAAX$$QEAV12@U?$integral_constant@_N$00@2@@Z
   3A93A4 ?_Myend@?$_Vector_alloc@U?$_Vec_base_types@IV?$allocator@I@std@@@std@@@std@@QEAAAEAPEAIXZ
   3A93A4 ?_Myend@?$_Vector_alloc@U?$_Vec_base_types@IV?$allocator@I@std@@@std@@@std@@QEBAAEBQEAIXZ
   3A93A4 ?_Myend@?$_Vector_alloc@U?$_Vec_base_types@JV?$allocator@J@std@@@std@@@std@@QEAAAEAPEAJXZ
   3A93A4 ?_Myend@?$_Vector_alloc@U?$_Vec_base_types@JV?$allocator@J@std@@@std@@@std@@QEBAAEBQEAJXZ
   3A93A4 ?_Myend@?$_Vector_alloc@U?$_Vec_base_types@PEAVMetaDataContainer@relion@@V?$allocator@PEAVMetaDataContainer@relion@@@std@@@std@@@std@@QEAAAEAPEAPEAVMetaDataContainer@relion@@XZ
   3A93A4 ?_Myend@?$_Vector_alloc@U?$_Vec_base_types@PEAVMetaDataContainer@relion@@V?$allocator@PEAVMetaDataContainer@relion@@@std@@@std@@@std@@QEBAAEBQEAPEAVMetaDataContainer@relion@@XZ
   3A93A4 ?_Myend@?$_Vector_alloc@U?$_Vec_base_types@W4EMDLabel@relion@@V?$allocator@W4EMDLabel@relion@@@std@@@std@@@std@@QEAAAEAPEAW4EMDLabel@relion@@XZ
   3A93A4 ?_Myend@?$_Vector_alloc@U?$_Vec_base_types@W4EMDLabel@relion@@V?$allocator@W4EMDLabel@relion@@@std@@@std@@@std@@QEBAAEBQEAW4EMDLabel@relion@@XZ
   3A93A4 ?_Myfirst@?$_Vector_alloc@U?$_Vec_base_types@IV?$allocator@I@std@@@std@@@std@@QEAAAEAPEAIXZ
   3A93A4 ?_Myfirst@?$_Vector_alloc@U?$_Vec_base_types@IV?$allocator@I@std@@@std@@@std@@QEBAAEBQEAIXZ
   3A93A4 ?_Myfirst@?$_Vector_alloc@U?$_Vec_base_types@JV?$allocator@J@std@@@std@@@std@@QEAAAEAPEAJXZ
   3A93A4 ?_Myfirst@?$_Vector_alloc@U?$_Vec_base_types@JV?$allocator@J@std@@@std@@@std@@QEBAAEBQEAJXZ
   3A93A4 ?_Myfirst@?$_Vector_alloc@U?$_Vec_base_types@PEAVMetaDataContainer@relion@@V?$allocator@PEAVMetaDataContainer@relion@@@std@@@std@@@std@@QEAAAEAPEAPEAVMetaDataContainer@relion@@XZ
   3A93A4 ?_Myfirst@?$_Vector_alloc@U?$_Vec_base_types@PEAVMetaDataContainer@relion@@V?$allocator@PEAVMetaDataContainer@relion@@@std@@@std@@@std@@QEBAAEBQEAPEAVMetaDataContainer@relion@@XZ
   3A93A4 ?_Myfirst@?$_Vector_alloc@U?$_Vec_base_types@W4EMDLabel@relion@@V?$allocator@W4EMDLabel@relion@@@std@@@std@@@std@@QEAAAEAPEAW4EMDLabel@relion@@XZ
   3A93A4 ?_Myfirst@?$_Vector_alloc@U?$_Vec_base_types@W4EMDLabel@relion@@V?$allocator@W4EMDLabel@relion@@@std@@@std@@@std@@QEBAAEBQEAW4EMDLabel@relion@@XZ
   3A93A4 ?_Mylast@?$_Vector_alloc@U?$_Vec_base_types@IV?$allocator@I@std@@@std@@@std@@QEAAAEAPEAIXZ
   3A93A4 ?_Mylast@?$_Vector_alloc@U?$_Vec_base_types@IV?$allocator@I@std@@@std@@@std@@QEBAAEBQEAIXZ
   3A93A4 ?_Mylast@?$_Vector_alloc@U?$_Vec_base_types@JV?$allocator@J@std@@@std@@@std@@QEAAAEAPEAJXZ
   3A93A4 ?_Mylast@?$_Vector_alloc@U?$_Vec_base_types@JV?$allocator@J@std@@@std@@@std@@QEBAAEBQEAJXZ
   3A93A4 ?_Mylast@?$_Vector_alloc@U?$_Vec_base_types@PEAVMetaDataContainer@relion@@V?$allocator@PEAVMetaDataContainer@relion@@@std@@@std@@@std@@QEAAAEAPEAPEAVMetaDataContainer@relion@@XZ
   3A93A4 ?_Mylast@?$_Vector_alloc@U?$_Vec_base_types@PEAVMetaDataContainer@relion@@V?$allocator@PEAVMetaDataContainer@relion@@@std@@@std@@@std@@QEBAAEBQEAPEAVMetaDataContainer@relion@@XZ
   3A93A4 ?_Mylast@?$_Vector_alloc@U?$_Vec_base_types@W4EMDLabel@relion@@V?$allocator@W4EMDLabel@relion@@@std@@@std@@@std@@QEAAAEAPEAW4EMDLabel@relion@@XZ
   3A93A4 ?_Mylast@?$_Vector_alloc@U?$_Vec_base_types@W4EMDLabel@relion@@V?$allocator@W4EMDLabel@relion@@@std@@@std@@@std@@QEBAAEBQEAW4EMDLabel@relion@@XZ
   3A93A4 ?_Myproxy@?$_Tree_comp_alloc@V?$_Tmap_traits@W4EMDLabel@relion@@PEAXU?$less@W4EMDLabel@relion@@@std@@V?$allocator@U?$pair@$$CBW4EMDLabel@relion@@PEAX@std@@@4@$0A@@std@@@std@@QEAAAEAPEAU_Container_proxy@2@XZ
   3A93A4 ?_Myproxy@?$_Vector_alloc@U?$_Vec_base_types@IV?$allocator@I@std@@@std@@@std@@QEAAAEAPEAU_Container_proxy@2@XZ
   3A93A4 ?_Myproxy@?$_Vector_alloc@U?$_Vec_base_types@JV?$allocator@J@std@@@std@@@std@@QEAAAEAPEAU_Container_proxy@2@XZ
   3A93A4 ?_Myproxy@?$_Vector_alloc@U?$_Vec_base_types@PEAVMetaDataContainer@relion@@V?$allocator@PEAVMetaDataContainer@relion@@@std@@@std@@@std@@QEAAAEAPEAU_Container_proxy@2@XZ
   3A93A4 ?_Myproxy@?$_Vector_alloc@U?$_Vec_base_types@W4EMDLabel@relion@@V?$allocator@W4EMDLabel@relion@@@std@@@std@@@std@@QEAAAEAPEAU_Container_proxy@2@XZ
   3A93A4 ?_Myptr@?$_Unique_ptr_base@V_Facet_base@std@@U?$default_delete@V_Facet_base@std@@@2@@std@@QEAAAEAPEAV_Facet_base@2@XZ
   3A93A4 ?_Myptr@?$_Unique_ptr_base@V_Facet_base@std@@U?$default_delete@V_Facet_base@std@@@2@@std@@QEBAAEBQEAV_Facet_base@2@XZ
   3A93A4 ?_Orphan_all@?$_Tree_comp_alloc@V?$_Tmap_traits@W4EMDLabel@relion@@PEAXU?$less@W4EMDLabel@relion@@@std@@V?$allocator@U?$pair@$$CBW4EMDLabel@relion@@PEAX@std@@@4@$0A@@std@@@std@@QEAAXXZ
   3A93A4 ?_Orphan_all@?$_Vector_alloc@U?$_Vec_base_types@IV?$allocator@I@std@@@std@@@std@@QEAAXXZ
   3A93A4 ?_Orphan_all@?$_Vector_alloc@U?$_Vec_base_types@JV?$allocator@J@std@@@std@@@std@@QEAAXXZ
   3A93A4 ?_Orphan_all@?$_Vector_alloc@U?$_Vec_base_types@PEAVMetaDataContainer@relion@@V?$allocator@PEAVMetaDataContainer@relion@@@std@@@std@@@std@@QEAAXXZ
   3A93A4 ?_Orphan_all@?$_Vector_alloc@U?$_Vec_base_types@W4EMDLabel@relion@@V?$allocator@W4EMDLabel@relion@@@std@@@std@@@std@@QEAAXXZ
   3A93A4 ?_Orphan_me@_Iterator_base12@std@@QEAAXXZ
   3A93A4 ?_Orphan_ptr@?$_Tree@V?$_Tmap_traits@W4EMDLabel@relion@@PEAXU?$less@W4EMDLabel@relion@@@std@@V?$allocator@U?$pair@$$CBW4EMDLabel@relion@@PEAX@std@@@4@$0A@@std@@@std@@IEAAXPEAU?$_Tree_node@U?$pair@$$CBW4EMDLabel@relion@@PEAX@std@@PEAX@2@@Z
   3A93A4 ?_Orphan_range@?$vector@IV?$allocator@I@std@@@std@@AEBAXPEAI0@Z
   3A93A4 ?_Orphan_range@?$vector@JV?$allocator@J@std@@@std@@AEBAXPEAJ0@Z
   3A93A4 ?_Orphan_range@?$vector@PEAVMetaDataContainer@relion@@V?$allocator@PEAVMetaDataContainer@relion@@@std@@@std@@AEBAXPEAPEAVMetaDataContainer@relion@@0@Z
   3A93A4 ?_Orphan_range@?$vector@W4EMDLabel@relion@@V?$allocator@W4EMDLabel@relion@@@std@@@std@@AEBAXPEAW4EMDLabel@relion@@0@Z
   3A93A4 ?_Psave@?$_Facetptr@V?$codecvt@DDU_Mbstatet@@@std@@@std@@2PEBVfacet@locale@2@EB
   3A93A4 ?_Psave@?$_Facetptr@V?$ctype@D@std@@@std@@2PEBVfacet@locale@2@EB
   3A93A4 ?_Release@?$_Uninitialized_backout@PEAPEAVMetaDataContainer@relion@@@std@@QEAAPEAPEAVMetaDataContainer@relion@@XZ
   3A93A4 ?_Reset_back@?$basic_filebuf@DU?$char_traits@D@std@@@std@@AEAAXXZ
   3A93A4 ?_Rmost@?$_Tree_val@U?$_Tree_simple_types@U?$pair@$$CBW4EMDLabel@relion@@PEAX@std@@@std@@@std@@QEBAAEAPEAU?$_Tree_node@U?$pair@$$CBW4EMDLabel@relion@@PEAX@std@@PEAX@2@XZ
   3A93A4 ?_Root@?$_Tree_val@U?$_Tree_simple_types@U?$pair@$$CBW4EMDLabel@relion@@PEAX@std@@@std@@@std@@QEBAAEAPEAU?$_Tree_node@U?$pair@$$CBW4EMDLabel@relion@@PEAX@std@@PEAX@2@XZ
   3A93A4 ?_Rrotate@?$_Tree_val@U?$_Tree_simple_types@U?$pair@$$CBW4EMDLabel@relion@@PEAX@std@@@std@@@std@@QEAAXPEAU?$_Tree_node@U?$pair@$$CBW4EMDLabel@relion@@PEAX@std@@PEAX@2@@Z
   3A93A4 ?_Seek_to@?$_Vector_const_iterator@V?$_Vector_val@U?$_Simple_types@I@std@@@std@@@std@@QEAAXPEBI@Z
   3A93A4 ?_Seek_to@?$_Vector_const_iterator@V?$_Vector_val@U?$_Simple_types@W4EMDLabel@relion@@@std@@@std@@@std@@QEAAXPEBW4EMDLabel@relion@@@Z
   3A93A4 ?_Set_back@?$basic_filebuf@DU?$char_traits@D@std@@@std@@AEAAXXZ
   3A93A4 ?_Stinit@?1??_Init@?$basic_filebuf@DU?$char_traits@D@std@@@std@@IEAAXPEAU_iobuf@@W4_Initfl@23@@Z@4U_Mbstatet@@A
   3A93A4 ?_Swap_all@?$_Vector_alloc@U?$_Vec_base_types@W4EMDLabel@relion@@V?$allocator@W4EMDLabel@relion@@@std@@@std@@@std@@QEAAXAEAV12@@Z
   3A93A4 ?_Tidy@?$_Tree@V?$_Tmap_traits@W4EMDLabel@relion@@PEAXU?$less@W4EMDLabel@relion@@@std@@V?$allocator@U?$pair@$$CBW4EMDLabel@relion@@PEAX@std@@@4@$0A@@std@@@std@@IEAAXXZ
   3A93A4 ?_Tidy@?$vector@IV?$allocator@I@std@@@std@@AEAAXXZ
   3A93A4 ?_Tidy@?$vector@JV?$allocator@J@std@@@std@@AEAAXXZ
   3A93A4 ?_Tidy@?$vector@PEAVMetaDataContainer@relion@@V?$allocator@PEAVMetaDataContainer@relion@@@std@@@std@@AEAAXXZ
   3A93A4 ?_Tidy@?$vector@W4EMDLabel@relion@@V?$allocator@W4EMDLabel@relion@@@std@@@std@@AEAAXXZ
   3A93A4 ?_Udefault@?$vector@PEAVMetaDataContainer@relion@@V?$allocator@PEAVMetaDataContainer@relion@@@std@@@std@@AEAAPEAPEAVMetaDataContainer@relion@@PEAPEAV34@_K@Z
   3A93A4 ?_Umove@?$vector@IV?$allocator@I@std@@@std@@AEAAPEAIPEAI00@Z
   3A93A4 ?_Umove@?$vector@JV?$allocator@J@std@@@std@@AEAAPEAJPEAJ00@Z
   3A93A4 ?_Umove@?$vector@W4EMDLabel@relion@@V?$allocator@W4EMDLabel@relion@@@std@@@std@@AEAAPEAW4EMDLabel@relion@@PEAW434@00@Z
   3A93A4 ?_Umove_if_noexcept1@?$vector@IV?$allocator@I@std@@@std@@AEAAXPEAI00U?$integral_constant@_N$00@2@@Z
   3A93A4 ?_Umove_if_noexcept1@?$vector@JV?$allocator@J@std@@@std@@AEAAXPEAJ00U?$integral_constant@_N$00@2@@Z
   3A93A4 ?_Umove_if_noexcept1@?$vector@PEAVMetaDataContainer@relion@@V?$allocator@PEAVMetaDataContainer@relion@@@std@@@std@@AEAAXPEAPEAVMetaDataContainer@relion@@00U?$integral_constant@_N$00@2@@Z
   3A93A4 ?_Umove_if_noexcept1@?$vector@W4EMDLabel@relion@@V?$allocator@W4EMDLabel@relion@@@std@@@std@@AEAAXPEAW4EMDLabel@relion@@00U?$integral_constant@_N$00@2@@Z
   3A93A4 ?_Umove_if_noexcept@?$vector@IV?$allocator@I@std@@@std@@AEAAXPEAI00@Z
   3A93A4 ?_Umove_if_noexcept@?$vector@JV?$allocator@J@std@@@std@@AEAAXPEAJ00@Z
   3A93A4 ?_Umove_if_noexcept@?$vector@PEAVMetaDataContainer@relion@@V?$allocator@PEAVMetaDataContainer@relion@@@std@@@std@@AEAAXPEAPEAVMetaDataContainer@relion@@00@Z
   3A93A4 ?_Umove_if_noexcept@?$vector@W4EMDLabel@relion@@V?$allocator@W4EMDLabel@relion@@@std@@@std@@AEAAXPEAW4EMDLabel@relion@@00@Z
   3A93A4 ?_Unlock@?$basic_filebuf@DU?$char_traits@D@std@@@std@@UEAAXXZ
   3A93A4 ?_Unwrapped@?$_Vector_iterator@V?$_Vector_val@U?$_Simple_types@I@std@@@std@@@std@@QEBAPEAIXZ
   3A93A4 ?_Unwrapped@?$_Vector_iterator@V?$_Vector_val@U?$_Simple_types@PEAVMetaDataContainer@relion@@@std@@@std@@@std@@QEBAPEAPEAVMetaDataContainer@relion@@XZ
   3A93A4 ?_Unwrapped@?$_Vector_iterator@V?$_Vector_val@U?$_Simple_types@W4EMDLabel@relion@@@std@@@std@@@std@@QEBAPEAW4EMDLabel@relion@@XZ
   3A93A4 ?_Verify_offset@?$_Vector_const_iterator@V?$_Vector_val@U?$_Simple_types@PEAVMetaDataContainer@relion@@@std@@@std@@@std@@QEBAX_J@Z
   3A93A4 ?_Verify_range@std@@YAXAEBV?$_Vector_const_iterator@V?$_Vector_val@U?$_Simple_types@I@std@@@std@@@1@0@Z
   3A93A4 ?_Verify_range@std@@YAXAEBV?$_Vector_const_iterator@V?$_Vector_val@U?$_Simple_types@PEAVMetaDataContainer@relion@@@std@@@std@@@1@0@Z
   3A93A4 ?_Verify_range@std@@YAXAEBV?$_Vector_const_iterator@V?$_Vector_val@U?$_Simple_types@W4EMDLabel@relion@@@std@@@std@@@1@0@Z
   3A93A4 ?_Xlength@?$vector@IV?$allocator@I@std@@@std@@CAXXZ
   3A93A4 ?_Xlength@?$vector@JV?$allocator@J@std@@@std@@CAXXZ
   3A93A4 ?_Xlength@?$vector@PEAVMetaDataContainer@relion@@V?$allocator@PEAVMetaDataContainer@relion@@@std@@@std@@CAXXZ
   3A93A4 ?_Xlength@?$vector@W4EMDLabel@relion@@V?$allocator@W4EMDLabel@relion@@@std@@@std@@CAXXZ
   3A93A4 ?__LINE__Var@?0??addObject@MetaDataTable@relion@@QEAAJPEAVMetaDataContainer@3@J@Z@4JA
   3A93A4 ?__LINE__Var@?0??compareMetaDataTable@relion@@YAXAEAVMetaDataTable@2@0000W4EMDLabel@2@M11@Z@4JA
   3A93A4 ?__LINE__Var@?0??getObject@MetaDataTable@relion@@QEBAPEAVMetaDataContainer@3@J@Z@4JA
   3A93A4 ?__LINE__Var@?0??goToObject@MetaDataTable@relion@@QEAAJJ@Z@4JA
   3A93A4 ?__LINE__Var@?0??newSort@MetaDataTable@relion@@QEAAXW4EMDLabel@3@_N1@Z@4JA
   3A93A4 ?__LINE__Var@?0??read@MetaDataTable@relion@@QEAAHAEBVFileName@3@AEBV?$basic_string@DU?$char_traits@D@std@@V?$allocator@D@2@@std@@PEAV?$vector@W4EMDLabel@relion@@V?$allocator@W4EMDLabel@relion@@@std@@@6@@Z@4JA
   3A93A4 ?__LINE__Var@?0??readStarList@MetaDataTable@relion@@QEAA_NAEAV?$basic_ifstream@DU?$char_traits@D@std@@@std@@PEAV?$vector@W4EMDLabel@relion@@V?$allocator@W4EMDLabel@relion@@@std@@@5@@Z@4JA
   3A93A4 ?__LINE__Var@?0??readStarLoop@MetaDataTable@relion@@QEAAXAEAV?$basic_ifstream@DU?$char_traits@D@std@@@std@@PEAV?$vector@W4EMDLabel@relion@@V?$allocator@W4EMDLabel@relion@@@std@@@5@@Z@4JA
   3A93A4 ?__LINE__Var@?0??setValueFromString@MetaDataTable@relion@@QEAA_NAEBW4EMDLabel@3@AEBV?$basic_string@DU?$char_traits@D@std@@V?$allocator@D@2@@std@@J@Z@4JA
   3A93A4 ?__LINE__Var@?0??write@MetaDataTable@relion@@QEAAXAEBVFileName@3@@Z@4JA
   3A93A4 ?addLabel@MetaDataTable@relion@@QEAA_NW4EMDLabel@2@@Z
   3A93A4 ?addObject@MetaDataTable@relion@@QEAAJPEAVMetaDataContainer@2@J@Z
   3A93A4 ?allocate@?$allocator@I@std@@QEAAPEAI_K@Z
   3A93A4 ?allocate@?$allocator@J@std@@QEAAPEAJ_K@Z
   3A93A4 ?allocate@?$allocator@PEAVMetaDataContainer@relion@@@std@@QEAAPEAPEAVMetaDataContainer@relion@@_K@Z
   3A93A4 ?allocate@?$allocator@U?$_Tree_node@U?$pair@$$CBW4EMDLabel@relion@@PEAX@std@@PEAX@std@@@std@@QEAAPEAU?$_Tree_node@U?$pair@$$CBW4EMDLabel@relion@@PEAX@std@@PEAX@2@_K@Z
   3A93A4 ?allocate@?$allocator@W4EMDLabel@relion@@@std@@QEAAPEAW4EMDLabel@relion@@_K@Z
   3A93A4 ?append@MetaDataTable@relion@@QEAAXAEAV12@@Z
   3A93A4 ?begin@?$_Tree@V?$_Tmap_traits@W4EMDLabel@relion@@PEAXU?$less@W4EMDLabel@relion@@@std@@V?$allocator@U?$pair@$$CBW4EMDLabel@relion@@PEAX@std@@@4@$0A@@std@@@std@@QEAA?AV?$_Tree_iterator@V?$_Tree_val@U?$_Tree_simple_types@U?$pair@$$CBW4EMDLabel@relion@@PEAX@std@@@std@@@std@@@2@XZ
   3A93A4 ?begin@?$basic_string@DU?$char_traits@D@std@@V?$allocator@D@2@@std@@QEAA?AV?$_String_iterator@V?$_String_val@U?$_Simple_types@D@std@@@std@@@2@XZ
   3A93A4 ?begin@?$vector@IV?$allocator@I@std@@@std@@QEAA?AV?$_Vector_iterator@V?$_Vector_val@U?$_Simple_types@I@std@@@std@@@2@XZ
   3A93A4 ?begin@?$vector@PEAVMetaDataContainer@relion@@V?$allocator@PEAVMetaDataContainer@relion@@@std@@@std@@QEAA?AV?$_Vector_iterator@V?$_Vector_val@U?$_Simple_types@PEAVMetaDataContainer@relion@@@std@@@std@@@2@XZ
   3A93A4 ?begin@?$vector@W4EMDLabel@relion@@V?$allocator@W4EMDLabel@relion@@@std@@@std@@QEAA?AV?$_Vector_iterator@V?$_Vector_val@U?$_Simple_types@W4EMDLabel@relion@@@std@@@std@@@2@XZ
   3A93A4 ?capacity@?$vector@IV?$allocator@I@std@@@std@@QEBA_KXZ
   3A93A4 ?capacity@?$vector@JV?$allocator@J@std@@@std@@QEBA_KXZ
   3A93A4 ?capacity@?$vector@PEAVMetaDataContainer@relion@@V?$allocator@PEAVMetaDataContainer@relion@@@std@@@std@@QEBA_KXZ
   3A93A4 ?capacity@?$vector@W4EMDLabel@relion@@V?$allocator@W4EMDLabel@relion@@@std@@@std@@QEBA_KXZ
   3A93A4 ?clear@?$_Tree@V?$_Tmap_traits@W4EMDLabel@relion@@PEAXU?$less@W4EMDLabel@relion@@@std@@V?$allocator@U?$pair@$$CBW4EMDLabel@relion@@PEAX@std@@@4@$0A@@std@@@std@@QEAAXXZ
   3A93A4 ?clear@?$vector@IV?$allocator@I@std@@@std@@QEAAXXZ
   3A93A4 ?clear@?$vector@PEAVMetaDataContainer@relion@@V?$allocator@PEAVMetaDataContainer@relion@@@std@@@std@@QEAAXXZ
   3A93A4 ?clear@?$vector@W4EMDLabel@relion@@V?$allocator@W4EMDLabel@relion@@@std@@@std@@QEAAXXZ
   3A93A4 ?clear@MetaDataContainer@relion@@QEAAXXZ
   3A93A4 ?clear@MetaDataTable@relion@@QEAAXXZ
   3A93A4 ?close@?$basic_filebuf@DU?$char_traits@D@std@@@std@@QEAAPEAV12@XZ
   3A93A4 ?close@?$basic_ifstream@DU?$char_traits@D@std@@@std@@QEAAXXZ
   3A93A4 ?close@?$basic_ofstream@DU?$char_traits@D@std@@@std@@QEAAXXZ
   3A93A4 ?compare@?$basic_string@DU?$char_traits@D@std@@V?$allocator@D@2@@std@@QEBAHAEBV12@@Z
   3A93A4 ?compareDouble@relion@@YA_NPEAVMetaDataContainer@1@0@Z
   3A93A4 ?compareInteger@relion@@YA_NPEAVMetaDataContainer@1@0@Z
   3A93A4 ?compareLong@relion@@YA_NPEAVMetaDataContainer@1@0@Z
   3A93A4 ?compareMetaDataTable@relion@@YAXAEAVMetaDataTable@1@0000W4EMDLabel@1@M11@Z
   3A93A4 ?compareString@relion@@YA_NPEAVMetaDataContainer@1@0@Z
   3A93A4 ?compareStringNoAt@relion@@YA_NPEAVMetaDataContainer@1@0@Z
   3A93A4 ?containsComment@MetaDataTable@relion@@QEBA_NXZ
   3A93A4 ?containsLabel@MetaDataTable@relion@@QEBA_NW4EMDLabel@2@@Z
   3A93A4 ?deactivateLabel@MetaDataTable@relion@@QEAAXW4EMDLabel@2@@Z
   3A93A4 ?deallocate@?$_Default_allocator_traits@V?$allocator@U?$_Tree_node@U?$pair@$$CBW4EMDLabel@relion@@PEAX@std@@PEAX@std@@@std@@@std@@SAXAEAV?$allocator@U?$_Tree_node@U?$pair@$$CBW4EMDLabel@relion@@PEAX@std@@PEAX@std@@@2@QEAU?$_Tree_node@U?$pair@$$CBW4EMDLabel@relion@@PEAX@std@@PEAX@2@_K@Z
   3A93A4 ?deallocate@?$allocator@I@std@@QEAAXQEAI_K@Z
   3A93A4 ?deallocate@?$allocator@J@std@@QEAAXQEAJ_K@Z
   3A93A4 ?deallocate@?$allocator@PEAVMetaDataContainer@relion@@@std@@QEAAXQEAPEAVMetaDataContainer@relion@@_K@Z
   3A93A4 ?deallocate@?$allocator@U?$_Tree_node@U?$pair@$$CBW4EMDLabel@relion@@PEAX@std@@PEAX@std@@@std@@QEAAXQEAU?$_Tree_node@U?$pair@$$CBW4EMDLabel@relion@@PEAX@std@@PEAX@2@_K@Z
   3A93A4 ?deallocate@?$allocator@W4EMDLabel@relion@@@std@@QEAAXQEAW4EMDLabel@relion@@_K@Z
   3A93A4 ?end@?$_Tree@V?$_Tmap_traits@W4EMDLabel@relion@@PEAXU?$less@W4EMDLabel@relion@@@std@@V?$allocator@U?$pair@$$CBW4EMDLabel@relion@@PEAX@std@@@4@$0A@@std@@@std@@QEAA?AV?$_Tree_iterator@V?$_Tree_val@U?$_Tree_simple_types@U?$pair@$$CBW4EMDLabel@relion@@PEAX@std@@@std@@@std@@@2@XZ
   3A93A4 ?end@?$vector@IV?$allocator@I@std@@@std@@QEAA?AV?$_Vector_iterator@V?$_Vector_val@U?$_Simple_types@I@std@@@std@@@2@XZ
   3A93A4 ?end@?$vector@PEAVMetaDataContainer@relion@@V?$allocator@PEAVMetaDataContainer@relion@@@std@@@std@@QEAA?AV?$_Vector_iterator@V?$_Vector_val@U?$_Simple_types@PEAVMetaDataContainer@relion@@@std@@@std@@@2@XZ
   3A93A4 ?end@?$vector@W4EMDLabel@relion@@V?$allocator@W4EMDLabel@relion@@@std@@@std@@QEAA?AV?$_Vector_iterator@V?$_Vector_val@U?$_Simple_types@W4EMDLabel@relion@@@std@@@std@@@2@XZ
   3A93A4 ?erase@?$_Tree@V?$_Tmap_traits@W4EMDLabel@relion@@PEAXU?$less@W4EMDLabel@relion@@@std@@V?$allocator@U?$pair@$$CBW4EMDLabel@relion@@PEAX@std@@@4@$0A@@std@@@std@@QEAA?AV?$_Tree_iterator@V?$_Tree_val@U?$_Tree_simple_types@U?$pair@$$CBW4EMDLabel@relion@@PEAX@std@@@std@@@std@@@2@V?$_Tree_const_iterator@V?$_Tree_val@U?$_Tree_simple_types@U?$pair@$$CBW4EMDLabel@relion@@PEAX@std@@@std@@@std@@@2@0@Z
   3A93A4 ?erase@?$_Tree@V?$_Tmap_traits@W4EMDLabel@relion@@PEAXU?$less@W4EMDLabel@relion@@@std@@V?$allocator@U?$pair@$$CBW4EMDLabel@relion@@PEAX@std@@@4@$0A@@std@@@std@@QEAA?AV?$_Tree_iterator@V?$_Tree_val@U?$_Tree_simple_types@U?$pair@$$CBW4EMDLabel@relion@@PEAX@std@@@std@@@std@@@2@V?$_Tree_const_iterator@V?$_Tree_val@U?$_Tree_simple_types@U?$pair@$$CBW4EMDLabel@relion@@PEAX@std@@@std@@@std@@@2@@Z
   3A93A4 ?erase@?$vector@PEAVMetaDataContainer@relion@@V?$allocator@PEAVMetaDataContainer@relion@@@std@@@std@@QEAA?AV?$_Vector_iterator@V?$_Vector_val@U?$_Simple_types@PEAVMetaDataContainer@relion@@@std@@@std@@@2@V?$_Vector_const_iterator@V?$_Vector_val@U?$_Simple_types@PEAVMetaDataContainer@relion@@@std@@@std@@@2@@Z
   3A93A4 ?erase@?$vector@W4EMDLabel@relion@@V?$allocator@W4EMDLabel@relion@@@std@@@std@@QEAA?AV?$_Vector_iterator@V?$_Vector_val@U?$_Simple_types@W4EMDLabel@relion@@@std@@@std@@@2@V?$_Vector_const_iterator@V?$_Vector_val@U?$_Simple_types@W4EMDLabel@relion@@@std@@@std@@@2@@Z
   3A93A4 ?find@?$basic_string@DU?$char_traits@D@std@@V?$allocator@D@2@@std@@QEBA_KQEBD_K@Z
   3A93A4 ?firstObject@MetaDataTable@relion@@QEAAJXZ
   3A93A4 ?front@?$basic_string@DU?$char_traits@D@std@@V?$allocator@D@2@@std@@QEAAAEADXZ
   3A93A4 ?get@?$unique_ptr@V_Facet_base@std@@U?$default_delete@V_Facet_base@std@@@2@@std@@QEBAPEAV_Facet_base@2@XZ
   3A93A4 ?getComment@MetaDataTable@relion@@QEBA?AV?$basic_string@DU?$char_traits@D@std@@V?$allocator@D@2@@std@@XZ
   3A93A4 ?getName@MetaDataTable@relion@@QEBA?AV?$basic_string@DU?$char_traits@D@std@@V?$allocator@D@2@@std@@XZ
   3A93A4 ?getObject@MetaDataTable@relion@@QEBAPEAVMetaDataContainer@2@J@Z
   3A93A4 ?get_deleter@?$_Unique_ptr_base@V_Facet_base@std@@U?$default_delete@V_Facet_base@std@@@2@@std@@QEAAAEAU?$default_delete@V_Facet_base@std@@@2@XZ
   3A93A4 ?goToObject@MetaDataTable@relion@@QEAAJJ@Z
   3A93A4 ?imbue@?$basic_filebuf@DU?$char_traits@D@std@@@std@@MEAAXAEBVlocale@2@@Z
   3A93A4 ?isEmpty@MetaDataTable@relion@@QEBA_NXZ
   3A93A4 ?lastObject@MetaDataTable@relion@@QEAAJXZ
   3A93A4 ?max_size@?$_Default_allocator_traits@V?$allocator@I@std@@@std@@SA_KAEBV?$allocator@I@2@@Z
   3A93A4 ?max_size@?$_Default_allocator_traits@V?$allocator@J@std@@@std@@SA_KAEBV?$allocator@J@2@@Z
   3A93A4 ?max_size@?$_Default_allocator_traits@V?$allocator@PEAVMetaDataContainer@relion@@@std@@@std@@SA_KAEBV?$allocator@PEAVMetaDataContainer@relion@@@2@@Z
   3A93A4 ?max_size@?$_Default_allocator_traits@V?$allocator@W4EMDLabel@relion@@@std@@@std@@SA_KAEBV?$allocator@W4EMDLabel@relion@@@2@@Z
   3A93A4 ?max_size@?$vector@IV?$allocator@I@std@@@std@@QEBA_KXZ
   3A93A4 ?max_size@?$vector@JV?$allocator@J@std@@@std@@QEBA_KXZ
   3A93A4 ?max_size@?$vector@PEAVMetaDataContainer@relion@@V?$allocator@PEAVMetaDataContainer@relion@@@std@@@std@@QEBA_KXZ
   3A93A4 ?max_size@?$vector@W4EMDLabel@relion@@V?$allocator@W4EMDLabel@relion@@@std@@@std@@QEBA_KXZ
   3A93A4 ?newSort@MetaDataTable@relion@@QEAAXW4EMDLabel@2@_N1@Z
   3A93A4 ?nextObject@MetaDataTable@relion@@QEAAJXZ
   3A93A4 ?numberOfObjects@MetaDataTable@relion@@QEBAJXZ
   3A93A4 ?open@?$basic_filebuf@DU?$char_traits@D@std@@@std@@QEAAPEAV12@PEBDHH@Z
   3A93A4 ?open@?$basic_ofstream@DU?$char_traits@D@std@@@std@@QEAAXPEBDHH@Z
   3A93A4 ?overflow@?$basic_filebuf@DU?$char_traits@D@std@@@std@@MEAAHH@Z
   3A93A4 ?pbackfail@?$basic_filebuf@DU?$char_traits@D@std@@@std@@MEAAHH@Z
   3A93A4 ?pointer_to@?$pointer_traits@PEAU?$pair@$$CBW4EMDLabel@relion@@PEAX@std@@@std@@SAPEAU?$pair@$$CBW4EMDLabel@relion@@PEAX@2@AEAU32@@Z
   3A93A4 ?push_back@?$vector@IV?$allocator@I@std@@@std@@QEAAXAEBI@Z
   3A93A4 ?push_back@?$vector@JV?$allocator@J@std@@@std@@QEAAXAEBJ@Z
   3A93A4 ?push_back@?$vector@W4EMDLabel@relion@@V?$allocator@W4EMDLabel@relion@@@std@@@std@@QEAAXAEBW4EMDLabel@relion@@@Z
   3A93A4 ?read@MetaDataTable@relion@@QEAAHAEBVFileName@2@AEBV?$basic_string@DU?$char_traits@D@std@@V?$allocator@D@2@@std@@PEAV?$vector@W4EMDLabel@relion@@V?$allocator@W4EMDLabel@relion@@@std@@@5@@Z
   3A93A4 ?readStar@MetaDataTable@relion@@QEAAHAEAV?$basic_ifstream@DU?$char_traits@D@std@@@std@@AEBV?$basic_string@DU?$char_traits@D@std@@V?$allocator@D@2@@4@PEAV?$vector@W4EMDLabel@relion@@V?$allocator@W4EMDLabel@relion@@@std@@@4@@Z
   3A93A4 ?readStarList@MetaDataTable@relion@@QEAA_NAEAV?$basic_ifstream@DU?$char_traits@D@std@@@std@@PEAV?$vector@W4EMDLabel@relion@@V?$allocator@W4EMDLabel@relion@@@std@@@4@@Z
   3A93A4 ?readStarLoop@MetaDataTable@relion@@QEAAXAEAV?$basic_ifstream@DU?$char_traits@D@std@@@std@@PEAV?$vector@W4EMDLabel@relion@@V?$allocator@W4EMDLabel@relion@@@std@@@4@@Z
   3A93A4 ?release@?$unique_ptr@V_Facet_base@std@@U?$default_delete@V_Facet_base@std@@@2@@std@@QEAAPEAV_Facet_base@2@XZ
   3A93A4 ?removeObject@MetaDataTable@relion@@QEAAJJ@Z
   3A93A4 ?resize@?$vector@PEAVMetaDataContainer@relion@@V?$allocator@PEAVMetaDataContainer@relion@@@std@@@std@@QEAAX_K@Z
   3A93A4 ?seekoff@?$basic_filebuf@DU?$char_traits@D@std@@@std@@MEAA?AV?$fpos@U_Mbstatet@@@2@_JHH@Z
   3A93A4 ?seekpos@?$basic_filebuf@DU?$char_traits@D@std@@@std@@MEAA?AV?$fpos@U_Mbstatet@@@2@V32@H@Z
   3A93A4 ?setComment@MetaDataTable@relion@@QEAAXV?$basic_string@DU?$char_traits@D@std@@V?$allocator@D@2@@std@@@Z
   3A93A4 ?setIsList@MetaDataTable@relion@@QEAAX_N@Z
   3A93A4 ?setName@MetaDataTable@relion@@QEAAXV?$basic_string@DU?$char_traits@D@std@@V?$allocator@D@2@@std@@@Z
   3A93A4 ?setObject@MetaDataTable@relion@@QEAAXPEAVMetaDataContainer@2@J@Z
   3A93A4 ?setValueFromString@MetaDataTable@relion@@QEAA_NAEBW4EMDLabel@2@AEBV?$basic_string@DU?$char_traits@D@std@@V?$allocator@D@2@@std@@J@Z
   3A93A4 ?setbuf@?$basic_filebuf@DU?$char_traits@D@std@@@std@@MEAAPEAV?$basic_streambuf@DU?$char_traits@D@std@@@2@PEAD_J@Z
   3A93A4 ?size@?$vector@IV?$allocator@I@std@@@std@@QEBA_KXZ
   3A93A4 ?size@?$vector@JV?$allocator@J@std@@@std@@QEBA_KXZ
   3A93A4 ?size@?$vector@PEAVMetaDataContainer@relion@@V?$allocator@PEAVMetaDataContainer@relion@@@std@@@std@@QEBA_KXZ
   3A93A4 ?size@?$vector@W4EMDLabel@relion@@V?$allocator@W4EMDLabel@relion@@@std@@@std@@QEBA_KXZ
   3A93A4 ?state@?$fpos@U_Mbstatet@@@std@@QEBA?AU_Mbstatet@@XZ
   3A93A4 ?sync@?$basic_filebuf@DU?$char_traits@D@std@@@std@@MEAAHXZ
   3A93A4 ?uflow@?$basic_filebuf@DU?$char_traits@D@std@@@std@@MEAAHXZ
   3A93A4 ?underflow@?$basic_filebuf@DU?$char_traits@D@std@@@std@@MEAAHXZ
   3A93A4 ?what@exception@std@@UEBAPEBDXZ
   3A93A4 ?write@MetaDataTable@relion@@QEAAXAEAV?$basic_ostream@DU?$char_traits@D@std@@@std@@@Z
   3A93A4 ?write@MetaDataTable@relion@@QEAAXAEBVFileName@2@@Z
   3A93A4 ?writeValueToString@MetaDataTable@relion@@QEAAXAEAV?$basic_string@DU?$char_traits@D@std@@V?$allocator@D@2@@std@@AEBV34@@Z
   3A93A4 ?xsgetn@?$basic_filebuf@DU?$char_traits@D@std@@@std@@MEAA_JPEAD_J@Z
   3A93A4 ?xsputn@?$basic_filebuf@DU?$char_traits@D@std@@@std@@MEAA_JPEBD_J@Z
   3A93A4 _CT??_R0?AVbad_cast@std@@@8??0bad_cast@std@@QEAA@AEBV01@@Z24
   3A93A4 _CT??_R0?AVexception@std@@@8??0exception@std@@QEAA@AEBV01@@Z24
   3A93A4 _CTA2?AVbad_cast@std@@
   3A93A4 _TI2?AVbad_cast@std@@
   5AC6DE ??$?0$$V@?$_Compressed_pair@V?$allocator@U?$_Tree_node@U?$pair@$$CBV?$basic_string@DU?$char_traits@D@std@@V?$allocator@D@2@@std@@V12@@std@@PEAX@std@@@std@@V?$_Tree_val@U?$_Tree_simple_types@U?$pair@$$CBV?$basic_string@DU?$char_traits@D@std@@V?$allocator@D@2@@std@@V12@@std@@@std@@@2@$00@std@@QEAA@U_Zero_then_variadic_args_t@1@@Z
   5AC6DE ??$?0$$V@?$_Compressed_pair@V?$allocator@U?$_Tree_node@U?$pair@$$CBV?$basic_string@DU?$char_traits@D@std@@V?$allocator@D@2@@std@@W4EMDLabel@relion@@@std@@PEAX@std@@@std@@V?$_Tree_val@U?$_Tree_simple_types@U?$pair@$$CBV?$basic_string@DU?$char_traits@D@std@@V?$allocator@D@2@@std@@W4EMDLabel@relion@@@std@@@std@@@2@$00@std@@QEAA@U_Zero_then_variadic_args_t@1@@Z
   5AC6DE ??$?0$$V@?$_Compressed_pair@V?$allocator@U?$_Tree_node@U?$pair@$$CBW4EMDLabel@relion@@VEMDLabelData@2@@std@@PEAX@std@@@std@@V?$_Tree_val@U?$_Tree_simple_types@U?$pair@$$CBW4EMDLabel@relion@@VEMDLabelData@2@@std@@@std@@@2@$00@std@@QEAA@U_Zero_then_variadic_args_t@1@@Z
   5AC6DE ??$?0AEAV?$_Tree_iterator@V?$_Tree_val@U?$_Tree_simple_types@U?$pair@$$CBV?$basic_string@DU?$char_traits@D@std@@V?$allocator@D@2@@std@@V12@@std@@@std@@@std@@@std@@_N$0A@@?$pair@V?$_Tree_iterator@V?$_Tree_val@U?$_Tree_simple_types@U?$pair@$$CBV?$basic_string@DU?$char_traits@D@std@@V?$allocator@D@2@@std@@V12@@std@@@std@@@std@@@std@@_N@std@@QEAA@AEAV?$_Tree_iterator@V?$_Tree_val@U?$_Tree_simple_types@U?$pair@$$CBV?$basic_string@DU?$char_traits@D@std@@V?$allocator@D@2@@std@@V12@@std@@@std@@@std@@@1@$$QEA_N@Z
   5AC6DE ??$?0AEAV?$_Tree_iterator@V?$_Tree_val@U?$_Tree_simple_types@U?$pair@$$CBV?$basic_string@DU?$char_traits@D@std@@V?$allocator@D@2@@std@@W4EMDLabel@relion@@@std@@@std@@@std@@@std@@_N$0A@@?$pair@V?$_Tree_iterator@V?$_Tree_val@U?$_Tree_simple_types@U?$pair@$$CBV?$basic_string@DU?$char_traits@D@std@@V?$allocator@D@2@@std@@W4EMDLabel@relion@@@std@@@std@@@std@@@std@@_N@std@@QEAA@AEAV?$_Tree_iterator@V?$_Tree_val@U?$_Tree_simple_types@U?$pair@$$CBV?$basic_string@DU?$char_traits@D@std@@V?$allocator@D@2@@std@@W4EMDLabel@relion@@@std@@@std@@@std@@@1@$$QEA_N@Z
   5AC6DE ??$?0AEAV?$_Tree_iterator@V?$_Tree_val@U?$_Tree_simple_types@U?$pair@$$CBW4EMDLabel@relion@@VEMDLabelData@2@@std@@@std@@@std@@@std@@_N$0A@@?$pair@V?$_Tree_iterator@V?$_Tree_val@U?$_Tree_simple_types@U?$pair@$$CBW4EMDLabel@relion@@VEMDLabelData@2@@std@@@std@@@std@@@std@@_N@std@@QEAA@AEAV?$_Tree_iterator@V?$_Tree_val@U?$_Tree_simple_types@U?$pair@$$CBW4EMDLabel@relion@@VEMDLabelData@2@@std@@@std@@@std@@@1@$$QEA_N@Z
   5AC6DE ??$?0AEBU?$less@V?$basic_string@DU?$char_traits@D@std@@V?$allocator@D@2@@std@@@std@@U_Zero_then_variadic_args_t@1@@?$_Compressed_pair@U?$less@V?$basic_string@DU?$char_traits@D@std@@V?$allocator@D@2@@std@@@std@@V?$_Compressed_pair@V?$allocator@U?$_Tree_node@U?$pair@$$CBV?$basic_string@DU?$char_traits@D@std@@V?$allocator@D@2@@std@@V12@@std@@PEAX@std@@@std@@V?$_Tree_val@U?$_Tree_simple_types@U?$pair@$$CBV?$basic_string@DU?$char_traits@D@std@@V?$allocator@D@2@@std@@V12@@std@@@std@@@2@$00@2@$00@std@@QEAA@U_One_then_variadic_args_t@1@AEBU?$less@V?$basic_string@DU?$char_traits@D@std@@V?$allocator@D@2@@std@@@1@$$QEAU_Zero_then_variadic_args_t@1@@Z
   5AC6DE ??$?0AEBU?$less@V?$basic_string@DU?$char_traits@D@std@@V?$allocator@D@2@@std@@@std@@U_Zero_then_variadic_args_t@1@@?$_Compressed_pair@U?$less@V?$basic_string@DU?$char_traits@D@std@@V?$allocator@D@2@@std@@@std@@V?$_Compressed_pair@V?$allocator@U?$_Tree_node@U?$pair@$$CBV?$basic_string@DU?$char_traits@D@std@@V?$allocator@D@2@@std@@W4EMDLabel@relion@@@std@@PEAX@std@@@std@@V?$_Tree_val@U?$_Tree_simple_types@U?$pair@$$CBV?$basic_string@DU?$char_traits@D@std@@V?$allocator@D@2@@std@@W4EMDLabel@relion@@@std@@@std@@@2@$00@2@$00@std@@QEAA@U_One_then_variadic_args_t@1@AEBU?$less@V?$basic_string@DU?$char_traits@D@std@@V?$allocator@D@2@@std@@@1@$$QEAU_Zero_then_variadic_args_t@1@@Z
   5AC6DE ??$?0AEBU?$less@W4EMDLabel@relion@@@std@@U_Zero_then_variadic_args_t@1@@?$_Compressed_pair@U?$less@W4EMDLabel@relion@@@std@@V?$_Compressed_pair@V?$allocator@U?$_Tree_node@U?$pair@$$CBW4EMDLabel@relion@@VEMDLabelData@2@@std@@PEAX@std@@@std@@V?$_Tree_val@U?$_Tree_simple_types@U?$pair@$$CBW4EMDLabel@relion@@VEMDLabelData@2@@std@@@std@@@2@$00@2@$00@std@@QEAA@U_One_then_variadic_args_t@1@AEBU?$less@W4EMDLabel@relion@@@1@$$QEAU_Zero_then_variadic_args_t@1@@Z
   5AC6DE ??$?0AEBV?$basic_string@DU?$char_traits@D@std@@V?$allocator@D@2@@std@@$$Z$$V@?$pair@$$CBV?$basic_string@DU?$char_traits@D@std@@V?$allocator@D@2@@std@@V12@@std@@QEAA@Upiecewise_construct_t@1@V?$tuple@AEBV?$basic_string@DU?$char_traits@D@std@@V?$allocator@D@2@@std@@@1@V?$tuple@$$V@1@@Z
   5AC6DE ??$?0AEBV?$basic_string@DU?$char_traits@D@std@@V?$allocator@D@2@@std@@$$Z$$V@?$pair@$$CBV?$basic_string@DU?$char_traits@D@std@@V?$allocator@D@2@@std@@W4EMDLabel@relion@@@std@@QEAA@Upiecewise_construct_t@1@V?$tuple@AEBV?$basic_string@DU?$char_traits@D@std@@V?$allocator@D@2@@std@@@1@V?$tuple@$$V@1@@Z
   5AC6DE ??$?0AEBV?$basic_string@DU?$char_traits@D@std@@V?$allocator@D@2@@std@@$0A@@?$tuple@AEBV?$basic_string@DU?$char_traits@D@std@@V?$allocator@D@2@@std@@@std@@QEAA@AEBV?$basic_string@DU?$char_traits@D@std@@V?$allocator@D@2@@1@@Z
   5AC6DE ??$?0AEBV?$basic_string@DU?$char_traits@D@std@@V?$allocator@D@2@@std@@@?$_Tuple_val@AEBV?$basic_string@DU?$char_traits@D@std@@V?$allocator@D@2@@std@@@std@@QEAA@AEBV?$basic_string@DU?$char_traits@D@std@@V?$allocator@D@2@@1@@Z
   5AC6DE ??$?0AEBW4EMDLabel@relion@@$$Z$$V@?$pair@$$CBW4EMDLabel@relion@@VEMDLabelData@2@@std@@QEAA@Upiecewise_construct_t@1@V?$tuple@AEBW4EMDLabel@relion@@@1@V?$tuple@$$V@1@@Z
   5AC6DE ??$?0AEBW4EMDLabel@relion@@$0A@@?$tuple@AEBW4EMDLabel@relion@@@std@@QEAA@AEBW4EMDLabel@relion@@@Z
   5AC6DE ??$?0AEBW4EMDLabel@relion@@@?$_Tuple_val@AEBW4EMDLabel@relion@@@std@@QEAA@AEBW4EMDLabel@relion@@@Z
   5AC6DE ??$?0U?$_Tree_node@U?$pair@$$CBV?$basic_string@DU?$char_traits@D@std@@V?$allocator@D@2@@std@@V12@@std@@PEAX@std@@@?$allocator@U_Container_proxy@std@@@std@@QEAA@AEBV?$allocator@U?$_Tree_node@U?$pair@$$CBV?$basic_string@DU?$char_traits@D@std@@V?$allocator@D@2@@std@@V12@@std@@PEAX@std@@@1@@Z
   5AC6DE ??$?0U?$_Tree_node@U?$pair@$$CBV?$basic_string@DU?$char_traits@D@std@@V?$allocator@D@2@@std@@W4EMDLabel@relion@@@std@@PEAX@std@@@?$allocator@U_Container_proxy@std@@@std@@QEAA@AEBV?$allocator@U?$_Tree_node@U?$pair@$$CBV?$basic_string@DU?$char_traits@D@std@@V?$allocator@D@2@@std@@W4EMDLabel@relion@@@std@@PEAX@std@@@1@@Z
   5AC6DE ??$?0U?$_Tree_node@U?$pair@$$CBW4EMDLabel@relion@@VEMDLabelData@2@@std@@PEAX@std@@@?$allocator@U_Container_proxy@std@@@std@@QEAA@AEBV?$allocator@U?$_Tree_node@U?$pair@$$CBW4EMDLabel@relion@@VEMDLabelData@2@@std@@PEAX@std@@@1@@Z
   5AC6DE ??$?0U_Exact_args_t@std@@$0A@@?$tuple@$$V@std@@QEAA@U_Exact_args_t@1@@Z
   5AC6DE ??$?0U_Exact_args_t@std@@AEBV?$basic_string@DU?$char_traits@D@std@@V?$allocator@D@2@@1@$$V$0A@@?$tuple@AEBV?$basic_string@DU?$char_traits@D@std@@V?$allocator@D@2@@std@@@std@@QEAA@U_Exact_args_t@1@AEBV?$basic_string@DU?$char_traits@D@std@@V?$allocator@D@2@@1@@Z
   5AC6DE ??$?0U_Exact_args_t@std@@AEBW4EMDLabel@relion@@$$V$0A@@?$tuple@AEBW4EMDLabel@relion@@@std@@QEAA@U_Exact_args_t@1@AEBW4EMDLabel@relion@@@Z
   5AC6DE ??$?0V?$_Tree_iterator@V?$_Tree_val@U?$_Tree_simple_types@U?$pair@$$CBV?$basic_string@DU?$char_traits@D@std@@V?$allocator@D@2@@std@@V12@@std@@@std@@@std@@@std@@_N$0A@@?$pair@V?$_Tree_iterator@V?$_Tree_val@U?$_Tree_simple_types@U?$pair@$$CBV?$basic_string@DU?$char_traits@D@std@@V?$allocator@D@2@@std@@V12@@std@@@std@@@std@@@std@@_N@std@@QEAA@$$QEAV?$_Tree_iterator@V?$_Tree_val@U?$_Tree_simple_types@U?$pair@$$CBV?$basic_string@DU?$char_traits@D@std@@V?$allocator@D@2@@std@@V12@@std@@@std@@@std@@@1@$$QEA_N@Z
   5AC6DE ??$?0V?$_Tree_iterator@V?$_Tree_val@U?$_Tree_simple_types@U?$pair@$$CBV?$basic_string@DU?$char_traits@D@std@@V?$allocator@D@2@@std@@W4EMDLabel@relion@@@std@@@std@@@std@@@std@@_N$0A@@?$pair@V?$_Tree_iterator@V?$_Tree_val@U?$_Tree_simple_types@U?$pair@$$CBV?$basic_string@DU?$char_traits@D@std@@V?$allocator@D@2@@std@@W4EMDLabel@relion@@@std@@@std@@@std@@@std@@_N@std@@QEAA@$$QEAV?$_Tree_iterator@V?$_Tree_val@U?$_Tree_simple_types@U?$pair@$$CBV?$basic_string@DU?$char_traits@D@std@@V?$allocator@D@2@@std@@W4EMDLabel@relion@@@std@@@std@@@std@@@1@$$QEA_N@Z
   5AC6DE ??$?0V?$_Tree_iterator@V?$_Tree_val@U?$_Tree_simple_types@U?$pair@$$CBW4EMDLabel@relion@@VEMDLabelData@2@@std@@@std@@@std@@@std@@_N$0A@@?$pair@V?$_Tree_iterator@V?$_Tree_val@U?$_Tree_simple_types@U?$pair@$$CBW4EMDLabel@relion@@VEMDLabelData@2@@std@@@std@@@std@@@std@@_N@std@@QEAA@$$QEAV?$_Tree_iterator@V?$_Tree_val@U?$_Tree_simple_types@U?$pair@$$CBW4EMDLabel@relion@@VEMDLabelData@2@@std@@@std@@@std@@@1@$$QEA_N@Z
   5AC6DE ??$?0V?$tuple@AEBV?$basic_string@DU?$char_traits@D@std@@V?$allocator@D@2@@std@@@std@@V?$tuple@$$V@1@$0A@$$Z$S@?$pair@$$CBV?$basic_string@DU?$char_traits@D@std@@V?$allocator@D@2@@std@@V12@@std@@QEAA@AEAV?$tuple@AEBV?$basic_string@DU?$char_traits@D@std@@V?$allocator@D@2@@std@@@1@AEAV?$tuple@$$V@1@U?$integer_sequence@_K$0A@@1@U?$integer_sequence@_K$S@1@@Z
   5AC6DE ??$?0V?$tuple@AEBV?$basic_string@DU?$char_traits@D@std@@V?$allocator@D@2@@std@@@std@@V?$tuple@$$V@1@$0A@$$Z$S@?$pair@$$CBV?$basic_string@DU?$char_traits@D@std@@V?$allocator@D@2@@std@@W4EMDLabel@relion@@@std@@QEAA@AEAV?$tuple@AEBV?$basic_string@DU?$char_traits@D@std@@V?$allocator@D@2@@std@@@1@AEAV?$tuple@$$V@1@U?$integer_sequence@_K$0A@@1@U?$integer_sequence@_K$S@1@@Z
   5AC6DE ??$?0V?$tuple@AEBW4EMDLabel@relion@@@std@@V?$tuple@$$V@1@$0A@$$Z$S@?$pair@$$CBW4EMDLabel@relion@@VEMDLabelData@2@@std@@QEAA@AEAV?$tuple@AEBW4EMDLabel@relion@@@1@AEAV?$tuple@$$V@1@U?$integer_sequence@_K$0A@@1@U?$integer_sequence@_K$S@1@@Z
   5AC6DE ??$_Adl_verify_range1@V?$_Vector_const_iterator@V?$_Vector_val@U?$_Simple_types@W4EMDLabel@relion@@@std@@@std@@@std@@V12@@std@@YAXAEBV?$_Vector_const_iterator@V?$_Vector_val@U?$_Simple_types@W4EMDLabel@relion@@@std@@@std@@@0@0U?$integral_constant@_N$00@0@@Z
   5AC6DE ??$_Adl_verify_range@V?$_Vector_const_iterator@V?$_Vector_val@U?$_Simple_types@W4EMDLabel@relion@@@std@@@std@@@std@@V12@@std@@YAXAEBV?$_Vector_const_iterator@V?$_Vector_val@U?$_Simple_types@W4EMDLabel@relion@@@std@@@std@@@0@0@Z
   5AC6DE ??$_Buy_if_not_node@AEAU?$pair@$$CBV?$basic_string@DU?$char_traits@D@std@@V?$allocator@D@2@@std@@V12@@std@@@?$_Tree@V?$_Tmap_traits@V?$basic_string@DU?$char_traits@D@std@@V?$allocator@D@2@@std@@V12@U?$less@V?$basic_string@DU?$char_traits@D@std@@V?$allocator@D@2@@std@@@2@V?$allocator@U?$pair@$$CBV?$basic_string@DU?$char_traits@D@std@@V?$allocator@D@2@@std@@V12@@std@@@2@$0A@@std@@@std@@IEAAPEAU?$_Tree_node@U?$pair@$$CBV?$basic_string@DU?$char_traits@D@std@@V?$allocator@D@2@@std@@V12@@std@@PEAX@1@PEAU21@AEAU?$pair@$$CBV?$basic_string@DU?$char_traits@D@std@@V?$allocator@D@2@@std@@V12@@1@@Z
   5AC6DE ??$_Buy_if_not_node@AEAU?$pair@$$CBV?$basic_string@DU?$char_traits@D@std@@V?$allocator@D@2@@std@@W4EMDLabel@relion@@@std@@@?$_Tree@V?$_Tmap_traits@V?$basic_string@DU?$char_traits@D@std@@V?$allocator@D@2@@std@@W4EMDLabel@relion@@U?$less@V?$basic_string@DU?$char_traits@D@std@@V?$allocator@D@2@@std@@@2@V?$allocator@U?$pair@$$CBV?$basic_string@DU?$char_traits@D@std@@V?$allocator@D@2@@std@@W4EMDLabel@relion@@@std@@@2@$0A@@std@@@std@@IEAAPEAU?$_Tree_node@U?$pair@$$CBV?$basic_string@DU?$char_traits@D@std@@V?$allocator@D@2@@std@@W4EMDLabel@relion@@@std@@PEAX@1@PEAU21@AEAU?$pair@$$CBV?$basic_string@DU?$char_traits@D@std@@V?$allocator@D@2@@std@@W4EMDLabel@relion@@@1@@Z
   5AC6DE ??$_Buy_if_not_node@AEAU?$pair@$$CBW4EMDLabel@relion@@VEMDLabelData@2@@std@@@?$_Tree@V?$_Tmap_traits@W4EMDLabel@relion@@VEMDLabelData@2@U?$less@W4EMDLabel@relion@@@std@@V?$allocator@U?$pair@$$CBW4EMDLabel@relion@@VEMDLabelData@2@@std@@@5@$0A@@std@@@std@@IEAAPEAU?$_Tree_node@U?$pair@$$CBW4EMDLabel@relion@@VEMDLabelData@2@@std@@PEAX@1@PEAU21@AEAU?$pair@$$CBW4EMDLabel@relion@@VEMDLabelData@2@@1@@Z
   5AC6DE ??$_Buynode@AEBUpiecewise_construct_t@std@@V?$tuple@AEBV?$basic_string@DU?$char_traits@D@std@@V?$allocator@D@2@@std@@@2@V?$tuple@$$V@2@@?$_Tree_comp_alloc@V?$_Tmap_traits@V?$basic_string@DU?$char_traits@D@std@@V?$allocator@D@2@@std@@V12@U?$less@V?$basic_string@DU?$char_traits@D@std@@V?$allocator@D@2@@std@@@2@V?$allocator@U?$pair@$$CBV?$basic_string@DU?$char_traits@D@std@@V?$allocator@D@2@@std@@V12@@std@@@2@$0A@@std@@@std@@QEAAPEAU?$_Tree_node@U?$pair@$$CBV?$basic_string@DU?$char_traits@D@std@@V?$allocator@D@2@@std@@V12@@std@@PEAX@1@AEBUpiecewise_construct_t@1@$$QEAV?$tuple@AEBV?$basic_string@DU?$char_traits@D@std@@V?$allocator@D@2@@std@@@1@$$QEAV?$tuple@$$V@1@@Z
   5AC6DE ??$_Buynode@AEBUpiecewise_construct_t@std@@V?$tuple@AEBV?$basic_string@DU?$char_traits@D@std@@V?$allocator@D@2@@std@@@2@V?$tuple@$$V@2@@?$_Tree_comp_alloc@V?$_Tmap_traits@V?$basic_string@DU?$char_traits@D@std@@V?$allocator@D@2@@std@@W4EMDLabel@relion@@U?$less@V?$basic_string@DU?$char_traits@D@std@@V?$allocator@D@2@@std@@@2@V?$allocator@U?$pair@$$CBV?$basic_string@DU?$char_traits@D@std@@V?$allocator@D@2@@std@@W4EMDLabel@relion@@@std@@@2@$0A@@std@@@std@@QEAAPEAU?$_Tree_node@U?$pair@$$CBV?$basic_string@DU?$char_traits@D@std@@V?$allocator@D@2@@std@@W4EMDLabel@relion@@@std@@PEAX@1@AEBUpiecewise_construct_t@1@$$QEAV?$tuple@AEBV?$basic_string@DU?$char_traits@D@std@@V?$allocator@D@2@@std@@@1@$$QEAV?$tuple@$$V@1@@Z
   5AC6DE ??$_Buynode@AEBUpiecewise_construct_t@std@@V?$tuple@AEBW4EMDLabel@relion@@@2@V?$tuple@$$V@2@@?$_Tree_comp_alloc@V?$_Tmap_traits@W4EMDLabel@relion@@VEMDLabelData@2@U?$less@W4EMDLabel@relion@@@std@@V?$allocator@U?$pair@$$CBW4EMDLabel@relion@@VEMDLabelData@2@@std@@@5@$0A@@std@@@std@@QEAAPEAU?$_Tree_node@U?$pair@$$CBW4EMDLabel@relion@@VEMDLabelData@2@@std@@PEAX@1@AEBUpiecewise_construct_t@1@$$QEAV?$tuple@AEBW4EMDLabel@relion@@@1@$$QEAV?$tuple@$$V@1@@Z
   5AC6DE ??$_Debug_lt_pred@AEAU?$less@V?$basic_string@DU?$char_traits@D@std@@V?$allocator@D@2@@std@@@std@@AEBV?$basic_string@DU?$char_traits@D@std@@V?$allocator@D@2@@2@AEBV32@@std@@YA_NAEAU?$less@V?$basic_string@DU?$char_traits@D@std@@V?$allocator@D@2@@std@@@0@AEBV?$basic_string@DU?$char_traits@D@std@@V?$allocator@D@2@@0@1@Z
   5AC6DE ??$_Debug_lt_pred@AEAU?$less@W4EMDLabel@relion@@@std@@AEBW4EMDLabel@relion@@AEBW434@@std@@YA_NAEAU?$less@W4EMDLabel@relion@@@0@AEBW4EMDLabel@relion@@1@Z
   5AC6DE ??$_Debug_lt_pred@AEBU?$less@V?$basic_string@DU?$char_traits@D@std@@V?$allocator@D@2@@std@@@std@@AEBV?$basic_string@DU?$char_traits@D@std@@V?$allocator@D@2@@2@AEBV32@@std@@YA_NAEBU?$less@V?$basic_string@DU?$char_traits@D@std@@V?$allocator@D@2@@std@@@0@AEBV?$basic_string@DU?$char_traits@D@std@@V?$allocator@D@2@@0@1@Z
   5AC6DE ??$_Debug_lt_pred@AEBU?$less@W4EMDLabel@relion@@@std@@AEBW4EMDLabel@relion@@AEBW434@@std@@YA_NAEBU?$less@W4EMDLabel@relion@@@0@AEBW4EMDLabel@relion@@1@Z
   5AC6DE ??$_Find_unchecked1@PEBW4EMDLabel@relion@@W412@@std@@YAPEBW4EMDLabel@relion@@PEBW412@QEBW412@AEBW412@U?$integral_constant@_N$0A@@0@@Z
   5AC6DE ??$_Find_unchecked@PEBW4EMDLabel@relion@@W412@@std@@YAPEBW4EMDLabel@relion@@QEBW412@0AEBW412@@Z
   5AC6DE ??$_Freenode0@V?$allocator@U?$_Tree_node@U?$pair@$$CBV?$basic_string@DU?$char_traits@D@std@@V?$allocator@D@2@@std@@V12@@std@@PEAX@std@@@std@@@?$_Tree_node@U?$pair@$$CBV?$basic_string@DU?$char_traits@D@std@@V?$allocator@D@2@@std@@V12@@std@@PEAX@std@@SAXAEAV?$allocator@U?$_Tree_node@U?$pair@$$CBV?$basic_string@DU?$char_traits@D@std@@V?$allocator@D@2@@std@@V12@@std@@PEAX@std@@@1@PEAU01@@Z
   5AC6DE ??$_Freenode0@V?$allocator@U?$_Tree_node@U?$pair@$$CBV?$basic_string@DU?$char_traits@D@std@@V?$allocator@D@2@@std@@W4EMDLabel@relion@@@std@@PEAX@std@@@std@@@?$_Tree_node@U?$pair@$$CBV?$basic_string@DU?$char_traits@D@std@@V?$allocator@D@2@@std@@W4EMDLabel@relion@@@std@@PEAX@std@@SAXAEAV?$allocator@U?$_Tree_node@U?$pair@$$CBV?$basic_string@DU?$char_traits@D@std@@V?$allocator@D@2@@std@@W4EMDLabel@relion@@@std@@PEAX@std@@@1@PEAU01@@Z
   5AC6DE ??$_Freenode0@V?$allocator@U?$_Tree_node@U?$pair@$$CBW4EMDLabel@relion@@VEMDLabelData@2@@std@@PEAX@std@@@std@@@?$_Tree_node@U?$pair@$$CBW4EMDLabel@relion@@VEMDLabelData@2@@std@@PEAX@std@@SAXAEAV?$allocator@U?$_Tree_node@U?$pair@$$CBW4EMDLabel@relion@@VEMDLabelData@2@@std@@PEAX@std@@@1@PEAU01@@Z
   5AC6DE ??$_Get_size_of_n@$0FA@@std@@YA_K_K@Z
   5AC6DE ??$_Get_size_of_n@$0FI@@std@@YA_K_K@Z
   5AC6DE ??$_Get_size_of_n@$0HA@@std@@YA_K_K@Z
   5AC6DE ??$_Get_unwrapped@V?$_Vector_const_iterator@V?$_Vector_val@U?$_Simple_types@W4EMDLabel@relion@@@std@@@std@@@std@@$0A@@std@@YA@AEBV?$_Vector_const_iterator@V?$_Vector_val@U?$_Simple_types@W4EMDLabel@relion@@@std@@@std@@@0@@Z
   5AC6DE ??$_Insert_at@AEAU?$pair@$$CBV?$basic_string@DU?$char_traits@D@std@@V?$allocator@D@2@@std@@V12@@std@@PEAU?$_Tree_node@U?$pair@$$CBV?$basic_string@DU?$char_traits@D@std@@V?$allocator@D@2@@std@@V12@@std@@PEAX@2@@?$_Tree@V?$_Tmap_traits@V?$basic_string@DU?$char_traits@D@std@@V?$allocator@D@2@@std@@V12@U?$less@V?$basic_string@DU?$char_traits@D@std@@V?$allocator@D@2@@std@@@2@V?$allocator@U?$pair@$$CBV?$basic_string@DU?$char_traits@D@std@@V?$allocator@D@2@@std@@V12@@std@@@2@$0A@@std@@@std@@IEAA?AV?$_Tree_iterator@V?$_Tree_val@U?$_Tree_simple_types@U?$pair@$$CBV?$basic_string@DU?$char_traits@D@std@@V?$allocator@D@2@@std@@V12@@std@@@std@@@std@@@1@_NPEAU?$_Tree_node@U?$pair@$$CBV?$basic_string@DU?$char_traits@D@std@@V?$allocator@D@2@@std@@V12@@std@@PEAX@1@AEAU?$pair@$$CBV?$basic_string@DU?$char_traits@D@std@@V?$allocator@D@2@@std@@V12@@1@1@Z
   5AC6DE ??$_Insert_at@AEAU?$pair@$$CBV?$basic_string@DU?$char_traits@D@std@@V?$allocator@D@2@@std@@W4EMDLabel@relion@@@std@@PEAU?$_Tree_node@U?$pair@$$CBV?$basic_string@DU?$char_traits@D@std@@V?$allocator@D@2@@std@@W4EMDLabel@relion@@@std@@PEAX@2@@?$_Tree@V?$_Tmap_traits@V?$basic_string@DU?$char_traits@D@std@@V?$allocator@D@2@@std@@W4EMDLabel@relion@@U?$less@V?$basic_string@DU?$char_traits@D@std@@V?$allocator@D@2@@std@@@2@V?$allocator@U?$pair@$$CBV?$basic_string@DU?$char_traits@D@std@@V?$allocator@D@2@@std@@W4EMDLabel@relion@@@std@@@2@$0A@@std@@@std@@IEAA?AV?$_Tree_iterator@V?$_Tree_val@U?$_Tree_simple_types@U?$pair@$$CBV?$basic_string@DU?$char_traits@D@std@@V?$allocator@D@2@@std@@W4EMDLabel@relion@@@std@@@std@@@std@@@1@_NPEAU?$_Tree_node@U?$pair@$$CBV?$basic_string@DU?$char_traits@D@std@@V?$allocator@D@2@@std@@W4EMDLabel@relion@@@std@@PEAX@1@AEAU?$pair@$$CBV?$basic_string@DU?$char_traits@D@std@@V?$allocator@D@2@@std@@W4EMDLabel@relion@@@1@1@Z
   5AC6DE ??$_Insert_at@AEAU?$pair@$$CBW4EMDLabel@relion@@VEMDLabelData@2@@std@@PEAU?$_Tree_node@U?$pair@$$CBW4EMDLabel@relion@@VEMDLabelData@2@@std@@PEAX@2@@?$_Tree@V?$_Tmap_traits@W4EMDLabel@relion@@VEMDLabelData@2@U?$less@W4EMDLabel@relion@@@std@@V?$allocator@U?$pair@$$CBW4EMDLabel@relion@@VEMDLabelData@2@@std@@@5@$0A@@std@@@std@@IEAA?AV?$_Tree_iterator@V?$_Tree_val@U?$_Tree_simple_types@U?$pair@$$CBW4EMDLabel@relion@@VEMDLabelData@2@@std@@@std@@@std@@@1@_NPEAU?$_Tree_node@U?$pair@$$CBW4EMDLabel@relion@@VEMDLabelData@2@@std@@PEAX@1@AEAU?$pair@$$CBW4EMDLabel@relion@@VEMDLabelData@2@@1@1@Z
   5AC6DE ??$_Insert_hint@AEAU?$pair@$$CBV?$basic_string@DU?$char_traits@D@std@@V?$allocator@D@2@@std@@V12@@std@@PEAU?$_Tree_node@U?$pair@$$CBV?$basic_string@DU?$char_traits@D@std@@V?$allocator@D@2@@std@@V12@@std@@PEAX@2@@?$_Tree@V?$_Tmap_traits@V?$basic_string@DU?$char_traits@D@std@@V?$allocator@D@2@@std@@V12@U?$less@V?$basic_string@DU?$char_traits@D@std@@V?$allocator@D@2@@std@@@2@V?$allocator@U?$pair@$$CBV?$basic_string@DU?$char_traits@D@std@@V?$allocator@D@2@@std@@V12@@std@@@2@$0A@@std@@@std@@IEAA?AV?$_Tree_iterator@V?$_Tree_val@U?$_Tree_simple_types@U?$pair@$$CBV?$basic_string@DU?$char_traits@D@std@@V?$allocator@D@2@@std@@V12@@std@@@std@@@std@@@1@V?$_Tree_const_iterator@V?$_Tree_val@U?$_Tree_simple_types@U?$pair@$$CBV?$basic_string@DU?$char_traits@D@std@@V?$allocator@D@2@@std@@V12@@std@@@std@@@std@@@1@AEAU?$pair@$$CBV?$basic_string@DU?$char_traits@D@std@@V?$allocator@D@2@@std@@V12@@1@PEAU?$_Tree_node@U?$pair@$$CBV?$basic_string@DU?$char_traits@D@std@@V?$allocator@D@2@@std@@V12@@std@@PEAX@1@@Z
   5AC6DE ??$_Insert_hint@AEAU?$pair@$$CBV?$basic_string@DU?$char_traits@D@std@@V?$allocator@D@2@@std@@W4EMDLabel@relion@@@std@@PEAU?$_Tree_node@U?$pair@$$CBV?$basic_string@DU?$char_traits@D@std@@V?$allocator@D@2@@std@@W4EMDLabel@relion@@@std@@PEAX@2@@?$_Tree@V?$_Tmap_traits@V?$basic_string@DU?$char_traits@D@std@@V?$allocator@D@2@@std@@W4EMDLabel@relion@@U?$less@V?$basic_string@DU?$char_traits@D@std@@V?$allocator@D@2@@std@@@2@V?$allocator@U?$pair@$$CBV?$basic_string@DU?$char_traits@D@std@@V?$allocator@D@2@@std@@W4EMDLabel@relion@@@std@@@2@$0A@@std@@@std@@IEAA?AV?$_Tree_iterator@V?$_Tree_val@U?$_Tree_simple_types@U?$pair@$$CBV?$basic_string@DU?$char_traits@D@std@@V?$allocator@D@2@@std@@W4EMDLabel@relion@@@std@@@std@@@std@@@1@V?$_Tree_const_iterator@V?$_Tree_val@U?$_Tree_simple_types@U?$pair@$$CBV?$basic_string@DU?$char_traits@D@std@@V?$allocator@D@2@@std@@W4EMDLabel@relion@@@std@@@std@@@std@@@1@AEAU?$pair@$$CBV?$basic_string@DU?$char_traits@D@std@@V?$allocator@D@2@@std@@W4EMDLabel@relion@@@1@PEAU?$_Tree_node@U?$pair@$$CBV?$basic_string@DU?$char_traits@D@std@@V?$allocator@D@2@@std@@W4EMDLabel@relion@@@std@@PEAX@1@@Z
   5AC6DE ??$_Insert_hint@AEAU?$pair@$$CBW4EMDLabel@relion@@VEMDLabelData@2@@std@@PEAU?$_Tree_node@U?$pair@$$CBW4EMDLabel@relion@@VEMDLabelData@2@@std@@PEAX@2@@?$_Tree@V?$_Tmap_traits@W4EMDLabel@relion@@VEMDLabelData@2@U?$less@W4EMDLabel@relion@@@std@@V?$allocator@U?$pair@$$CBW4EMDLabel@relion@@VEMDLabelData@2@@std@@@5@$0A@@std@@@std@@IEAA?AV?$_Tree_iterator@V?$_Tree_val@U?$_Tree_simple_types@U?$pair@$$CBW4EMDLabel@relion@@VEMDLabelData@2@@std@@@std@@@std@@@1@V?$_Tree_const_iterator@V?$_Tree_val@U?$_Tree_simple_types@U?$pair@$$CBW4EMDLabel@relion@@VEMDLabelData@2@@std@@@std@@@std@@@1@AEAU?$pair@$$CBW4EMDLabel@relion@@VEMDLabelData@2@@1@PEAU?$_Tree_node@U?$pair@$$CBW4EMDLabel@relion@@VEMDLabelData@2@@std@@PEAX@1@@Z
   5AC6DE ??$_Insert_nohint@AEAU?$pair@$$CBV?$basic_string@DU?$char_traits@D@std@@V?$allocator@D@2@@std@@V12@@std@@PEAU?$_Tree_node@U?$pair@$$CBV?$basic_string@DU?$char_traits@D@std@@V?$allocator@D@2@@std@@V12@@std@@PEAX@2@@?$_Tree@V?$_Tmap_traits@V?$basic_string@DU?$char_traits@D@std@@V?$allocator@D@2@@std@@V12@U?$less@V?$basic_string@DU?$char_traits@D@std@@V?$allocator@D@2@@std@@@2@V?$allocator@U?$pair@$$CBV?$basic_string@DU?$char_traits@D@std@@V?$allocator@D@2@@std@@V12@@std@@@2@$0A@@std@@@std@@IEAA?AU?$pair@V?$_Tree_iterator@V?$_Tree_val@U?$_Tree_simple_types@U?$pair@$$CBV?$basic_string@DU?$char_traits@D@std@@V?$allocator@D@2@@std@@V12@@std@@@std@@@std@@@std@@_N@1@_NAEAU?$pair@$$CBV?$basic_string@DU?$char_traits@D@std@@V?$allocator@D@2@@std@@V12@@1@PEAU?$_Tree_node@U?$pair@$$CBV?$basic_string@DU?$char_traits@D@std@@V?$allocator@D@2@@std@@V12@@std@@PEAX@1@@Z
   5AC6DE ??$_Insert_nohint@AEAU?$pair@$$CBV?$basic_string@DU?$char_traits@D@std@@V?$allocator@D@2@@std@@W4EMDLabel@relion@@@std@@PEAU?$_Tree_node@U?$pair@$$CBV?$basic_string@DU?$char_traits@D@std@@V?$allocator@D@2@@std@@W4EMDLabel@relion@@@std@@PEAX@2@@?$_Tree@V?$_Tmap_traits@V?$basic_string@DU?$char_traits@D@std@@V?$allocator@D@2@@std@@W4EMDLabel@relion@@U?$less@V?$basic_string@DU?$char_traits@D@std@@V?$allocator@D@2@@std@@@2@V?$allocator@U?$pair@$$CBV?$basic_string@DU?$char_traits@D@std@@V?$allocator@D@2@@std@@W4EMDLabel@relion@@@std@@@2@$0A@@std@@@std@@IEAA?AU?$pair@V?$_Tree_iterator@V?$_Tree_val@U?$_Tree_simple_types@U?$pair@$$CBV?$basic_string@DU?$char_traits@D@std@@V?$allocator@D@2@@std@@W4EMDLabel@relion@@@std@@@std@@@std@@@std@@_N@1@_NAEAU?$pair@$$CBV?$basic_string@DU?$char_traits@D@std@@V?$allocator@D@2@@std@@W4EMDLabel@relion@@@1@PEAU?$_Tree_node@U?$pair@$$CBV?$basic_string@DU?$char_traits@D@std@@V?$allocator@D@2@@std@@W4EMDLabel@relion@@@std@@PEAX@1@@Z
   5AC6DE ??$_Insert_nohint@AEAU?$pair@$$CBW4EMDLabel@relion@@VEMDLabelData@2@@std@@PEAU?$_Tree_node@U?$pair@$$CBW4EMDLabel@relion@@VEMDLabelData@2@@std@@PEAX@2@@?$_Tree@V?$_Tmap_traits@W4EMDLabel@relion@@VEMDLabelData@2@U?$less@W4EMDLabel@relion@@@std@@V?$allocator@U?$pair@$$CBW4EMDLabel@relion@@VEMDLabelData@2@@std@@@5@$0A@@std@@@std@@IEAA?AU?$pair@V?$_Tree_iterator@V?$_Tree_val@U?$_Tree_simple_types@U?$pair@$$CBW4EMDLabel@relion@@VEMDLabelData@2@@std@@@std@@@std@@@std@@_N@1@_NAEAU?$pair@$$CBW4EMDLabel@relion@@VEMDLabelData@2@@1@PEAU?$_Tree_node@U?$pair@$$CBW4EMDLabel@relion@@VEMDLabelData@2@@std@@PEAX@1@@Z
   5AC6DE ??$_Kfn@$$CBV?$basic_string@DU?$char_traits@D@std@@V?$allocator@D@2@@std@@V12@@?$_Tmap_traits@V?$basic_string@DU?$char_traits@D@std@@V?$allocator@D@2@@std@@V12@U?$less@V?$basic_string@DU?$char_traits@D@std@@V?$allocator@D@2@@std@@@2@V?$allocator@U?$pair@$$CBV?$basic_string@DU?$char_traits@D@std@@V?$allocator@D@2@@std@@V12@@std@@@2@$0A@@std@@SAAEBV?$basic_string@DU?$char_traits@D@std@@V?$allocator@D@2@@1@AEBU?$pair@$$CBV?$basic_string@DU?$char_traits@D@std@@V?$allocator@D@2@@std@@V12@@1@@Z
   5AC6DE ??$_Kfn@$$CBV?$basic_string@DU?$char_traits@D@std@@V?$allocator@D@2@@std@@W4EMDLabel@relion@@@?$_Tmap_traits@V?$basic_string@DU?$char_traits@D@std@@V?$allocator@D@2@@std@@W4EMDLabel@relion@@U?$less@V?$basic_string@DU?$char_traits@D@std@@V?$allocator@D@2@@std@@@2@V?$allocator@U?$pair@$$CBV?$basic_string@DU?$char_traits@D@std@@V?$allocator@D@2@@std@@W4EMDLabel@relion@@@std@@@2@$0A@@std@@SAAEBV?$basic_string@DU?$char_traits@D@std@@V?$allocator@D@2@@1@AEBU?$pair@$$CBV?$basic_string@DU?$char_traits@D@std@@V?$allocator@D@2@@std@@W4EMDLabel@relion@@@1@@Z
   5AC6DE ??$_Kfn@$$CBW4EMDLabel@relion@@VEMDLabelData@2@@?$_Tmap_traits@W4EMDLabel@relion@@VEMDLabelData@2@U?$less@W4EMDLabel@relion@@@std@@V?$allocator@U?$pair@$$CBW4EMDLabel@relion@@VEMDLabelData@2@@std@@@5@$0A@@std@@SAAEBW4EMDLabel@relion@@AEBU?$pair@$$CBW4EMDLabel@relion@@VEMDLabelData@2@@1@@Z
   5AC6DE ??$_Lbound@V?$basic_string@DU?$char_traits@D@std@@V?$allocator@D@2@@std@@@?$_Tree@V?$_Tmap_traits@V?$basic_string@DU?$char_traits@D@std@@V?$allocator@D@2@@std@@V12@U?$less@V?$basic_string@DU?$char_traits@D@std@@V?$allocator@D@2@@std@@@2@V?$allocator@U?$pair@$$CBV?$basic_string@DU?$char_traits@D@std@@V?$allocator@D@2@@std@@V12@@std@@@2@$0A@@std@@@std@@IEBAPEAU?$_Tree_node@U?$pair@$$CBV?$basic_string@DU?$char_traits@D@std@@V?$allocator@D@2@@std@@V12@@std@@PEAX@1@AEBV?$basic_string@DU?$char_traits@D@std@@V?$allocator@D@2@@1@@Z
   5AC6DE ??$_Lbound@V?$basic_string@DU?$char_traits@D@std@@V?$allocator@D@2@@std@@@?$_Tree@V?$_Tmap_traits@V?$basic_string@DU?$char_traits@D@std@@V?$allocator@D@2@@std@@W4EMDLabel@relion@@U?$less@V?$basic_string@DU?$char_traits@D@std@@V?$allocator@D@2@@std@@@2@V?$allocator@U?$pair@$$CBV?$basic_string@DU?$char_traits@D@std@@V?$allocator@D@2@@std@@W4EMDLabel@relion@@@std@@@2@$0A@@std@@@std@@IEBAPEAU?$_Tree_node@U?$pair@$$CBV?$basic_string@DU?$char_traits@D@std@@V?$allocator@D@2@@std@@W4EMDLabel@relion@@@std@@PEAX@1@AEBV?$basic_string@DU?$char_traits@D@std@@V?$allocator@D@2@@1@@Z
   5AC6DE ??$_Lbound@W4EMDLabel@relion@@@?$_Tree@V?$_Tmap_traits@W4EMDLabel@relion@@VEMDLabelData@2@U?$less@W4EMDLabel@relion@@@std@@V?$allocator@U?$pair@$$CBW4EMDLabel@relion@@VEMDLabelData@2@@std@@@5@$0A@@std@@@std@@IEBAPEAU?$_Tree_node@U?$pair@$$CBW4EMDLabel@relion@@VEMDLabelData@2@@std@@PEAX@1@AEBW4EMDLabel@relion@@@Z
   5AC6DE ??$_Seek_wrapped@V?$_Vector_const_iterator@V?$_Vector_val@U?$_Simple_types@W4EMDLabel@relion@@@std@@@std@@@std@@PEBW4EMDLabel@relion@@$0A@@std@@YAXAEAV?$_Vector_const_iterator@V?$_Vector_val@U?$_Simple_types@W4EMDLabel@relion@@@std@@@std@@@0@AEBQEBW4EMDLabel@relion@@@Z
   5AC6DE ??$_Try_emplace@AEBV?$basic_string@DU?$char_traits@D@std@@V?$allocator@D@2@@std@@$$V@?$map@V?$basic_string@DU?$char_traits@D@std@@V?$allocator@D@2@@std@@V12@U?$less@V?$basic_string@DU?$char_traits@D@std@@V?$allocator@D@2@@std@@@2@V?$allocator@U?$pair@$$CBV?$basic_string@DU?$char_traits@D@std@@V?$allocator@D@2@@std@@V12@@std@@@2@@std@@QEAA?AU?$pair@V?$_Tree_iterator@V?$_Tree_val@U?$_Tree_simple_types@U?$pair@$$CBV?$basic_string@DU?$char_traits@D@std@@V?$allocator@D@2@@std@@V12@@std@@@std@@@std@@@std@@_N@1@AEBV?$basic_string@DU?$char_traits@D@std@@V?$allocator@D@2@@1@@Z
   5AC6DE ??$_Try_emplace@AEBV?$basic_string@DU?$char_traits@D@std@@V?$allocator@D@2@@std@@$$V@?$map@V?$basic_string@DU?$char_traits@D@std@@V?$allocator@D@2@@std@@W4EMDLabel@relion@@U?$less@V?$basic_string@DU?$char_traits@D@std@@V?$allocator@D@2@@std@@@2@V?$allocator@U?$pair@$$CBV?$basic_string@DU?$char_traits@D@std@@V?$allocator@D@2@@std@@W4EMDLabel@relion@@@std@@@2@@std@@QEAA?AU?$pair@V?$_Tree_iterator@V?$_Tree_val@U?$_Tree_simple_types@U?$pair@$$CBV?$basic_string@DU?$char_traits@D@std@@V?$allocator@D@2@@std@@W4EMDLabel@relion@@@std@@@std@@@std@@@std@@_N@1@AEBV?$basic_string@DU?$char_traits@D@std@@V?$allocator@D@2@@1@@Z
   5AC6DE ??$_Try_emplace@AEBW4EMDLabel@relion@@$$V@?$map@W4EMDLabel@relion@@VEMDLabelData@2@U?$less@W4EMDLabel@relion@@@std@@V?$allocator@U?$pair@$$CBW4EMDLabel@relion@@VEMDLabelData@2@@std@@@5@@std@@QEAA?AU?$pair@V?$_Tree_iterator@V?$_Tree_val@U?$_Tree_simple_types@U?$pair@$$CBW4EMDLabel@relion@@VEMDLabelData@2@@std@@@std@@@std@@@std@@_N@1@AEBW4EMDLabel@relion@@@Z
   5AC6DE ??$addressof@$$CBU?$pair@$$CBV?$basic_string@DU?$char_traits@D@std@@V?$allocator@D@2@@std@@V12@@std@@@std@@YAPEBU?$pair@$$CBV?$basic_string@DU?$char_traits@D@std@@V?$allocator@D@2@@std@@V12@@0@AEBU10@@Z
   5AC6DE ??$addressof@$$CBV?$_Vector_val@U?$_Simple_types@W4EMDLabel@relion@@@std@@@std@@@std@@YAPEBV?$_Vector_val@U?$_Simple_types@W4EMDLabel@relion@@@std@@@0@AEBV10@@Z
   5AC6DE ??$addressof@PEAU?$_Tree_node@U?$pair@$$CBV?$basic_string@DU?$char_traits@D@std@@V?$allocator@D@2@@std@@V12@@std@@PEAX@std@@@std@@YAPEAPEAU?$_Tree_node@U?$pair@$$CBV?$basic_string@DU?$char_traits@D@std@@V?$allocator@D@2@@std@@V12@@std@@PEAX@0@AEAPEAU10@@Z
   5AC6DE ??$addressof@PEAU?$_Tree_node@U?$pair@$$CBV?$basic_string@DU?$char_traits@D@std@@V?$allocator@D@2@@std@@W4EMDLabel@relion@@@std@@PEAX@std@@@std@@YAPEAPEAU?$_Tree_node@U?$pair@$$CBV?$basic_string@DU?$char_traits@D@std@@V?$allocator@D@2@@std@@W4EMDLabel@relion@@@std@@PEAX@0@AEAPEAU10@@Z
   5AC6DE ??$addressof@PEAU?$_Tree_node@U?$pair@$$CBW4EMDLabel@relion@@VEMDLabelData@2@@std@@PEAX@std@@@std@@YAPEAPEAU?$_Tree_node@U?$pair@$$CBW4EMDLabel@relion@@VEMDLabelData@2@@std@@PEAX@0@AEAPEAU10@@Z
   5AC6DE ??$addressof@U?$pair@$$CBV?$basic_string@DU?$char_traits@D@std@@V?$allocator@D@2@@std@@V12@@std@@@std@@YAPEAU?$pair@$$CBV?$basic_string@DU?$char_traits@D@std@@V?$allocator@D@2@@std@@V12@@0@AEAU10@@Z
   5AC6DE ??$addressof@U?$pair@$$CBV?$basic_string@DU?$char_traits@D@std@@V?$allocator@D@2@@std@@W4EMDLabel@relion@@@std@@@std@@YAPEAU?$pair@$$CBV?$basic_string@DU?$char_traits@D@std@@V?$allocator@D@2@@std@@W4EMDLabel@relion@@@0@AEAU10@@Z
   5AC6DE ??$addressof@U?$pair@$$CBW4EMDLabel@relion@@VEMDLabelData@2@@std@@@std@@YAPEAU?$pair@$$CBW4EMDLabel@relion@@VEMDLabelData@2@@0@AEAU10@@Z
   5AC6DE ??$addressof@V?$_Tree_val@U?$_Tree_simple_types@U?$pair@$$CBV?$basic_string@DU?$char_traits@D@std@@V?$allocator@D@2@@std@@V12@@std@@@std@@@std@@@std@@YAPEAV?$_Tree_val@U?$_Tree_simple_types@U?$pair@$$CBV?$basic_string@DU?$char_traits@D@std@@V?$allocator@D@2@@std@@V12@@std@@@std@@@0@AEAV10@@Z
   5AC6DE ??$addressof@V?$_Tree_val@U?$_Tree_simple_types@U?$pair@$$CBV?$basic_string@DU?$char_traits@D@std@@V?$allocator@D@2@@std@@W4EMDLabel@relion@@@std@@@std@@@std@@@std@@YAPEAV?$_Tree_val@U?$_Tree_simple_types@U?$pair@$$CBV?$basic_string@DU?$char_traits@D@std@@V?$allocator@D@2@@std@@W4EMDLabel@relion@@@std@@@std@@@0@AEAV10@@Z
   5AC6DE ??$addressof@V?$_Tree_val@U?$_Tree_simple_types@U?$pair@$$CBW4EMDLabel@relion@@VEMDLabelData@2@@std@@@std@@@std@@@std@@YAPEAV?$_Tree_val@U?$_Tree_simple_types@U?$pair@$$CBW4EMDLabel@relion@@VEMDLabelData@2@@std@@@std@@@0@AEAV10@@Z
   5AC6DE ??$construct@PEAU?$_Tree_node@U?$pair@$$CBV?$basic_string@DU?$char_traits@D@std@@V?$allocator@D@2@@std@@V12@@std@@PEAX@std@@AEAPEAU12@@?$_Default_allocator_traits@V?$allocator@U?$_Tree_node@U?$pair@$$CBV?$basic_string@DU?$char_traits@D@std@@V?$allocator@D@2@@std@@V12@@std@@PEAX@std@@@std@@@std@@SAXAEAV?$allocator@U?$_Tree_node@U?$pair@$$CBV?$basic_string@DU?$char_traits@D@std@@V?$allocator@D@2@@std@@V12@@std@@PEAX@std@@@1@QEAPEAU?$_Tree_node@U?$pair@$$CBV?$basic_string@DU?$char_traits@D@std@@V?$allocator@D@2@@std@@V12@@std@@PEAX@1@AEAPEAU31@@Z
   5AC6DE ??$construct@PEAU?$_Tree_node@U?$pair@$$CBV?$basic_string@DU?$char_traits@D@std@@V?$allocator@D@2@@std@@W4EMDLabel@relion@@@std@@PEAX@std@@AEAPEAU12@@?$_Default_allocator_traits@V?$allocator@U?$_Tree_node@U?$pair@$$CBV?$basic_string@DU?$char_traits@D@std@@V?$allocator@D@2@@std@@W4EMDLabel@relion@@@std@@PEAX@std@@@std@@@std@@SAXAEAV?$allocator@U?$_Tree_node@U?$pair@$$CBV?$basic_string@DU?$char_traits@D@std@@V?$allocator@D@2@@std@@W4EMDLabel@relion@@@std@@PEAX@std@@@1@QEAPEAU?$_Tree_node@U?$pair@$$CBV?$basic_string@DU?$char_traits@D@std@@V?$allocator@D@2@@std@@W4EMDLabel@relion@@@std@@PEAX@1@AEAPEAU31@@Z
   5AC6DE ??$construct@PEAU?$_Tree_node@U?$pair@$$CBW4EMDLabel@relion@@VEMDLabelData@2@@std@@PEAX@std@@AEAPEAU12@@?$_Default_allocator_traits@V?$allocator@U?$_Tree_node@U?$pair@$$CBW4EMDLabel@relion@@VEMDLabelData@2@@std@@PEAX@std@@@std@@@std@@SAXAEAV?$allocator@U?$_Tree_node@U?$pair@$$CBW4EMDLabel@relion@@VEMDLabelData@2@@std@@PEAX@std@@@1@QEAPEAU?$_Tree_node@U?$pair@$$CBW4EMDLabel@relion@@VEMDLabelData@2@@std@@PEAX@1@AEAPEAU31@@Z
   5AC6DE ??$construct@U?$pair@$$CBV?$basic_string@DU?$char_traits@D@std@@V?$allocator@D@2@@std@@V12@@std@@AEBUpiecewise_construct_t@2@V?$tuple@AEBV?$basic_string@DU?$char_traits@D@std@@V?$allocator@D@2@@std@@@2@V?$tuple@$$V@2@@?$_Default_allocator_traits@V?$allocator@U?$_Tree_node@U?$pair@$$CBV?$basic_string@DU?$char_traits@D@std@@V?$allocator@D@2@@std@@V12@@std@@PEAX@std@@@std@@@std@@SAXAEAV?$allocator@U?$_Tree_node@U?$pair@$$CBV?$basic_string@DU?$char_traits@D@std@@V?$allocator@D@2@@std@@V12@@std@@PEAX@std@@@1@QEAU?$pair@$$CBV?$basic_string@DU?$char_traits@D@std@@V?$allocator@D@2@@std@@V12@@1@AEBUpiecewise_construct_t@1@$$QEAV?$tuple@AEBV?$basic_string@DU?$char_traits@D@std@@V?$allocator@D@2@@std@@@1@$$QEAV?$tuple@$$V@1@@Z
   5AC6DE ??$construct@U?$pair@$$CBV?$basic_string@DU?$char_traits@D@std@@V?$allocator@D@2@@std@@W4EMDLabel@relion@@@std@@AEBUpiecewise_construct_t@2@V?$tuple@AEBV?$basic_string@DU?$char_traits@D@std@@V?$allocator@D@2@@std@@@2@V?$tuple@$$V@2@@?$_Default_allocator_traits@V?$allocator@U?$_Tree_node@U?$pair@$$CBV?$basic_string@DU?$char_traits@D@std@@V?$allocator@D@2@@std@@W4EMDLabel@relion@@@std@@PEAX@std@@@std@@@std@@SAXAEAV?$allocator@U?$_Tree_node@U?$pair@$$CBV?$basic_string@DU?$char_traits@D@std@@V?$allocator@D@2@@std@@W4EMDLabel@relion@@@std@@PEAX@std@@@1@QEAU?$pair@$$CBV?$basic_string@DU?$char_traits@D@std@@V?$allocator@D@2@@std@@W4EMDLabel@relion@@@1@AEBUpiecewise_construct_t@1@$$QEAV?$tuple@AEBV?$basic_string@DU?$char_traits@D@std@@V?$allocator@D@2@@std@@@1@$$QEAV?$tuple@$$V@1@@Z
   5AC6DE ??$construct@U?$pair@$$CBW4EMDLabel@relion@@VEMDLabelData@2@@std@@AEBUpiecewise_construct_t@2@V?$tuple@AEBW4EMDLabel@relion@@@2@V?$tuple@$$V@2@@?$_Default_allocator_traits@V?$allocator@U?$_Tree_node@U?$pair@$$CBW4EMDLabel@relion@@VEMDLabelData@2@@std@@PEAX@std@@@std@@@std@@SAXAEAV?$allocator@U?$_Tree_node@U?$pair@$$CBW4EMDLabel@relion@@VEMDLabelData@2@@std@@PEAX@std@@@1@QEAU?$pair@$$CBW4EMDLabel@relion@@VEMDLabelData@2@@1@AEBUpiecewise_construct_t@1@$$QEAV?$tuple@AEBW4EMDLabel@relion@@@1@$$QEAV?$tuple@$$V@1@@Z
   5AC6DE ??$destroy@PEAU?$_Tree_node@U?$pair@$$CBV?$basic_string@DU?$char_traits@D@std@@V?$allocator@D@2@@std@@V12@@std@@PEAX@std@@@?$_Default_allocator_traits@V?$allocator@U?$_Tree_node@U?$pair@$$CBV?$basic_string@DU?$char_traits@D@std@@V?$allocator@D@2@@std@@V12@@std@@PEAX@std@@@std@@@std@@SAXAEAV?$allocator@U?$_Tree_node@U?$pair@$$CBV?$basic_string@DU?$char_traits@D@std@@V?$allocator@D@2@@std@@V12@@std@@PEAX@std@@@1@QEAPEAU?$_Tree_node@U?$pair@$$CBV?$basic_string@DU?$char_traits@D@std@@V?$allocator@D@2@@std@@V12@@std@@PEAX@1@@Z
   5AC6DE ??$destroy@PEAU?$_Tree_node@U?$pair@$$CBV?$basic_string@DU?$char_traits@D@std@@V?$allocator@D@2@@std@@W4EMDLabel@relion@@@std@@PEAX@std@@@?$_Default_allocator_traits@V?$allocator@U?$_Tree_node@U?$pair@$$CBV?$basic_string@DU?$char_traits@D@std@@V?$allocator@D@2@@std@@W4EMDLabel@relion@@@std@@PEAX@std@@@std@@@std@@SAXAEAV?$allocator@U?$_Tree_node@U?$pair@$$CBV?$basic_string@DU?$char_traits@D@std@@V?$allocator@D@2@@std@@W4EMDLabel@relion@@@std@@PEAX@std@@@1@QEAPEAU?$_Tree_node@U?$pair@$$CBV?$basic_string@DU?$char_traits@D@std@@V?$allocator@D@2@@std@@W4EMDLabel@relion@@@std@@PEAX@1@@Z
   5AC6DE ??$destroy@PEAU?$_Tree_node@U?$pair@$$CBW4EMDLabel@relion@@VEMDLabelData@2@@std@@PEAX@std@@@?$_Default_allocator_traits@V?$allocator@U?$_Tree_node@U?$pair@$$CBW4EMDLabel@relion@@VEMDLabelData@2@@std@@PEAX@std@@@std@@@std@@SAXAEAV?$allocator@U?$_Tree_node@U?$pair@$$CBW4EMDLabel@relion@@VEMDLabelData@2@@std@@PEAX@std@@@1@QEAPEAU?$_Tree_node@U?$pair@$$CBW4EMDLabel@relion@@VEMDLabelData@2@@std@@PEAX@1@@Z
   5AC6DE ??$destroy@U?$pair@$$CBV?$basic_string@DU?$char_traits@D@std@@V?$allocator@D@2@@std@@V12@@std@@@?$_Default_allocator_traits@V?$allocator@U?$_Tree_node@U?$pair@$$CBV?$basic_string@DU?$char_traits@D@std@@V?$allocator@D@2@@std@@V12@@std@@PEAX@std@@@std@@@std@@SAXAEAV?$allocator@U?$_Tree_node@U?$pair@$$CBV?$basic_string@DU?$char_traits@D@std@@V?$allocator@D@2@@std@@V12@@std@@PEAX@std@@@1@QEAU?$pair@$$CBV?$basic_string@DU?$char_traits@D@std@@V?$allocator@D@2@@std@@V12@@1@@Z
   5AC6DE ??$destroy@U?$pair@$$CBV?$basic_string@DU?$char_traits@D@std@@V?$allocator@D@2@@std@@W4EMDLabel@relion@@@std@@@?$_Default_allocator_traits@V?$allocator@U?$_Tree_node@U?$pair@$$CBV?$basic_string@DU?$char_traits@D@std@@V?$allocator@D@2@@std@@W4EMDLabel@relion@@@std@@PEAX@std@@@std@@@std@@SAXAEAV?$allocator@U?$_Tree_node@U?$pair@$$CBV?$basic_string@DU?$char_traits@D@std@@V?$allocator@D@2@@std@@W4EMDLabel@relion@@@std@@PEAX@std@@@1@QEAU?$pair@$$CBV?$basic_string@DU?$char_traits@D@std@@V?$allocator@D@2@@std@@W4EMDLabel@relion@@@1@@Z
   5AC6DE ??$destroy@U?$pair@$$CBW4EMDLabel@relion@@VEMDLabelData@2@@std@@@?$_Default_allocator_traits@V?$allocator@U?$_Tree_node@U?$pair@$$CBW4EMDLabel@relion@@VEMDLabelData@2@@std@@PEAX@std@@@std@@@std@@SAXAEAV?$allocator@U?$_Tree_node@U?$pair@$$CBW4EMDLabel@relion@@VEMDLabelData@2@@std@@PEAX@std@@@1@QEAU?$pair@$$CBW4EMDLabel@relion@@VEMDLabelData@2@@1@@Z
   5AC6DE ??$emplace_hint@AEBUpiecewise_construct_t@std@@V?$tuple@AEBV?$basic_string@DU?$char_traits@D@std@@V?$allocator@D@2@@std@@@2@V?$tuple@$$V@2@@?$_Tree@V?$_Tmap_traits@V?$basic_string@DU?$char_traits@D@std@@V?$allocator@D@2@@std@@V12@U?$less@V?$basic_string@DU?$char_traits@D@std@@V?$allocator@D@2@@std@@@2@V?$allocator@U?$pair@$$CBV?$basic_string@DU?$char_traits@D@std@@V?$allocator@D@2@@std@@V12@@std@@@2@$0A@@std@@@std@@QEAA?AV?$_Tree_iterator@V?$_Tree_val@U?$_Tree_simple_types@U?$pair@$$CBV?$basic_string@DU?$char_traits@D@std@@V?$allocator@D@2@@std@@V12@@std@@@std@@@std@@@1@V?$_Tree_const_iterator@V?$_Tree_val@U?$_Tree_simple_types@U?$pair@$$CBV?$basic_string@DU?$char_traits@D@std@@V?$allocator@D@2@@std@@V12@@std@@@std@@@std@@@1@AEBUpiecewise_construct_t@1@$$QEAV?$tuple@AEBV?$basic_string@DU?$char_traits@D@std@@V?$allocator@D@2@@std@@@1@$$QEAV?$tuple@$$V@1@@Z
   5AC6DE ??$emplace_hint@AEBUpiecewise_construct_t@std@@V?$tuple@AEBV?$basic_string@DU?$char_traits@D@std@@V?$allocator@D@2@@std@@@2@V?$tuple@$$V@2@@?$_Tree@V?$_Tmap_traits@V?$basic_string@DU?$char_traits@D@std@@V?$allocator@D@2@@std@@W4EMDLabel@relion@@U?$less@V?$basic_string@DU?$char_traits@D@std@@V?$allocator@D@2@@std@@@2@V?$allocator@U?$pair@$$CBV?$basic_string@DU?$char_traits@D@std@@V?$allocator@D@2@@std@@W4EMDLabel@relion@@@std@@@2@$0A@@std@@@std@@QEAA?AV?$_Tree_iterator@V?$_Tree_val@U?$_Tree_simple_types@U?$pair@$$CBV?$basic_string@DU?$char_traits@D@std@@V?$allocator@D@2@@std@@W4EMDLabel@relion@@@std@@@std@@@std@@@1@V?$_Tree_const_iterator@V?$_Tree_val@U?$_Tree_simple_types@U?$pair@$$CBV?$basic_string@DU?$char_traits@D@std@@V?$allocator@D@2@@std@@W4EMDLabel@relion@@@std@@@std@@@std@@@1@AEBUpiecewise_construct_t@1@$$QEAV?$tuple@AEBV?$basic_string@DU?$char_traits@D@std@@V?$allocator@D@2@@std@@@1@$$QEAV?$tuple@$$V@1@@Z
   5AC6DE ??$emplace_hint@AEBUpiecewise_construct_t@std@@V?$tuple@AEBW4EMDLabel@relion@@@2@V?$tuple@$$V@2@@?$_Tree@V?$_Tmap_traits@W4EMDLabel@relion@@VEMDLabelData@2@U?$less@W4EMDLabel@relion@@@std@@V?$allocator@U?$pair@$$CBW4EMDLabel@relion@@VEMDLabelData@2@@std@@@5@$0A@@std@@@std@@QEAA?AV?$_Tree_iterator@V?$_Tree_val@U?$_Tree_simple_types@U?$pair@$$CBW4EMDLabel@relion@@VEMDLabelData@2@@std@@@std@@@std@@@1@V?$_Tree_const_iterator@V?$_Tree_val@U?$_Tree_simple_types@U?$pair@$$CBW4EMDLabel@relion@@VEMDLabelData@2@@std@@@std@@@std@@@1@AEBUpiecewise_construct_t@1@$$QEAV?$tuple@AEBW4EMDLabel@relion@@@1@$$QEAV?$tuple@$$V@1@@Z
   5AC6DE ??$find@V?$_Vector_const_iterator@V?$_Vector_val@U?$_Simple_types@W4EMDLabel@relion@@@std@@@std@@@std@@W4EMDLabel@relion@@@std@@YA?AV?$_Vector_const_iterator@V?$_Vector_val@U?$_Simple_types@W4EMDLabel@relion@@@std@@@std@@@0@V10@V10@AEBW4EMDLabel@relion@@@Z
   5AC6DE ??$forward@AEAPEAU?$_Tree_node@U?$pair@$$CBV?$basic_string@DU?$char_traits@D@std@@V?$allocator@D@2@@std@@V12@@std@@PEAX@std@@@std@@YAAEAPEAU?$_Tree_node@U?$pair@$$CBV?$basic_string@DU?$char_traits@D@std@@V?$allocator@D@2@@std@@V12@@std@@PEAX@0@AEAPEAU10@@Z
   5AC6DE ??$forward@AEAPEAU?$_Tree_node@U?$pair@$$CBV?$basic_string@DU?$char_traits@D@std@@V?$allocator@D@2@@std@@W4EMDLabel@relion@@@std@@PEAX@std@@@std@@YAAEAPEAU?$_Tree_node@U?$pair@$$CBV?$basic_string@DU?$char_traits@D@std@@V?$allocator@D@2@@std@@W4EMDLabel@relion@@@std@@PEAX@0@AEAPEAU10@@Z
   5AC6DE ??$forward@AEAPEAU?$_Tree_node@U?$pair@$$CBW4EMDLabel@relion@@VEMDLabelData@2@@std@@PEAX@std@@@std@@YAAEAPEAU?$_Tree_node@U?$pair@$$CBW4EMDLabel@relion@@VEMDLabelData@2@@std@@PEAX@0@AEAPEAU10@@Z
   5AC6DE ??$forward@AEAU?$pair@$$CBV?$basic_string@DU?$char_traits@D@std@@V?$allocator@D@2@@std@@V12@@std@@@std@@YAAEAU?$pair@$$CBV?$basic_string@DU?$char_traits@D@std@@V?$allocator@D@2@@std@@V12@@0@AEAU10@@Z
   5AC6DE ??$forward@AEAU?$pair@$$CBV?$basic_string@DU?$char_traits@D@std@@V?$allocator@D@2@@std@@W4EMDLabel@relion@@@std@@@std@@YAAEAU?$pair@$$CBV?$basic_string@DU?$char_traits@D@std@@V?$allocator@D@2@@std@@W4EMDLabel@relion@@@0@AEAU10@@Z
   5AC6DE ??$forward@AEAU?$pair@$$CBW4EMDLabel@relion@@VEMDLabelData@2@@std@@@std@@YAAEAU?$pair@$$CBW4EMDLabel@relion@@VEMDLabelData@2@@0@AEAU10@@Z
   5AC6DE ??$forward@AEAV?$_Tree_iterator@V?$_Tree_val@U?$_Tree_simple_types@U?$pair@$$CBV?$basic_string@DU?$char_traits@D@std@@V?$allocator@D@2@@std@@V12@@std@@@std@@@std@@@std@@@std@@YAAEAV?$_Tree_iterator@V?$_Tree_val@U?$_Tree_simple_types@U?$pair@$$CBV?$basic_string@DU?$char_traits@D@std@@V?$allocator@D@2@@std@@V12@@std@@@std@@@std@@@0@AEAV10@@Z
   5AC6DE ??$forward@AEAV?$_Tree_iterator@V?$_Tree_val@U?$_Tree_simple_types@U?$pair@$$CBV?$basic_string@DU?$char_traits@D@std@@V?$allocator@D@2@@std@@W4EMDLabel@relion@@@std@@@std@@@std@@@std@@@std@@YAAEAV?$_Tree_iterator@V?$_Tree_val@U?$_Tree_simple_types@U?$pair@$$CBV?$basic_string@DU?$char_traits@D@std@@V?$allocator@D@2@@std@@W4EMDLabel@relion@@@std@@@std@@@std@@@0@AEAV10@@Z
   5AC6DE ??$forward@AEAV?$_Tree_iterator@V?$_Tree_val@U?$_Tree_simple_types@U?$pair@$$CBW4EMDLabel@relion@@VEMDLabelData@2@@std@@@std@@@std@@@std@@@std@@YAAEAV?$_Tree_iterator@V?$_Tree_val@U?$_Tree_simple_types@U?$pair@$$CBW4EMDLabel@relion@@VEMDLabelData@2@@std@@@std@@@std@@@0@AEAV10@@Z
   5AC6DE ??$forward@AEBU?$less@V?$basic_string@DU?$char_traits@D@std@@V?$allocator@D@2@@std@@@std@@@std@@YAAEBU?$less@V?$basic_string@DU?$char_traits@D@std@@V?$allocator@D@2@@std@@@0@AEBU10@@Z
   5AC6DE ??$forward@AEBUpiecewise_construct_t@std@@@std@@YAAEBUpiecewise_construct_t@0@AEBU10@@Z
   5AC6DE ??$forward@V?$_Tree_iterator@V?$_Tree_val@U?$_Tree_simple_types@U?$pair@$$CBV?$basic_string@DU?$char_traits@D@std@@V?$allocator@D@2@@std@@V12@@std@@@std@@@std@@@std@@@std@@YA$$QEAV?$_Tree_iterator@V?$_Tree_val@U?$_Tree_simple_types@U?$pair@$$CBV?$basic_string@DU?$char_traits@D@std@@V?$allocator@D@2@@std@@V12@@std@@@std@@@std@@@0@AEAV10@@Z
   5AC6DE ??$forward@V?$_Tree_iterator@V?$_Tree_val@U?$_Tree_simple_types@U?$pair@$$CBV?$basic_string@DU?$char_traits@D@std@@V?$allocator@D@2@@std@@W4EMDLabel@relion@@@std@@@std@@@std@@@std@@@std@@YA$$QEAV?$_Tree_iterator@V?$_Tree_val@U?$_Tree_simple_types@U?$pair@$$CBV?$basic_string@DU?$char_traits@D@std@@V?$allocator@D@2@@std@@W4EMDLabel@relion@@@std@@@std@@@std@@@0@AEAV10@@Z
   5AC6DE ??$forward@V?$_Tree_iterator@V?$_Tree_val@U?$_Tree_simple_types@U?$pair@$$CBW4EMDLabel@relion@@VEMDLabelData@2@@std@@@std@@@std@@@std@@@std@@YA$$QEAV?$_Tree_iterator@V?$_Tree_val@U?$_Tree_simple_types@U?$pair@$$CBW4EMDLabel@relion@@VEMDLabelData@2@@std@@@std@@@std@@@0@AEAV10@@Z
   5AC6DE ??$forward@V?$tuple@$$V@std@@@std@@YA$$QEAV?$tuple@$$V@0@AEAV10@@Z
   5AC6DE ??$forward@V?$tuple@AEBV?$basic_string@DU?$char_traits@D@std@@V?$allocator@D@2@@std@@@std@@@std@@YA$$QEAV?$tuple@AEBV?$basic_string@DU?$char_traits@D@std@@V?$allocator@D@2@@std@@@0@AEAV10@@Z
   5AC6DE ??$forward@V?$tuple@AEBW4EMDLabel@relion@@@std@@@std@@YA$$QEAV?$tuple@AEBW4EMDLabel@relion@@@0@AEAV10@@Z
   5AC6DE ??$forward@_N@std@@YA$$QEA_NAEA_N@Z
   5AC6DE ??$forward_as_tuple@$$V@std@@YA?AV?$tuple@$$V@0@XZ
   5AC6DE ??$forward_as_tuple@AEBV?$basic_string@DU?$char_traits@D@std@@V?$allocator@D@2@@std@@@std@@YA?AV?$tuple@AEBV?$basic_string@DU?$char_traits@D@std@@V?$allocator@D@2@@std@@@0@AEBV?$basic_string@DU?$char_traits@D@std@@V?$allocator@D@2@@0@@Z
   5AC6DE ??$forward_as_tuple@AEBW4EMDLabel@relion@@@std@@YA?AV?$tuple@AEBW4EMDLabel@relion@@@0@AEBW4EMDLabel@relion@@@Z
   5AC6DE ??$get@$0A@AEBV?$basic_string@DU?$char_traits@D@std@@V?$allocator@D@2@@std@@@std@@YAAEBV?$basic_string@DU?$char_traits@D@std@@V?$allocator@D@2@@0@$$QEAV?$tuple@AEBV?$basic_string@DU?$char_traits@D@std@@V?$allocator@D@2@@std@@@0@@Z
   5AC6DE ??$get@$0A@AEBW4EMDLabel@relion@@@std@@YAAEBW4EMDLabel@relion@@$$QEAV?$tuple@AEBW4EMDLabel@relion@@@0@@Z
   5AC6DE ??$move@AEAV?$tuple@AEBV?$basic_string@DU?$char_traits@D@std@@V?$allocator@D@2@@std@@@std@@@std@@YA$$QEAV?$tuple@AEBV?$basic_string@DU?$char_traits@D@std@@V?$allocator@D@2@@std@@@0@AEAV10@@Z
   5AC6DE ??$move@AEAV?$tuple@AEBW4EMDLabel@relion@@@std@@@std@@YA$$QEAV?$tuple@AEBW4EMDLabel@relion@@@0@AEAV10@@Z
   5AC6DE ??$try_emplace@$$V@?$map@V?$basic_string@DU?$char_traits@D@std@@V?$allocator@D@2@@std@@V12@U?$less@V?$basic_string@DU?$char_traits@D@std@@V?$allocator@D@2@@std@@@2@V?$allocator@U?$pair@$$CBV?$basic_string@DU?$char_traits@D@std@@V?$allocator@D@2@@std@@V12@@std@@@2@@std@@QEAA?AU?$pair@V?$_Tree_iterator@V?$_Tree_val@U?$_Tree_simple_types@U?$pair@$$CBV?$basic_string@DU?$char_traits@D@std@@V?$allocator@D@2@@std@@V12@@std@@@std@@@std@@@std@@_N@1@AEBV?$basic_string@DU?$char_traits@D@std@@V?$allocator@D@2@@1@@Z
   5AC6DE ??$try_emplace@$$V@?$map@V?$basic_string@DU?$char_traits@D@std@@V?$allocator@D@2@@std@@W4EMDLabel@relion@@U?$less@V?$basic_string@DU?$char_traits@D@std@@V?$allocator@D@2@@std@@@2@V?$allocator@U?$pair@$$CBV?$basic_string@DU?$char_traits@D@std@@V?$allocator@D@2@@std@@W4EMDLabel@relion@@@std@@@2@@std@@QEAA?AU?$pair@V?$_Tree_iterator@V?$_Tree_val@U?$_Tree_simple_types@U?$pair@$$CBV?$basic_string@DU?$char_traits@D@std@@V?$allocator@D@2@@std@@W4EMDLabel@relion@@@std@@@std@@@std@@@std@@_N@1@AEBV?$basic_string@DU?$char_traits@D@std@@V?$allocator@D@2@@1@@Z
   5AC6DE ??$try_emplace@$$V@?$map@W4EMDLabel@relion@@VEMDLabelData@2@U?$less@W4EMDLabel@relion@@@std@@V?$allocator@U?$pair@$$CBW4EMDLabel@relion@@VEMDLabelData@2@@std@@@5@@std@@QEAA?AU?$pair@V?$_Tree_iterator@V?$_Tree_val@U?$_Tree_simple_types@U?$pair@$$CBW4EMDLabel@relion@@VEMDLabelData@2@@std@@@std@@@std@@@std@@_N@1@AEBW4EMDLabel@relion@@@Z
   5AC6DE ??0?$_Tree@V?$_Tmap_traits@V?$basic_string@DU?$char_traits@D@std@@V?$allocator@D@2@@std@@V12@U?$less@V?$basic_string@DU?$char_traits@D@std@@V?$allocator@D@2@@std@@@2@V?$allocator@U?$pair@$$CBV?$basic_string@DU?$char_traits@D@std@@V?$allocator@D@2@@std@@V12@@std@@@2@$0A@@std@@@std@@QEAA@AEBU?$less@V?$basic_string@DU?$char_traits@D@std@@V?$allocator@D@2@@std@@@1@@Z
   5AC6DE ??0?$_Tree@V?$_Tmap_traits@V?$basic_string@DU?$char_traits@D@std@@V?$allocator@D@2@@std@@W4EMDLabel@relion@@U?$less@V?$basic_string@DU?$char_traits@D@std@@V?$allocator@D@2@@std@@@2@V?$allocator@U?$pair@$$CBV?$basic_string@DU?$char_traits@D@std@@V?$allocator@D@2@@std@@W4EMDLabel@relion@@@std@@@2@$0A@@std@@@std@@QEAA@AEBU?$less@V?$basic_string@DU?$char_traits@D@std@@V?$allocator@D@2@@std@@@1@@Z
   5AC6DE ??0?$_Tree@V?$_Tmap_traits@W4EMDLabel@relion@@VEMDLabelData@2@U?$less@W4EMDLabel@relion@@@std@@V?$allocator@U?$pair@$$CBW4EMDLabel@relion@@VEMDLabelData@2@@std@@@5@$0A@@std@@@std@@QEAA@AEBU?$less@W4EMDLabel@relion@@@1@@Z
   5AC6DE ??0?$_Tree_comp_alloc@V?$_Tmap_traits@V?$basic_string@DU?$char_traits@D@std@@V?$allocator@D@2@@std@@V12@U?$less@V?$basic_string@DU?$char_traits@D@std@@V?$allocator@D@2@@std@@@2@V?$allocator@U?$pair@$$CBV?$basic_string@DU?$char_traits@D@std@@V?$allocator@D@2@@std@@V12@@std@@@2@$0A@@std@@@std@@QEAA@AEBU?$less@V?$basic_string@DU?$char_traits@D@std@@V?$allocator@D@2@@std@@@1@@Z
   5AC6DE ??0?$_Tree_comp_alloc@V?$_Tmap_traits@V?$basic_string@DU?$char_traits@D@std@@V?$allocator@D@2@@std@@W4EMDLabel@relion@@U?$less@V?$basic_string@DU?$char_traits@D@std@@V?$allocator@D@2@@std@@@2@V?$allocator@U?$pair@$$CBV?$basic_string@DU?$char_traits@D@std@@V?$allocator@D@2@@std@@W4EMDLabel@relion@@@std@@@2@$0A@@std@@@std@@QEAA@AEBU?$less@V?$basic_string@DU?$char_traits@D@std@@V?$allocator@D@2@@std@@@1@@Z
   5AC6DE ??0?$_Tree_comp_alloc@V?$_Tmap_traits@W4EMDLabel@relion@@VEMDLabelData@2@U?$less@W4EMDLabel@relion@@@std@@V?$allocator@U?$pair@$$CBW4EMDLabel@relion@@VEMDLabelData@2@@std@@@5@$0A@@std@@@std@@QEAA@AEBU?$less@W4EMDLabel@relion@@@1@@Z
   5AC6DE ??0?$_Tree_const_iterator@V?$_Tree_val@U?$_Tree_simple_types@U?$pair@$$CBV?$basic_string@DU?$char_traits@D@std@@V?$allocator@D@2@@std@@V12@@std@@@std@@@std@@@std@@QEAA@$$QEAV01@@Z
   5AC6DE ??0?$_Tree_const_iterator@V?$_Tree_val@U?$_Tree_simple_types@U?$pair@$$CBV?$basic_string@DU?$char_traits@D@std@@V?$allocator@D@2@@std@@V12@@std@@@std@@@std@@@std@@QEAA@AEBV01@@Z
   5AC6DE ??0?$_Tree_const_iterator@V?$_Tree_val@U?$_Tree_simple_types@U?$pair@$$CBV?$basic_string@DU?$char_traits@D@std@@V?$allocator@D@2@@std@@V12@@std@@@std@@@std@@@std@@QEAA@PEAU?$_Tree_node@U?$pair@$$CBV?$basic_string@DU?$char_traits@D@std@@V?$allocator@D@2@@std@@V12@@std@@PEAX@1@PEBV?$_Tree_val@U?$_Tree_simple_types@U?$pair@$$CBV?$basic_string@DU?$char_traits@D@std@@V?$allocator@D@2@@std@@V12@@std@@@std@@@1@@Z
   5AC6DE ??0?$_Tree_const_iterator@V?$_Tree_val@U?$_Tree_simple_types@U?$pair@$$CBV?$basic_string@DU?$char_traits@D@std@@V?$allocator@D@2@@std@@V12@@std@@@std@@@std@@@std@@QEAA@XZ
   5AC6DE ??0?$_Tree_const_iterator@V?$_Tree_val@U?$_Tree_simple_types@U?$pair@$$CBV?$basic_string@DU?$char_traits@D@std@@V?$allocator@D@2@@std@@W4EMDLabel@relion@@@std@@@std@@@std@@@std@@QEAA@$$QEAV01@@Z
   5AC6DE ??0?$_Tree_const_iterator@V?$_Tree_val@U?$_Tree_simple_types@U?$pair@$$CBV?$basic_string@DU?$char_traits@D@std@@V?$allocator@D@2@@std@@W4EMDLabel@relion@@@std@@@std@@@std@@@std@@QEAA@AEBV01@@Z
   5AC6DE ??0?$_Tree_const_iterator@V?$_Tree_val@U?$_Tree_simple_types@U?$pair@$$CBV?$basic_string@DU?$char_traits@D@std@@V?$allocator@D@2@@std@@W4EMDLabel@relion@@@std@@@std@@@std@@@std@@QEAA@PEAU?$_Tree_node@U?$pair@$$CBV?$basic_string@DU?$char_traits@D@std@@V?$allocator@D@2@@std@@W4EMDLabel@relion@@@std@@PEAX@1@PEBV?$_Tree_val@U?$_Tree_simple_types@U?$pair@$$CBV?$basic_string@DU?$char_traits@D@std@@V?$allocator@D@2@@std@@W4EMDLabel@relion@@@std@@@std@@@1@@Z
   5AC6DE ??0?$_Tree_const_iterator@V?$_Tree_val@U?$_Tree_simple_types@U?$pair@$$CBV?$basic_string@DU?$char_traits@D@std@@V?$allocator@D@2@@std@@W4EMDLabel@relion@@@std@@@std@@@std@@@std@@QEAA@XZ
   5AC6DE ??0?$_Tree_const_iterator@V?$_Tree_val@U?$_Tree_simple_types@U?$pair@$$CBW4EMDLabel@relion@@VEMDLabelData@2@@std@@@std@@@std@@@std@@QEAA@$$QEAV01@@Z
   5AC6DE ??0?$_Tree_const_iterator@V?$_Tree_val@U?$_Tree_simple_types@U?$pair@$$CBW4EMDLabel@relion@@VEMDLabelData@2@@std@@@std@@@std@@@std@@QEAA@AEBV01@@Z
   5AC6DE ??0?$_Tree_const_iterator@V?$_Tree_val@U?$_Tree_simple_types@U?$pair@$$CBW4EMDLabel@relion@@VEMDLabelData@2@@std@@@std@@@std@@@std@@QEAA@PEAU?$_Tree_node@U?$pair@$$CBW4EMDLabel@relion@@VEMDLabelData@2@@std@@PEAX@1@PEBV?$_Tree_val@U?$_Tree_simple_types@U?$pair@$$CBW4EMDLabel@relion@@VEMDLabelData@2@@std@@@std@@@1@@Z
   5AC6DE ??0?$_Tree_const_iterator@V?$_Tree_val@U?$_Tree_simple_types@U?$pair@$$CBW4EMDLabel@relion@@VEMDLabelData@2@@std@@@std@@@std@@@std@@QEAA@XZ
   5AC6DE ??0?$_Tree_iterator@V?$_Tree_val@U?$_Tree_simple_types@U?$pair@$$CBV?$basic_string@DU?$char_traits@D@std@@V?$allocator@D@2@@std@@V12@@std@@@std@@@std@@@std@@QEAA@$$QEAV01@@Z
   5AC6DE ??0?$_Tree_iterator@V?$_Tree_val@U?$_Tree_simple_types@U?$pair@$$CBV?$basic_string@DU?$char_traits@D@std@@V?$allocator@D@2@@std@@V12@@std@@@std@@@std@@@std@@QEAA@AEBV01@@Z
   5AC6DE ??0?$_Tree_iterator@V?$_Tree_val@U?$_Tree_simple_types@U?$pair@$$CBV?$basic_string@DU?$char_traits@D@std@@V?$allocator@D@2@@std@@V12@@std@@@std@@@std@@@std@@QEAA@PEAU?$_Tree_node@U?$pair@$$CBV?$basic_string@DU?$char_traits@D@std@@V?$allocator@D@2@@std@@V12@@std@@PEAX@1@PEBV?$_Tree_val@U?$_Tree_simple_types@U?$pair@$$CBV?$basic_string@DU?$char_traits@D@std@@V?$allocator@D@2@@std@@V12@@std@@@std@@@1@@Z
   5AC6DE ??0?$_Tree_iterator@V?$_Tree_val@U?$_Tree_simple_types@U?$pair@$$CBV?$basic_string@DU?$char_traits@D@std@@V?$allocator@D@2@@std@@W4EMDLabel@relion@@@std@@@std@@@std@@@std@@QEAA@$$QEAV01@@Z
   5AC6DE ??0?$_Tree_iterator@V?$_Tree_val@U?$_Tree_simple_types@U?$pair@$$CBV?$basic_string@DU?$char_traits@D@std@@V?$allocator@D@2@@std@@W4EMDLabel@relion@@@std@@@std@@@std@@@std@@QEAA@AEBV01@@Z
   5AC6DE ??0?$_Tree_iterator@V?$_Tree_val@U?$_Tree_simple_types@U?$pair@$$CBV?$basic_string@DU?$char_traits@D@std@@V?$allocator@D@2@@std@@W4EMDLabel@relion@@@std@@@std@@@std@@@std@@QEAA@PEAU?$_Tree_node@U?$pair@$$CBV?$basic_string@DU?$char_traits@D@std@@V?$allocator@D@2@@std@@W4EMDLabel@relion@@@std@@PEAX@1@PEBV?$_Tree_val@U?$_Tree_simple_types@U?$pair@$$CBV?$basic_string@DU?$char_traits@D@std@@V?$allocator@D@2@@std@@W4EMDLabel@relion@@@std@@@std@@@1@@Z
   5AC6DE ??0?$_Tree_iterator@V?$_Tree_val@U?$_Tree_simple_types@U?$pair@$$CBW4EMDLabel@relion@@VEMDLabelData@2@@std@@@std@@@std@@@std@@QEAA@$$QEAV01@@Z
   5AC6DE ??0?$_Tree_iterator@V?$_Tree_val@U?$_Tree_simple_types@U?$pair@$$CBW4EMDLabel@relion@@VEMDLabelData@2@@std@@@std@@@std@@@std@@QEAA@AEBV01@@Z
   5AC6DE ??0?$_Tree_iterator@V?$_Tree_val@U?$_Tree_simple_types@U?$pair@$$CBW4EMDLabel@relion@@VEMDLabelData@2@@std@@@std@@@std@@@std@@QEAA@PEAU?$_Tree_node@U?$pair@$$CBW4EMDLabel@relion@@VEMDLabelData@2@@std@@PEAX@1@PEBV?$_Tree_val@U?$_Tree_simple_types@U?$pair@$$CBW4EMDLabel@relion@@VEMDLabelData@2@@std@@@std@@@1@@Z
   5AC6DE ??0?$_Tree_unchecked_const_iterator@V?$_Tree_val@U?$_Tree_simple_types@U?$pair@$$CBV?$basic_string@DU?$char_traits@D@std@@V?$allocator@D@2@@std@@V12@@std@@@std@@@std@@U_Iterator_base12@2@@std@@QEAA@$$QEAV01@@Z
   5AC6DE ??0?$_Tree_unchecked_const_iterator@V?$_Tree_val@U?$_Tree_simple_types@U?$pair@$$CBV?$basic_string@DU?$char_traits@D@std@@V?$allocator@D@2@@std@@V12@@std@@@std@@@std@@U_Iterator_base12@2@@std@@QEAA@AEBV01@@Z
   5AC6DE ??0?$_Tree_unchecked_const_iterator@V?$_Tree_val@U?$_Tree_simple_types@U?$pair@$$CBV?$basic_string@DU?$char_traits@D@std@@V?$allocator@D@2@@std@@V12@@std@@@std@@@std@@U_Iterator_base12@2@@std@@QEAA@PEAU?$_Tree_node@U?$pair@$$CBV?$basic_string@DU?$char_traits@D@std@@V?$allocator@D@2@@std@@V12@@std@@PEAX@1@PEBV?$_Tree_val@U?$_Tree_simple_types@U?$pair@$$CBV?$basic_string@DU?$char_traits@D@std@@V?$allocator@D@2@@std@@V12@@std@@@std@@@1@@Z
   5AC6DE ??0?$_Tree_unchecked_const_iterator@V?$_Tree_val@U?$_Tree_simple_types@U?$pair@$$CBV?$basic_string@DU?$char_traits@D@std@@V?$allocator@D@2@@std@@V12@@std@@@std@@@std@@U_Iterator_base12@2@@std@@QEAA@XZ
   5AC6DE ??0?$_Tree_unchecked_const_iterator@V?$_Tree_val@U?$_Tree_simple_types@U?$pair@$$CBV?$basic_string@DU?$char_traits@D@std@@V?$allocator@D@2@@std@@W4EMDLabel@relion@@@std@@@std@@@std@@U_Iterator_base12@2@@std@@QEAA@$$QEAV01@@Z
   5AC6DE ??0?$_Tree_unchecked_const_iterator@V?$_Tree_val@U?$_Tree_simple_types@U?$pair@$$CBV?$basic_string@DU?$char_traits@D@std@@V?$allocator@D@2@@std@@W4EMDLabel@relion@@@std@@@std@@@std@@U_Iterator_base12@2@@std@@QEAA@AEBV01@@Z
   5AC6DE ??0?$_Tree_unchecked_const_iterator@V?$_Tree_val@U?$_Tree_simple_types@U?$pair@$$CBV?$basic_string@DU?$char_traits@D@std@@V?$allocator@D@2@@std@@W4EMDLabel@relion@@@std@@@std@@@std@@U_Iterator_base12@2@@std@@QEAA@PEAU?$_Tree_node@U?$pair@$$CBV?$basic_string@DU?$char_traits@D@std@@V?$allocator@D@2@@std@@W4EMDLabel@relion@@@std@@PEAX@1@PEBV?$_Tree_val@U?$_Tree_simple_types@U?$pair@$$CBV?$basic_string@DU?$char_traits@D@std@@V?$allocator@D@2@@std@@W4EMDLabel@relion@@@std@@@std@@@1@@Z
   5AC6DE ??0?$_Tree_unchecked_const_iterator@V?$_Tree_val@U?$_Tree_simple_types@U?$pair@$$CBV?$basic_string@DU?$char_traits@D@std@@V?$allocator@D@2@@std@@W4EMDLabel@relion@@@std@@@std@@@std@@U_Iterator_base12@2@@std@@QEAA@XZ
   5AC6DE ??0?$_Tree_unchecked_const_iterator@V?$_Tree_val@U?$_Tree_simple_types@U?$pair@$$CBW4EMDLabel@relion@@VEMDLabelData@2@@std@@@std@@@std@@U_Iterator_base12@2@@std@@QEAA@$$QEAV01@@Z
   5AC6DE ??0?$_Tree_unchecked_const_iterator@V?$_Tree_val@U?$_Tree_simple_types@U?$pair@$$CBW4EMDLabel@relion@@VEMDLabelData@2@@std@@@std@@@std@@U_Iterator_base12@2@@std@@QEAA@AEBV01@@Z
   5AC6DE ??0?$_Tree_unchecked_const_iterator@V?$_Tree_val@U?$_Tree_simple_types@U?$pair@$$CBW4EMDLabel@relion@@VEMDLabelData@2@@std@@@std@@@std@@U_Iterator_base12@2@@std@@QEAA@PEAU?$_Tree_node@U?$pair@$$CBW4EMDLabel@relion@@VEMDLabelData@2@@std@@PEAX@1@PEBV?$_Tree_val@U?$_Tree_simple_types@U?$pair@$$CBW4EMDLabel@relion@@VEMDLabelData@2@@std@@@std@@@1@@Z
   5AC6DE ??0?$_Tree_unchecked_const_iterator@V?$_Tree_val@U?$_Tree_simple_types@U?$pair@$$CBW4EMDLabel@relion@@VEMDLabelData@2@@std@@@std@@@std@@U_Iterator_base12@2@@std@@QEAA@XZ
   5AC6DE ??0?$_Tree_val@U?$_Tree_simple_types@U?$pair@$$CBV?$basic_string@DU?$char_traits@D@std@@V?$allocator@D@2@@std@@V12@@std@@@std@@@std@@QEAA@XZ
   5AC6DE ??0?$_Tree_val@U?$_Tree_simple_types@U?$pair@$$CBV?$basic_string@DU?$char_traits@D@std@@V?$allocator@D@2@@std@@W4EMDLabel@relion@@@std@@@std@@@std@@QEAA@XZ
   5AC6DE ??0?$_Tree_val@U?$_Tree_simple_types@U?$pair@$$CBW4EMDLabel@relion@@VEMDLabelData@2@@std@@@std@@@std@@QEAA@XZ
   5AC6DE ??0?$allocator@U?$_Tree_node@U?$pair@$$CBV?$basic_string@DU?$char_traits@D@std@@V?$allocator@D@2@@std@@V12@@std@@PEAX@std@@@std@@QEAA@XZ
   5AC6DE ??0?$allocator@U?$_Tree_node@U?$pair@$$CBV?$basic_string@DU?$char_traits@D@std@@V?$allocator@D@2@@std@@W4EMDLabel@relion@@@std@@PEAX@std@@@std@@QEAA@XZ
   5AC6DE ??0?$allocator@U?$_Tree_node@U?$pair@$$CBW4EMDLabel@relion@@VEMDLabelData@2@@std@@PEAX@std@@@std@@QEAA@XZ
   5AC6DE ??0?$map@V?$basic_string@DU?$char_traits@D@std@@V?$allocator@D@2@@std@@V12@U?$less@V?$basic_string@DU?$char_traits@D@std@@V?$allocator@D@2@@std@@@2@V?$allocator@U?$pair@$$CBV?$basic_string@DU?$char_traits@D@std@@V?$allocator@D@2@@std@@V12@@std@@@2@@std@@QEAA@XZ
   5AC6DE ??0?$map@V?$basic_string@DU?$char_traits@D@std@@V?$allocator@D@2@@std@@W4EMDLabel@relion@@U?$less@V?$basic_string@DU?$char_traits@D@std@@V?$allocator@D@2@@std@@@2@V?$allocator@U?$pair@$$CBV?$basic_string@DU?$char_traits@D@std@@V?$allocator@D@2@@std@@W4EMDLabel@relion@@@std@@@2@@std@@QEAA@XZ
   5AC6DE ??0?$map@W4EMDLabel@relion@@VEMDLabelData@2@U?$less@W4EMDLabel@relion@@@std@@V?$allocator@U?$pair@$$CBW4EMDLabel@relion@@VEMDLabelData@2@@std@@@5@@std@@QEAA@XZ
   5AC6DE ??0?$tuple@$$V@std@@QEAA@AEBV01@@Z
   5AC6DE ??0?$tuple@$$V@std@@QEAA@XZ
   5AC6DE ??0?$tuple@AEBV?$basic_string@DU?$char_traits@D@std@@V?$allocator@D@2@@std@@@std@@QEAA@$$QEAV01@@Z
   5AC6DE ??0?$tuple@AEBW4EMDLabel@relion@@@std@@QEAA@$$QEAV01@@Z
   5AC6DE ??0EMDLabelData@relion@@QEAA@W4EMDLabelType@1@V?$basic_string@DU?$char_traits@D@std@@V?$allocator@D@2@@std@@@Z
   5AC6DE ??0EMDLabelData@relion@@QEAA@XZ
   5AC6DE ??0StaticInitialization@relion@@AEAA@XZ
   5AC6DE ??1?$_Tree@V?$_Tmap_traits@V?$basic_string@DU?$char_traits@D@std@@V?$allocator@D@2@@std@@V12@U?$less@V?$basic_string@DU?$char_traits@D@std@@V?$allocator@D@2@@std@@@2@V?$allocator@U?$pair@$$CBV?$basic_string@DU?$char_traits@D@std@@V?$allocator@D@2@@std@@V12@@std@@@2@$0A@@std@@@std@@QEAA@XZ
   5AC6DE ??1?$_Tree@V?$_Tmap_traits@V?$basic_string@DU?$char_traits@D@std@@V?$allocator@D@2@@std@@W4EMDLabel@relion@@U?$less@V?$basic_string@DU?$char_traits@D@std@@V?$allocator@D@2@@std@@@2@V?$allocator@U?$pair@$$CBV?$basic_string@DU?$char_traits@D@std@@V?$allocator@D@2@@std@@W4EMDLabel@relion@@@std@@@2@$0A@@std@@@std@@QEAA@XZ
   5AC6DE ??1?$_Tree@V?$_Tmap_traits@W4EMDLabel@relion@@VEMDLabelData@2@U?$less@W4EMDLabel@relion@@@std@@V?$allocator@U?$pair@$$CBW4EMDLabel@relion@@VEMDLabelData@2@@std@@@5@$0A@@std@@@std@@QEAA@XZ
   5AC6DE ??1?$_Tree_comp_alloc@V?$_Tmap_traits@V?$basic_string@DU?$char_traits@D@std@@V?$allocator@D@2@@std@@V12@U?$less@V?$basic_string@DU?$char_traits@D@std@@V?$allocator@D@2@@std@@@2@V?$allocator@U?$pair@$$CBV?$basic_string@DU?$char_traits@D@std@@V?$allocator@D@2@@std@@V12@@std@@@2@$0A@@std@@@std@@QEAA@XZ
   5AC6DE ??1?$_Tree_comp_alloc@V?$_Tmap_traits@V?$basic_string@DU?$char_traits@D@std@@V?$allocator@D@2@@std@@W4EMDLabel@relion@@U?$less@V?$basic_string@DU?$char_traits@D@std@@V?$allocator@D@2@@std@@@2@V?$allocator@U?$pair@$$CBV?$basic_string@DU?$char_traits@D@std@@V?$allocator@D@2@@std@@W4EMDLabel@relion@@@std@@@2@$0A@@std@@@std@@QEAA@XZ
   5AC6DE ??1?$_Tree_comp_alloc@V?$_Tmap_traits@W4EMDLabel@relion@@VEMDLabelData@2@U?$less@W4EMDLabel@relion@@@std@@V?$allocator@U?$pair@$$CBW4EMDLabel@relion@@VEMDLabelData@2@@std@@@5@$0A@@std@@@std@@QEAA@XZ
   5AC6DE ??1?$_Tree_const_iterator@V?$_Tree_val@U?$_Tree_simple_types@U?$pair@$$CBV?$basic_string@DU?$char_traits@D@std@@V?$allocator@D@2@@std@@V12@@std@@@std@@@std@@@std@@QEAA@XZ
   5AC6DE ??1?$_Tree_const_iterator@V?$_Tree_val@U?$_Tree_simple_types@U?$pair@$$CBV?$basic_string@DU?$char_traits@D@std@@V?$allocator@D@2@@std@@W4EMDLabel@relion@@@std@@@std@@@std@@@std@@QEAA@XZ
   5AC6DE ??1?$_Tree_const_iterator@V?$_Tree_val@U?$_Tree_simple_types@U?$pair@$$CBW4EMDLabel@relion@@VEMDLabelData@2@@std@@@std@@@std@@@std@@QEAA@XZ
   5AC6DE ??1?$_Tree_iterator@V?$_Tree_val@U?$_Tree_simple_types@U?$pair@$$CBV?$basic_string@DU?$char_traits@D@std@@V?$allocator@D@2@@std@@V12@@std@@@std@@@std@@@std@@QEAA@XZ
   5AC6DE ??1?$_Tree_iterator@V?$_Tree_val@U?$_Tree_simple_types@U?$pair@$$CBV?$basic_string@DU?$char_traits@D@std@@V?$allocator@D@2@@std@@W4EMDLabel@relion@@@std@@@std@@@std@@@std@@QEAA@XZ
   5AC6DE ??1?$_Tree_iterator@V?$_Tree_val@U?$_Tree_simple_types@U?$pair@$$CBW4EMDLabel@relion@@VEMDLabelData@2@@std@@@std@@@std@@@std@@QEAA@XZ
   5AC6DE ??1?$_Tree_unchecked_const_iterator@V?$_Tree_val@U?$_Tree_simple_types@U?$pair@$$CBV?$basic_string@DU?$char_traits@D@std@@V?$allocator@D@2@@std@@V12@@std@@@std@@@std@@U_Iterator_base12@2@@std@@QEAA@XZ
   5AC6DE ??1?$_Tree_unchecked_const_iterator@V?$_Tree_val@U?$_Tree_simple_types@U?$pair@$$CBV?$basic_string@DU?$char_traits@D@std@@V?$allocator@D@2@@std@@W4EMDLabel@relion@@@std@@@std@@@std@@U_Iterator_base12@2@@std@@QEAA@XZ
   5AC6DE ??1?$_Tree_unchecked_const_iterator@V?$_Tree_val@U?$_Tree_simple_types@U?$pair@$$CBW4EMDLabel@relion@@VEMDLabelData@2@@std@@@std@@@std@@U_Iterator_base12@2@@std@@QEAA@XZ
   5AC6DE ??1?$map@V?$basic_string@DU?$char_traits@D@std@@V?$allocator@D@2@@std@@V12@U?$less@V?$basic_string@DU?$char_traits@D@std@@V?$allocator@D@2@@std@@@2@V?$allocator@U?$pair@$$CBV?$basic_string@DU?$char_traits@D@std@@V?$allocator@D@2@@std@@V12@@std@@@2@@std@@QEAA@XZ
   5AC6DE ??1?$map@V?$basic_string@DU?$char_traits@D@std@@V?$allocator@D@2@@std@@W4EMDLabel@relion@@U?$less@V?$basic_string@DU?$char_traits@D@std@@V?$allocator@D@2@@std@@@2@V?$allocator@U?$pair@$$CBV?$basic_string@DU?$char_traits@D@std@@V?$allocator@D@2@@std@@W4EMDLabel@relion@@@std@@@2@@std@@QEAA@XZ
   5AC6DE ??1?$map@W4EMDLabel@relion@@VEMDLabelData@2@U?$less@W4EMDLabel@relion@@@std@@V?$allocator@U?$pair@$$CBW4EMDLabel@relion@@VEMDLabelData@2@@std@@@5@@std@@QEAA@XZ
   5AC6DE ??1?$pair@$$CBV?$basic_string@DU?$char_traits@D@std@@V?$allocator@D@2@@std@@V12@@std@@QEAA@XZ
   5AC6DE ??1?$pair@$$CBV?$basic_string@DU?$char_traits@D@std@@V?$allocator@D@2@@std@@W4EMDLabel@relion@@@std@@QEAA@XZ
   5AC6DE ??1?$pair@$$CBW4EMDLabel@relion@@VEMDLabelData@2@@std@@QEAA@XZ
   5AC6DE ??1?$pair@V?$_Tree_iterator@V?$_Tree_val@U?$_Tree_simple_types@U?$pair@$$CBV?$basic_string@DU?$char_traits@D@std@@V?$allocator@D@2@@std@@V12@@std@@@std@@@std@@@std@@_N@std@@QEAA@XZ
   5AC6DE ??1?$pair@V?$_Tree_iterator@V?$_Tree_val@U?$_Tree_simple_types@U?$pair@$$CBV?$basic_string@DU?$char_traits@D@std@@V?$allocator@D@2@@std@@W4EMDLabel@relion@@@std@@@std@@@std@@@std@@_N@std@@QEAA@XZ
   5AC6DE ??1?$pair@V?$_Tree_iterator@V?$_Tree_val@U?$_Tree_simple_types@U?$pair@$$CBW4EMDLabel@relion@@VEMDLabelData@2@@std@@@std@@@std@@@std@@_N@std@@QEAA@XZ
   5AC6DE ??1EMDLabelData@relion@@QEAA@XZ
   5AC6DE ??1StaticInitialization@relion@@AEAA@XZ
   5AC6DE ??4?$_Tree_const_iterator@V?$_Tree_val@U?$_Tree_simple_types@U?$pair@$$CBV?$basic_string@DU?$char_traits@D@std@@V?$allocator@D@2@@std@@V12@@std@@@std@@@std@@@std@@QEAAAEAV01@$$QEAV01@@Z
   5AC6DE ??4?$_Tree_const_iterator@V?$_Tree_val@U?$_Tree_simple_types@U?$pair@$$CBV?$basic_string@DU?$char_traits@D@std@@V?$allocator@D@2@@std@@V12@@std@@@std@@@std@@@std@@QEAAAEAV01@AEBV01@@Z
   5AC6DE ??4?$_Tree_const_iterator@V?$_Tree_val@U?$_Tree_simple_types@U?$pair@$$CBV?$basic_string@DU?$char_traits@D@std@@V?$allocator@D@2@@std@@W4EMDLabel@relion@@@std@@@std@@@std@@@std@@QEAAAEAV01@AEBV01@@Z
   5AC6DE ??4?$_Tree_const_iterator@V?$_Tree_val@U?$_Tree_simple_types@U?$pair@$$CBW4EMDLabel@relion@@VEMDLabelData@2@@std@@@std@@@std@@@std@@QEAAAEAV01@AEBV01@@Z
   5AC6DE ??4?$_Tree_unchecked_const_iterator@V?$_Tree_val@U?$_Tree_simple_types@U?$pair@$$CBV?$basic_string@DU?$char_traits@D@std@@V?$allocator@D@2@@std@@V12@@std@@@std@@@std@@U_Iterator_base12@2@@std@@QEAAAEAV01@$$QEAV01@@Z
   5AC6DE ??4?$_Tree_unchecked_const_iterator@V?$_Tree_val@U?$_Tree_simple_types@U?$pair@$$CBV?$basic_string@DU?$char_traits@D@std@@V?$allocator@D@2@@std@@V12@@std@@@std@@@std@@U_Iterator_base12@2@@std@@QEAAAEAV01@AEBV01@@Z
   5AC6DE ??4?$_Tree_unchecked_const_iterator@V?$_Tree_val@U?$_Tree_simple_types@U?$pair@$$CBV?$basic_string@DU?$char_traits@D@std@@V?$allocator@D@2@@std@@W4EMDLabel@relion@@@std@@@std@@@std@@U_Iterator_base12@2@@std@@QEAAAEAV01@AEBV01@@Z
   5AC6DE ??4?$_Tree_unchecked_const_iterator@V?$_Tree_val@U?$_Tree_simple_types@U?$pair@$$CBW4EMDLabel@relion@@VEMDLabelData@2@@std@@@std@@@std@@U_Iterator_base12@2@@std@@QEAAAEAV01@AEBV01@@Z
   5AC6DE ??4EMDLabelData@relion@@QEAAAEAV01@$$QEAV01@@Z
   5AC6DE ??8?$_Tree_const_iterator@V?$_Tree_val@U?$_Tree_simple_types@U?$pair@$$CBV?$basic_string@DU?$char_traits@D@std@@V?$allocator@D@2@@std@@V12@@std@@@std@@@std@@@std@@QEBA_NAEBV01@@Z
   5AC6DE ??8?$_Tree_const_iterator@V?$_Tree_val@U?$_Tree_simple_types@U?$pair@$$CBV?$basic_string@DU?$char_traits@D@std@@V?$allocator@D@2@@std@@W4EMDLabel@relion@@@std@@@std@@@std@@@std@@QEBA_NAEBV01@@Z
   5AC6DE ??8?$_Tree_const_iterator@V?$_Tree_val@U?$_Tree_simple_types@U?$pair@$$CBW4EMDLabel@relion@@VEMDLabelData@2@@std@@@std@@@std@@@std@@QEBA_NAEBV01@@Z
   5AC6DE ??9?$_Tree_const_iterator@V?$_Tree_val@U?$_Tree_simple_types@U?$pair@$$CBV?$basic_string@DU?$char_traits@D@std@@V?$allocator@D@2@@std@@V12@@std@@@std@@@std@@@std@@QEBA_NAEBV01@@Z
   5AC6DE ??9?$_Tree_const_iterator@V?$_Tree_val@U?$_Tree_simple_types@U?$pair@$$CBV?$basic_string@DU?$char_traits@D@std@@V?$allocator@D@2@@std@@W4EMDLabel@relion@@@std@@@std@@@std@@@std@@QEBA_NAEBV01@@Z
   5AC6DE ??9?$_Tree_const_iterator@V?$_Tree_val@U?$_Tree_simple_types@U?$pair@$$CBW4EMDLabel@relion@@VEMDLabelData@2@@std@@@std@@@std@@@std@@QEBA_NAEBV01@@Z
   5AC6DE ??A?$map@V?$basic_string@DU?$char_traits@D@std@@V?$allocator@D@2@@std@@V12@U?$less@V?$basic_string@DU?$char_traits@D@std@@V?$allocator@D@2@@std@@@2@V?$allocator@U?$pair@$$CBV?$basic_string@DU?$char_traits@D@std@@V?$allocator@D@2@@std@@V12@@std@@@2@@std@@QEAAAEAV?$basic_string@DU?$char_traits@D@std@@V?$allocator@D@2@@1@AEBV21@@Z
   5AC6DE ??A?$map@V?$basic_string@DU?$char_traits@D@std@@V?$allocator@D@2@@std@@W4EMDLabel@relion@@U?$less@V?$basic_string@DU?$char_traits@D@std@@V?$allocator@D@2@@std@@@2@V?$allocator@U?$pair@$$CBV?$basic_string@DU?$char_traits@D@std@@V?$allocator@D@2@@std@@W4EMDLabel@relion@@@std@@@2@@std@@QEAAAEAW4EMDLabel@relion@@AEBV?$basic_string@DU?$char_traits@D@std@@V?$allocator@D@2@@1@@Z
   5AC6DE ??A?$map@W4EMDLabel@relion@@VEMDLabelData@2@U?$less@W4EMDLabel@relion@@@std@@V?$allocator@U?$pair@$$CBW4EMDLabel@relion@@VEMDLabelData@2@@std@@@5@@std@@QEAAAEAVEMDLabelData@relion@@AEBW4EMDLabel@3@@Z
   5AC6DE ??C?$_Tree_const_iterator@V?$_Tree_val@U?$_Tree_simple_types@U?$pair@$$CBV?$basic_string@DU?$char_traits@D@std@@V?$allocator@D@2@@std@@V12@@std@@@std@@@std@@@std@@QEBAPEBU?$pair@$$CBV?$basic_string@DU?$char_traits@D@std@@V?$allocator@D@2@@std@@V12@@1@XZ
   5AC6DE ??C?$_Tree_iterator@V?$_Tree_val@U?$_Tree_simple_types@U?$pair@$$CBV?$basic_string@DU?$char_traits@D@std@@V?$allocator@D@2@@std@@V12@@std@@@std@@@std@@@std@@QEBAPEAU?$pair@$$CBV?$basic_string@DU?$char_traits@D@std@@V?$allocator@D@2@@std@@V12@@1@XZ
   5AC6DE ??C?$_Tree_iterator@V?$_Tree_val@U?$_Tree_simple_types@U?$pair@$$CBV?$basic_string@DU?$char_traits@D@std@@V?$allocator@D@2@@std@@W4EMDLabel@relion@@@std@@@std@@@std@@@std@@QEBAPEAU?$pair@$$CBV?$basic_string@DU?$char_traits@D@std@@V?$allocator@D@2@@std@@W4EMDLabel@relion@@@1@XZ
   5AC6DE ??C?$_Tree_iterator@V?$_Tree_val@U?$_Tree_simple_types@U?$pair@$$CBW4EMDLabel@relion@@VEMDLabelData@2@@std@@@std@@@std@@@std@@QEBAPEAU?$pair@$$CBW4EMDLabel@relion@@VEMDLabelData@2@@1@XZ
   5AC6DE ??D?$_Tree_const_iterator@V?$_Tree_val@U?$_Tree_simple_types@U?$pair@$$CBV?$basic_string@DU?$char_traits@D@std@@V?$allocator@D@2@@std@@V12@@std@@@std@@@std@@@std@@QEBAAEBU?$pair@$$CBV?$basic_string@DU?$char_traits@D@std@@V?$allocator@D@2@@std@@V12@@1@XZ
   5AC6DE ??D?$_Tree_const_iterator@V?$_Tree_val@U?$_Tree_simple_types@U?$pair@$$CBV?$basic_string@DU?$char_traits@D@std@@V?$allocator@D@2@@std@@W4EMDLabel@relion@@@std@@@std@@@std@@@std@@QEBAAEBU?$pair@$$CBV?$basic_string@DU?$char_traits@D@std@@V?$allocator@D@2@@std@@W4EMDLabel@relion@@@1@XZ
   5AC6DE ??D?$_Tree_const_iterator@V?$_Tree_val@U?$_Tree_simple_types@U?$pair@$$CBW4EMDLabel@relion@@VEMDLabelData@2@@std@@@std@@@std@@@std@@QEBAAEBU?$pair@$$CBW4EMDLabel@relion@@VEMDLabelData@2@@1@XZ
   5AC6DE ??D?$_Tree_iterator@V?$_Tree_val@U?$_Tree_simple_types@U?$pair@$$CBV?$basic_string@DU?$char_traits@D@std@@V?$allocator@D@2@@std@@V12@@std@@@std@@@std@@@std@@QEBAAEAU?$pair@$$CBV?$basic_string@DU?$char_traits@D@std@@V?$allocator@D@2@@std@@V12@@1@XZ
   5AC6DE ??D?$_Tree_iterator@V?$_Tree_val@U?$_Tree_simple_types@U?$pair@$$CBV?$basic_string@DU?$char_traits@D@std@@V?$allocator@D@2@@std@@W4EMDLabel@relion@@@std@@@std@@@std@@@std@@QEBAAEAU?$pair@$$CBV?$basic_string@DU?$char_traits@D@std@@V?$allocator@D@2@@std@@W4EMDLabel@relion@@@1@XZ
   5AC6DE ??D?$_Tree_iterator@V?$_Tree_val@U?$_Tree_simple_types@U?$pair@$$CBW4EMDLabel@relion@@VEMDLabelData@2@@std@@@std@@@std@@@std@@QEBAAEAU?$pair@$$CBW4EMDLabel@relion@@VEMDLabelData@2@@1@XZ
   5AC6DE ??E?$_Tree_const_iterator@V?$_Tree_val@U?$_Tree_simple_types@U?$pair@$$CBV?$basic_string@DU?$char_traits@D@std@@V?$allocator@D@2@@std@@V12@@std@@@std@@@std@@@std@@QEAA?AV01@H@Z
   5AC6DE ??E?$_Tree_const_iterator@V?$_Tree_val@U?$_Tree_simple_types@U?$pair@$$CBV?$basic_string@DU?$char_traits@D@std@@V?$allocator@D@2@@std@@V12@@std@@@std@@@std@@@std@@QEAAAEAV01@XZ
   5AC6DE ??E?$_Tree_const_iterator@V?$_Tree_val@U?$_Tree_simple_types@U?$pair@$$CBV?$basic_string@DU?$char_traits@D@std@@V?$allocator@D@2@@std@@W4EMDLabel@relion@@@std@@@std@@@std@@@std@@QEAA?AV01@H@Z
   5AC6DE ??E?$_Tree_const_iterator@V?$_Tree_val@U?$_Tree_simple_types@U?$pair@$$CBV?$basic_string@DU?$char_traits@D@std@@V?$allocator@D@2@@std@@W4EMDLabel@relion@@@std@@@std@@@std@@@std@@QEAAAEAV01@XZ
   5AC6DE ??E?$_Tree_const_iterator@V?$_Tree_val@U?$_Tree_simple_types@U?$pair@$$CBW4EMDLabel@relion@@VEMDLabelData@2@@std@@@std@@@std@@@std@@QEAA?AV01@H@Z
   5AC6DE ??E?$_Tree_const_iterator@V?$_Tree_val@U?$_Tree_simple_types@U?$pair@$$CBW4EMDLabel@relion@@VEMDLabelData@2@@std@@@std@@@std@@@std@@QEAAAEAV01@XZ
   5AC6DE ??E?$_Tree_unchecked_const_iterator@V?$_Tree_val@U?$_Tree_simple_types@U?$pair@$$CBV?$basic_string@DU?$char_traits@D@std@@V?$allocator@D@2@@std@@V12@@std@@@std@@@std@@U_Iterator_base12@2@@std@@QEAAAEAV01@XZ
   5AC6DE ??E?$_Tree_unchecked_const_iterator@V?$_Tree_val@U?$_Tree_simple_types@U?$pair@$$CBV?$basic_string@DU?$char_traits@D@std@@V?$allocator@D@2@@std@@W4EMDLabel@relion@@@std@@@std@@@std@@U_Iterator_base12@2@@std@@QEAAAEAV01@XZ
   5AC6DE ??E?$_Tree_unchecked_const_iterator@V?$_Tree_val@U?$_Tree_simple_types@U?$pair@$$CBW4EMDLabel@relion@@VEMDLabelData@2@@std@@@std@@@std@@U_Iterator_base12@2@@std@@QEAAAEAV01@XZ
   5AC6DE ??F?$_Tree_const_iterator@V?$_Tree_val@U?$_Tree_simple_types@U?$pair@$$CBV?$basic_string@DU?$char_traits@D@std@@V?$allocator@D@2@@std@@V12@@std@@@std@@@std@@@std@@QEAAAEAV01@XZ
   5AC6DE ??F?$_Tree_const_iterator@V?$_Tree_val@U?$_Tree_simple_types@U?$pair@$$CBV?$basic_string@DU?$char_traits@D@std@@V?$allocator@D@2@@std@@W4EMDLabel@relion@@@std@@@std@@@std@@@std@@QEAAAEAV01@XZ
   5AC6DE ??F?$_Tree_const_iterator@V?$_Tree_val@U?$_Tree_simple_types@U?$pair@$$CBW4EMDLabel@relion@@VEMDLabelData@2@@std@@@std@@@std@@@std@@QEAAAEAV01@XZ
   5AC6DE ??F?$_Tree_iterator@V?$_Tree_val@U?$_Tree_simple_types@U?$pair@$$CBV?$basic_string@DU?$char_traits@D@std@@V?$allocator@D@2@@std@@V12@@std@@@std@@@std@@@std@@QEAAAEAV01@XZ
   5AC6DE ??F?$_Tree_iterator@V?$_Tree_val@U?$_Tree_simple_types@U?$pair@$$CBV?$basic_string@DU?$char_traits@D@std@@V?$allocator@D@2@@std@@W4EMDLabel@relion@@@std@@@std@@@std@@@std@@QEAAAEAV01@XZ
   5AC6DE ??F?$_Tree_iterator@V?$_Tree_val@U?$_Tree_simple_types@U?$pair@$$CBW4EMDLabel@relion@@VEMDLabelData@2@@std@@@std@@@std@@@std@@QEAAAEAV01@XZ
   5AC6DE ??F?$_Tree_unchecked_const_iterator@V?$_Tree_val@U?$_Tree_simple_types@U?$pair@$$CBV?$basic_string@DU?$char_traits@D@std@@V?$allocator@D@2@@std@@V12@@std@@@std@@@std@@U_Iterator_base12@2@@std@@QEAAAEAV01@XZ
   5AC6DE ??F?$_Tree_unchecked_const_iterator@V?$_Tree_val@U?$_Tree_simple_types@U?$pair@$$CBV?$basic_string@DU?$char_traits@D@std@@V?$allocator@D@2@@std@@W4EMDLabel@relion@@@std@@@std@@@std@@U_Iterator_base12@2@@std@@QEAAAEAV01@XZ
   5AC6DE ??F?$_Tree_unchecked_const_iterator@V?$_Tree_val@U?$_Tree_simple_types@U?$pair@$$CBW4EMDLabel@relion@@VEMDLabelData@2@@std@@@std@@@std@@U_Iterator_base12@2@@std@@QEAAAEAV01@XZ
   5AC6DE ??R?$less@V?$basic_string@DU?$char_traits@D@std@@V?$allocator@D@2@@std@@@std@@QEBA_NAEBV?$basic_string@DU?$char_traits@D@std@@V?$allocator@D@2@@1@0@Z
   5AC6DE ??R?$less@W4EMDLabel@relion@@@std@@QEBA_NAEBW4EMDLabel@relion@@0@Z
   5AC6DE ??_C@_02LMMGGCAJ@?3?5@
   5AC6DE ??_C@_09DKACBNL@rlnIsFlip@
   5AC6DE ??_C@_09JJPLKAKF@rlnAreaId@
   5AC6DE ??_C@_0BA@BFFBKFDG@rlnRandomSubset@
   5AC6DE ??_C@_0BA@BPCJGNAH@rlnDefocusAngle@
   5AC6DE ??_C@_0BA@DBGEDCOB@rlnDoSkipRotate@
   5AC6DE ??_C@_0BA@DPEMLCIK@rlnSigmaOffsets@
   5AC6DE ??_C@_0BA@FAABKDNI@rlnSamplingRate@
   5AC6DE ??_C@_0BA@FFPNEFJF@rlnOriginYPrior@
   5AC6DE ??_C@_0BA@GEBFFPAI@rlnOriginZPrior@
   5AC6DE ??_C@_0BA@GJDDJBNM@rlnDoAutoRefine@
   5AC6DE ??_C@_0BA@GOMJFELI@rlnParticleName@
   5AC6DE ??_C@_0BA@HMDMHPFC@rlnHealpixOrder@
   5AC6DE ??_C@_0BA@HOCBIAGJ@rlnAverageValue@
   5AC6DE ??_C@_0BA@IANOJCAD@rlnIs3DSampling@
   5AC6DE ??_C@_0BA@INDNDNGB@rlnMinimumValue@
   5AC6DE ??_C@_0BA@LGGPKCPH@rlnHasConverged@
   5AC6DE ??_C@_0BA@MBNJOCFA@rlnDoCorrectCtf@
   5AC6DE ??_C@_0BA@MNHCEFBH@rlnMaximumValue@
   5AC6DE ??_C@_0BA@OHOOMLEL@rlnMicrographId@
   5AC6DE ??_C@_0BA@OJECFEBN@rlnUseCustomCtf@
   5AC6DE ??_C@_0BA@PDIKEOCB@rlnOriginXPrior@
   5AC6DE ??_C@_0BB@BEOOAOE@rlnSkewnessValue@
   5AC6DE ??_C@_0BB@CGODFEDG@rlnWidthMaskEdge@
   5AC6DE ??_C@_0BB@ENKEGKCA@rlnSpectralIndex@
   5AC6DE ??_C@_0BB@GJEOODJJ@rlnModelStarFile@
   5AC6DE ??_C@_0BB@GLMCMEAJ@rlnPaddingFactor@
   5AC6DE ??_C@_0BB@HEKHGGGN@rlnAngleRotPrior@
   5AC6DE ??_C@_0BB@HHEMJHIB@rlnAnglePsiPrior@
   5AC6DE ??_C@_0BB@HOALJOEH@rlnSymmetryGroup@
   5AC6DE ??_C@_0BB@IIGMOAJN@rlnRadiusMaskMap@
   5AC6DE ??_C@_0BB@IKKIDNNG@rlnMagnification@
   5AC6DE ??_C@_0BB@LGOOCKDB@rlnReferenceTau2@
   5AC6DE ??_C@_0BB@MIAMOOJL@rlnSamplingRateZ@
   5AC6DE ??_C@_0BB@MMIEJPAH@Name?5of?5an?5image@
   5AC6DE ??_C@_0BB@NPFOICHP@rlnDoCorrectNorm@
   5AC6DE ??_C@_0BB@ODCBLNFI@rlnSamplingRateY@
   5AC6DE ??_C@_0BB@OJDPLEF@rlnLensStability@
   5AC6DE ??_C@_0BB@PFNOCLEP@rlnLogLikelihood@
   5AC6DE ??_C@_0BB@PKDKIMBJ@rlnSamplingRateX@
   5AC6DE ??_C@_0BC@GEMKDBHC@rlnModelStarFile2@
   5AC6DE ??_C@_0BC@IGFGKBCF@rlnReferenceImage@
   5AC6DE ??_C@_0BC@KIBHPCHK@rlnAngleTiltPrior@
   5AC6DE ??_C@_0BC@KJIMNHID@rlnTiltAngleLimit@
   5AC6DE ??_C@_0BC@MAPDAAFN@rlnNormCorrection@
   5AC6DE ??_C@_0BC@MCEAIBKL@rlnMicrographName@
   5AC6DE ??_C@_0BC@MKNLFDFE@rlnOrientationsID@
   5AC6DE ??_C@_0BC@OBDJMDMP@rlnDoCorrectScale@
   5AC6DE ??_C@_0BC@PBPHLLJE@rlnOutputRootName@
   5AC6DE ??_C@_0BC@PMBMGACI@rlnCtfScalefactor@
   5AC6DE ??_C@_0BD@BHJHEIIG@rlnGoldStandardFsc@
   5AC6DE ??_C@_0BD@BJDJOKBJ@rlnReferenceSigma2@
   5AC6DE ??_C@_0BD@CCCPNCHL@rlnFinalResolution@
   5AC6DE ??_C@_0BD@EBLMJIGC@rlnAvailableMemory@
   5AC6DE ??_C@_0BD@EGFKKHAD@rlnDoRealignMovies@
   5AC6DE ??_C@_0BD@FGGCILGB@rlnSolventMaskName@
   5AC6DE ??_C@_0BD@JHJKEBPE@rlnTauSpectrumName@
   5AC6DE ??_C@_0BD@JOIKNPMH@rlnConvergenceCone@
   5AC6DE ??_C@_0BD@KGCKCLKL@rlnTau2FudgeFactor@
   5AC6DE ??_C@_0BD@LMLIJPKB@rlnFixTauEstimates@
   5AC6DE ??_C@_0BD@OCBNBAE@rlnDoMapEstimation@
   5AC6DE ??_C@_0BD@PFMIPMMF@rlnCoarseImageSize@
   5AC6DE ??_C@_0BE@FJNNDHMI@rlnSolventMask2Name@
   5AC6DE ??_C@_0BE@IIODGEDK@rlnParticleDiameter@
   5AC6DE ??_C@_0BE@JONHPENG@map?1set?$DMT?$DO?5too?5long@
   5AC6DE ??_C@_0BE@KCPEMAO@Energy?5loss?5?$CIin?5eV?$CJ@
   5AC6DE ??_C@_0BE@KPGCNLAM@rlnCurrentImageSize@
   5AC6DE ??_C@_0BE@NFIMKDGJ@rlnCtfFigureOfMerit@
   5AC6DE ??_C@_0BE@NGMMHHLP@rlnGroupNrParticles@
   5AC6DE ??_C@_0BE@PDHGHALI@rlnMovieFrameNumber@
   5AC6DE ??_C@_0BE@PMEJLOH@rlnCurrentIteration@
   5AC6DE ??_C@_0BF@BGHGGLIK@rlnAmplitudeContrast@
   5AC6DE ??_C@_0BF@CFNCLBOL@rlnClassDistribution@
   5AC6DE ??_C@_0BF@DCHCLIFL@rlnOriginalImageSize@
   5AC6DE ??_C@_0BF@DJGLIAOO@rlnAccuracyRotations@
   5AC6DE ??_C@_0BF@FCIHLDC@rlnImageOriginalName@
   5AC6DE ??_C@_0BF@IJGHGCPP@rlnClassPriorOffsetY@
   5AC6DE ??_C@_0BF@JAHMFDLO@rlnClassPriorOffsetX@
   5AC6DE ??_C@_0BF@JGAOBJMP@rlnBeamTiltGroupName@
   5AC6DE ??_C@_0BF@KDGAFECO@rlnDetectorPixelSize@
   5AC6DE ??_C@_0BF@KOJCJHIM@rlnCurrentResolution@
   5AC6DE ??_C@_0BF@LGIEGACL@rlnDiff2RandomHalves@
   5AC6DE ??_C@_0BF@NCGFJKHA@Name?5for?5a?5particles@
   5AC6DE ??_C@_0BF@NOEDJJFI@rlnResolutionSquared@
   5AC6DE ??_C@_0BF@NPKHIMKG@Name?5of?5a?5micrograph@
   5AC6DE ??_C@_0BG@BLHNPKGO@rlnAngstromResolution@
   5AC6DE ??_C@_0BG@FKGBJGCF@rlnNumberOfIterations@
   5AC6DE ??_C@_0BG@IOCLBJGA@rlnIncrementImageSize@
   5AC6DE ??_C@_0BG@JNGPLFFN@rlnSignalToNoiseRatio@
   5AC6DE ??_C@_0BG@KAMIJGLI@rlnSigmaPriorPsiAngle@
   5AC6DE ??_C@_0BG@KDCDGHFE@rlnSigmaPriorRotAngle@
   5AC6DE ??_C@_0BG@OCPMKCG@rlnDataDimensionality@
   5AC6DE ??_C@_0BH@BCFICAFJ@rlnRefsAreCtfCorrected@
   5AC6DE ??_C@_0BH@BECPFMAL@rlnKurtosisExcessValue@
   5AC6DE ??_C@_0BH@BGEBOEEH@rlnSphericalAberration@
   5AC6DE ??_C@_0BH@CJBKOKII@rlnRadiusMaskExpImages@
   5AC6DE ??_C@_0BH@CKGJLLBM@rlnImageDimensionality@
   5AC6DE ??_C@_0BH@EAKDBBPB@rlnMicrographTiltAngle@
   5AC6DE ??_C@_0BH@EFNIFCAH@rlnDoSplitRandomHalves@
   5AC6DE ??_C@_0BH@EKDABOLF@rlnDoOnlyFlipCtfPhases@
   5AC6DE ??_C@_0BH@FGIJMJIG@rlnDoSolventFlattening@
   5AC6DE ??_C@_0BH@GOMCGALA@rlnChromaticAberration@
   5AC6DE ??_C@_0BH@HMBEOJNC@rlnSigmaPriorTiltAngle@
   5AC6DE ??_C@_0BI@CGHIDBNP@rlnReconstructImageName@
   5AC6DE ??_C@_0BI@CIELFLMP@rlnGroupScaleCorrection@
   5AC6DE ??_C@_0BI@EBKMIDEC@rlnParticleSelectZScore@
   5AC6DE ??_C@_0BI@IECPGBMI@Lens?5stability?5?$CIin?5ppm?$CJ@
   5AC6DE ??_C@_0BI@IPNKEAKH@rlnAccuracyTranslations@
   5AC6DE ??_C@_0BI@JBKEPKDD@rlnOriginalParticleName@
   5AC6DE ??_C@_0BI@LINNBNLP@rlnUseTooCoarseSampling@
   5AC6DE ??_C@_0BI@LNGKIGKK@Number?5of?5a?5movie?5frame@
   5AC6DE ??_C@_0BJ@BGBKJBEN@rlnLogAmplitudesWeighted@
   5AC6DE ??_C@_0BJ@CKKCHFNE@rlnChangesOptimalClasses@
   5AC6DE ??_C@_0BJ@FMLDCDBH@rlnSamplingPerturbFactor@
   5AC6DE ??_C@_0BJ@FMPHJEPJ@rlnNormCorrectionAverage@
   5AC6DE ??_C@_0BJ@IDMOBAOE@rlnLogLikeliContribution@
   5AC6DE ??_C@_0BJ@IOMPOHAC@rlnBestResolutionThusFar@
   5AC6DE ??_C@_0BJ@KMOOMOGJ@rlnChangesOptimalOffsets@
   5AC6DE ??_C@_0BJ@LHNEDHCP@rlnParticleFigureOfMerit@
   5AC6DE ??_C@_0BJ@LKGIPFIJ@rlnLogAmplitudesOriginal@
   5AC6DE ??_C@_0BJ@OKJFNGOJ@rlnAutopickFigureOfMerit@
   5AC6DE ??_C@_0BK@CAEFDHGG@rlnHasHighFscAtResolLimit@
   5AC6DE ??_C@_0BK@CHAHAKKM@Resolution?5?$CIin?5Angstroms?$CJ@
   5AC6DE ??_C@_0BK@DEOOLJOA@Original?5name?5of?5an?5image@
   5AC6DE ??_C@_0BK@GDAILFAE@rlnDoCorrectMagnification@
   5AC6DE ??_C@_0BK@GEHCFKGK@rlnPerFrameRelativeWeight@
   5AC6DE ??_C@_0BK@GGBMPEEG@rlnSmallestChangesOffsets@
   5AC6DE ??_C@_0BK@GIEBAOOG@rlnResolutionInversePixel@
   5AC6DE ??_C@_0BK@HDILLFBM@rlnLogAmplitudesSharpened@
   5AC6DE ??_C@_0BK@JOGNAEGE@rlnOrientSamplingStarFile@
   5AC6DE ??_C@_0BK@JPDHCEFC@rlnOrientationalPriorMode@
   5AC6DE ??_C@_0BK@KIAGGMMA@rlnCtfDataArePhaseFlipped@
   5AC6DE ??_C@_0BK@LBBLLHCE@rlnNrOfSignificantSamples@
   5AC6DE ??_C@_0BK@LEDFJHFO@rlnReferenceSpectralPower@
   5AC6DE ??_C@_0BK@MLNDHCOA@rlnFixSigmaNoiseEstimates@
   5AC6DE ??_C@_0BK@MPICANLA@rlnFittedSlopeGuinierPlot@
   5AC6DE ??_C@_0BK@NGHBDCCP@rlnMaximumCoarseImageSize@
   5AC6DE ??_C@_0BK@OAEBOIAC@Name?5of?5a?5reference?5image@
   5AC6DE ??_C@_0BK@OAFAEPPL@rlnSmallestChangesClasses@
   5AC6DE ??_C@_0BK@ODJJOANI@rlnLogAmplitudesIntercept@
   5AC6DE ??_C@_0BK@PEHHBEDH@rlnStandardDeviationValue@
   5AC6DE ??_C@_0BL@CCLOOGKH@rlnMagnificationCorrection@
   5AC6DE ??_C@_0BL@CNJEGFDA@rlnAdaptiveOversampleOrder@
   5AC6DE ??_C@_0BL@DBEHFEDJ@rlnSamplingPerturbInstance@
   5AC6DE ??_C@_0BL@JIKLIFLL@rlnFourierShellCorrelation@
   5AC6DE ??_C@_0BL@MLKNDKNC@rlnHighresLimitExpectation@
   5AC6DE ??_C@_0BL@NFNGGAAP@rlnOrientationDistribution@
   5AC6DE ??_C@_0BL@NKFDEFII@rlnTransversalDisplacement@
   5AC6DE ??_C@_0BL@NNNCCGED@rlnReferenceDimensionality@
   5AC6DE ??_C@_0BL@OLIDIMK@Convergence?5cone?5?$CIin?5mrad?$CJ@
   5AC6DE ??_C@_0BL@PHEMPLH@rlnMagnificationSearchStep@
   5AC6DE ??_C@_0BL@POAIBFAF@rlnFixSigmaOffsetEstimates@
   5AC6DE ??_C@_0BM@CCAFAPHA@Resolution?5?$CIin?51?1Angstroms?$CJ@
   5AC6DE ??_C@_0BM@FMIEBPMD@rlnPerFrameCumulativeWeight@
   5AC6DE ??_C@_0BM@GBANMCJO@rlnExperimentalDataStarFile@
   5AC6DE ??_C@_0BM@HEIILNPJ@rlnOverallAccuracyRotations@
   5AC6DE ??_C@_0BM@LNIDFFHE@rlnMinRadiusNnInterpolation@
   5AC6DE ??_C@_0BM@MPPGKNMN@rlnBfactorUsedForSharpening@
   5AC6DE ??_C@_0BM@OABFFBKC@Relative?5weight?5of?5an?5image@
   5AC6DE ??_C@_0BM@OALEDEKB@rlnMagnificationSearchRange@
   5AC6DE ??_C@_0BM@OHNJGHKF@rlnLongitudinalDisplacement@
   5AC6DE ??_C@_0BM@PIBEAHMI@rlnFourierSpaceInterpolator@
   5AC6DE ??_C@_0BM@PPOKGNGM@rlnMaxValueProbDistribution@
   5AC6DE ??_C@_0BN@CEIBCLNG@rlnIs3DTranslationalSampling@
   5AC6DE ??_C@_0BN@DNDJPHBE@rlnLogAmplitudesMTFCorrected@
   5AC6DE ??_C@_0BN@IIGCDKED@rlnCorrelationFitGuinierPlot@
   5AC6DE ??_C@_0BN@KIKHDAHG@rlnDoIgnoreCtfUntilFirstPeak@
   5AC6DE ??_C@_0BN@KKEMAMPF@rlnKullbackLeibnerDivergence@
   5AC6DE ??_C@_0BN@LOMAFFBD@Size?5of?5an?5image?5?$CIin?5pixels?$CJ@
   5AC6DE ??_C@_0BO@EGLDDDDH@rlnChangesOptimalOrientations@
   5AC6DE ??_C@_0BO@IJHJCAKA@Original?5name?5for?5a?5particles@
   5AC6DE ??_C@_0BO@JCNKNAPO@rlnAdaptiveOversampleFraction@
   5AC6DE ??_C@_0BO@MIHLHIIP@rlnMaxNumberOfPooledParticles@
   5AC6DE ??_C@_0BO@MPJOOPBK@rlnFittedInterceptGuinierPlot@
   5AC6DE ??_C@_0BP@BNOBALFN@rlnSmallestChangesOrientations@
   5AC6DE ??_C@_0BP@KBGKCKNL@Autopicking?5FOM?5for?5a?5particle@
   5AC6DE ??_C@_0BP@MFFIAOGD@rlnOverallAccuracyTranslations@
   5AC6DE ??_C@_0BP@OOIDMBEL@rlnMicrographTiltAxisDirection@
   5AC6DE ??_C@_0CA@BKEPPFMJ@rlnMicrographTiltAxisOutOfPlane@
   5AC6DE ??_C@_0CA@EAOMPMEE@The?5number?5of?5a?5group?5of?5images@
   5AC6DE ??_C@_0CB@FPNPOHIN@Developmental?5FOM?5for?5a?5particl@
   5AC6DE ??_C@_0CB@GOGJGPHJ@rlnJoinHalvesUntilThisResolutio@
   5AC6DE ??_C@_0CB@NBJICBHJ@rlnAutoLocalSearchesHealpixOrde@
   5AC6DE ??_C@_0CC@LLBFJPCP@Voltage?5of?5the?5microscope?5?$CIin?5k@
   5AC6DE ??_C@_0CD@KKAKMBH@Dimensionality?5of?5the?5data?5?$CI2D?1@
   5AC6DE ??_C@_0CE@CLNNGAKK@rlnFourierShellCorrelationCorre@
   5AC6DE ??_C@_0CE@CMHOIOIH@First?5Euler?5angle?5?$CIrot?0?5in?5degr@
   5AC6DE ??_C@_0CE@OLJPDFIJ@The?5number?5of?5the?5current?5itera@
   5AC6DE ??_C@_0CF@BKAHGPLM@rlnHasLargeSizeIncreaseIteratio@
   5AC6DE ??_C@_0CF@CPHDOOOB@rlnFourierShellCorrelationMaske@
   5AC6DE ??_C@_0CF@DANMGMJD@Matrix?5element?5?$CI1?03?$CJ?5of?5a?53x3?5m@
   5AC6DE ??_C@_0CF@DPHGOIIB@Matrix?5element?5?$CI2?01?$CJ?5of?5a?53x3?5m@
   5AC6DE ??_C@_0CF@EEGIGKGC@Matrix?5element?5?$CI1?01?$CJ?5of?5a?53x3?5m@
   5AC6DE ??_C@_0CF@FDAJOPBA@rlnSpectralOrientabilityContrib@
   5AC6DE ??_C@_0CF@INLBKLLD@rlnNumberOfIterWithoutResolutio@
   5AC6DE ??_C@_0CF@KAKMGLBP@Matrix?5element?5?$CI3?01?$CJ?5of?5a?53x3?5m@
   5AC6DE ??_C@_0CF@MMBBHCFL@Name?5of?5an?5image?5with?5all?5CTF?5v@
   5AC6DE ??_C@_0CF@OHDOOMML@Matrix?5element?5?$CI1?02?$CJ?5of?5a?53x3?5m@
   5AC6DE ??_C@_0CF@OOCMFFIG@The?5fitted?5slope?5of?5the?5Guinier@
   5AC6DE ??_C@_0CF@PHANFGNN@Name?5of?5an?5area?5?$CIi?4e?4?5field?9of?9@
   5AC6DE ??_C@_0CG@HBHLIFIG@Spherical?5aberration?5?$CIin?5millim@
   5AC6DE ??_C@_0CG@ICDCFOCB@Chromatic?5aberration?5?$CIin?5millim@
   5AC6DE ??_C@_0CG@KLDCMFAG@Number?5particles?5in?5a?5group?5of?5@
   5AC6DE ??_C@_0CG@MANPFLFD@Second?5Euler?5angle?5?$CItilt?0?5in?5de@
   5AC6DE ??_C@_0CG@MOLIBF@map?1set?5insert?5iterator?5outside@
   5AC6DE ??_C@_0CG@ONEFCKLM@ID?5?$CIi?4e?4?5a?5unique?5number?$CJ?5of?5an@
   5AC6DE ??_C@_0CH@BOBNGHEN@Beam?5tilt?5in?5the?5Y?9direction?5?$CIi@
   5AC6DE ??_C@_0CH@COMCNJDK@rlnFourierShellCorrelationUnmas@
   5AC6DE ??_C@_0CH@JDFADIN@Beam?5tilt?5in?5the?5X?9direction?5?$CIi@
   5AC6DE ??_C@_0CH@KONLHMEE@Resolution?5?$CIin?51?1pixel?0?5Nyquist@
   5AC6DE ??_C@_0CI@DEJPNNEP@Original?5size?5of?5the?5images?5?$CIin@
   5AC6DE ??_C@_0CI@EBCDCEBB@Transversal?5displacement?5?$CIin?5An@
   5AC6DE ??_C@_0CI@FJCIBNID@cannot?5decrement?5begin?5map?1set?5@
   5AC6DE ??_C@_0CI@GCPENA@Value?5of?5the?5Contrast?5Transfer?5@
   5AC6DE ??_C@_0CI@PEENLCGG@Step?5size?5?5for?5magnification?5co@
   5AC6DE ??_C@_0CJ@BNMJBEKL@ID?5?$CIi?4e?4?5a?5unique?5number?$CJ?5for?5a@
   5AC6DE ??_C@_0CJ@GOJALJHG@Average?5value?5for?5the?5pixels?5in@
   5AC6DE ??_C@_0CJ@IMACPCA@Dimensionality?5of?5the?5reference@
   5AC6DE ??_C@_0CJ@MMOHMPDF@Minimum?5value?5for?5the?5pixels?5in@
   5AC6DE ??_C@_0CJ@MNDHLJGG@Magnification?5at?5the?5detector?5?$CI@
   5AC6DE ??_C@_0CJ@NMLLBNHJ@Longitudinal?5displacement?5?$CIin?5A@
   5AC6DE ??_C@_0CJ@OBHKJLHO@The?5fitted?5intercept?5of?5the?5Gui@
   5AC6DE ??_C@_0CJ@PJGFNOGL@Maximum?5value?5for?5the?5pixels?5in@
   5AC6DE ??_C@_0CK@EIMJIPJH@ID?5?$CIi?4e?4?5a?5unique?5number?$CJ?5of?5a?5@
   5AC6DE ??_C@_0CK@EPBCOAAM@Search?5range?5for?5magnification?5@
   5AC6DE ??_C@_0CK@LOELAIEG@rlnNumberOfIterWithoutChangingA@
   5AC6DE ??_C@_0CK@MPEFJFMC@EMDL?3?3printDefinitions?3?5unrecog@
   5AC6DE ??_C@_0CL@IALLAJEC@d?3?2software?2liblion?2src?2metadat@
   5AC6DE ??_C@_0CL@LPNOJFAD@Kullback?9Leibner?5divergence?5for@
   5AC6DE ??_C@_0CM@BIPGBGJL@Pixel?5size?5of?5the?5detector?5?$CIin?5@
   5AC6DE ??_C@_0CM@LFIKFIFH@Value?5of?5the?5log?9likelihood?5tar@
   5AC6DE ??_C@_0CM@LFOFPFDL@Normalisation?5correction?5value?5@
   5AC6DE ??_C@_0CM@OJOPCMKG@Symmetry?5group?5?$CIe?4g?4?0?5C1?0?5D7?0?5I@
   5AC6DE ??_C@_0CM@PDDNOOBP@Magnification?5correction?5value?5@
   5AC6DE ??_C@_0CN@GHICKPAE@Random?5subset?5to?5which?5this?5par@
   5AC6DE ??_C@_0CN@JHLNJEBP@Maximum?5number?5of?5iterations?5to@
   5AC6DE ??_C@_0CN@JPDJGKCH@FSC?5value?5after?5masking?5of?5the?5@
   5AC6DE ??_C@_0CN@KKJLPI@ID?5?$CIi?4e?4?5a?5unique?5number?$CJ?5for?5a@
   5AC6DE ??_C@_0CO@CCDLDKEO@Applied?5B?9factor?5in?5the?5sharpen@
   5AC6DE ??_C@_0CO@COJPEMNO@Sampling?5rate?5of?5an?5image?5?$CIin?5A@
   5AC6DE ??_C@_0CO@FEEIGBGK@Prior?5in?5the?5Y?9offset?5for?5a?5cla@
   5AC6DE ??_C@_0CO@GCLKPBJJ@Prior?5in?5the?5X?9offset?5for?5a?5cla@
   5AC6DE ??_C@_0CO@LCGJNIMA@FSC?5value?5before?5masking?5of?5the@
   5AC6DE ??_C@_0CO@NIKJNJGB@Flag?5to?5indicate?5this?5concerns?5@
   5AC6DE ??_C@_0CP@GPAOPHDA@Spectral?5signal?9to?9noise?5ratio?5@
   5AC6DE ??_C@_0CP@LHJCBKMP@Name?5of?5a?5STAR?5file?5that?5holds?5@
   5AC6DE ??_C@_0DA@EFDMFKMF@Size?5of?5an?5image?5in?5the?5X?9direc@
   5AC6DE ??_C@_0DA@JMAHJGMK@Size?5of?5an?5image?5in?5the?5Z?9direc@
   5AC6DE ??_C@_0DA@MEBJDPOC@Size?5of?5an?5image?5in?5the?5Y?9direc@
   5AC6DE ??_C@_0DA@OJHIBCJC@Spherical?5average?5of?5the?5power?5@
   5AC6DE ??_C@_0DB@BFAIALFB@?$CL?$CL?$CL?5RELION?5MetaDataLabel?5?$CIEMDL?$CJ@
   5AC6DE ??_C@_0DB@BHHANDFK@Third?5Euler?0?5or?5in?9plane?5angle?5@
   5AC6DE ??_C@_0DB@HBFDGEOP@Intensity?9scale?5correction?5for?5@
   5AC6DE ??_C@_0DC@EBPKOHEH@Current?5size?5of?5the?5images?5used@
   5AC6DE ??_C@_0DC@MEEBOLCG@Flag?5to?5indicate?5that?5an?5image?5@
   5AC6DE ??_C@_0DD@BPMINDLB@Y?9Position?5of?5an?5image?5in?5a?5mic@
   5AC6DE ??_C@_0DD@LKMDANG@Search?5range?5for?5the?5origin?5off@
   5AC6DE ??_C@_0DD@NFPGCACC@X?9Position?5of?5an?5image?5in?5a?5mic@
   5AC6DE ??_C@_0DD@PEMKJCDA@Amplitude?5contrast?5?$CIas?5a?5fracti@
   5AC6DE ??_C@_0DE@BNHCENA@Name?5of?5an?5image?5to?5be?5used?5for@
   5AC6DE ??_C@_0DE@ECOAMEB@STAR?5file?5with?5metadata?5for?5the@
   5AC6DE ??_C@_0DE@EDELNENO@Standard?5deviation?5for?5the?5pixe@
   5AC6DE ??_C@_0DE@GOADDKIG@Y?9coordinate?5?$CIin?5pixels?$CJ?5for?5th@
   5AC6DE ??_C@_0DE@HMPMGIL@X?9coordinate?5?$CIin?5pixels?$CJ?5for?5th@
   5AC6DE ??_C@_0DE@JECMPNID@cannot?5decrement?5value?9initiali@
   5AC6DE ??_C@_0DE@NEFGDOJB@Z?9coordinate?5?$CIin?5pixels?$CJ?5for?5th@
   5AC6DE ??_C@_0DF@BGGIEKOB@Tilt?5angle?5?$CIin?5degrees?$CJ?5used?5to@
   5AC6DE ??_C@_0DF@HGNFEMKL@Seed?5?$CIi?4e?4?5a?5number?$CJ?5for?5the?5ra@
   5AC6DE ??_C@_0DF@HPKKFBCK@Flag?5to?5indicate?5that?5the?5optim@
   5AC6DE ??_C@_0DF@JBLOBGLO@Angle?5between?5X?5and?5defocus?5U?5d@
   5AC6DE ??_C@_0DG@GEJELKLC@FSC?5value?5after?5masking?5of?5the?5@
   5AC6DE ??_C@_0DG@PHPMOBHA@A?5metadata?5comment?5?$CIThis?5is?5tre@
   5AC6DE ??_C@_0DH@BMMLKDAM@Type?5of?5data?5stored?5in?5an?5image@
   5AC6DE ??_C@_0DH@JDLELAKM@STAR?5file?5with?5metadata?5for?5the@
   5AC6DE ??_C@_0DH@ODPPDFAJ@Skewness?5?$CI3rd?5moment?$CJ?5for?5the?5p@
   5AC6DE ??_C@_0DI@GJBAIGIG@Linear?5scale?9factor?5on?5the?5CTF?5@
   5AC6DE ??_C@_0DI@JGOOCNGK@Dimensionality?5of?5data?5stored?5i@
   5AC6DE ??_C@_0DI@NOEPFDPN@Standard?5deviation?5in?5the?5origi@
   5AC6DE ??_C@_0DJ@DBMGLJI@FSC?5value?5?$CIof?5unspecified?5type?0@
   5AC6DE ??_C@_0DJ@ECIDMCMG@B?9factor?5?$CIin?5A?$FO2?$CJ?5that?5describe@
   5AC6DE ??_C@_0DJ@HIGHDOHK@Flag?5to?5indicate?5that?5CTF?9corre@
   5AC6DE ??_C@_0DK@JHFILHOK@ID?5?$CIi?4e?4?5a?5unique?5number?$CJ?5of?5an@
   5AC6DE ??_C@_0DL@PJMKNNIF@Available?5memory?5per?5computing?5@
   5AC6DE ??_C@_0DM@EBMBEGGB@The?5resolution?9dependent?5relati@
   5AC6DE ??_C@_0DM@FOBAMNPA@STAR?5file?5with?5metadata?5for?5the@
   5AC6DE ??_C@_0DM@KHPKDMDA@Overall?5accuracy?5of?5the?5rotatio@
   5AC6DE ??_C@_0DN@CJIHOECN@Flag?5to?5indicate?5that?53D?5auto?9r@
   5AC6DE ??_C@_0DN@CLBILEOM@Oversampling?5factor?5for?5Fourier@
   5AC6DE ??_C@_0DN@EKAFBMGD@rlnCorrectedFourierShellCorrela@
   5AC6DE ??_C@_0DN@HFAHPLNB@High?9resolution?9limit?5?$CIin?5Angst@
   5AC6DE ??_C@_0DN@IPNCLAPP@Sampling?5rate?5in?5X?9direction?5of@
   5AC6DE ??_C@_0DN@KFPKIIJN@Sampling?5rate?5in?5Y?9direction?5of@
   5AC6DE ??_C@_0DN@KHHLFAEM@Number?5of?5movie?5frames?5that?5wer@
   5AC6DE ??_C@_0DN@NKOLGIPF@X?9value?5for?5Guinier?5plot?3?5squar@
   5AC6DE ??_C@_0DN@NLICMADL@Sampling?5rate?5in?5Z?9direction?5of@
   5AC6DE ??_C@_0DO@GPPNAOPN@Overall?5accuracy?5of?5the?5transla@
   5AC6DE ??_C@_0DO@HPBJBALP@Class?5number?5for?5which?5a?5partic@
   5AC6DE ??_C@_0DP@CEFMFGOP@Flag?5to?5indicate?5this?5concerns?5@
   5AC6DE ??_C@_0DP@HKPACIBF@Flag?5to?5indicate?5that?5the?5input@
   5AC6DE ??_C@_0DP@IPGKCLEL@Final?5estimated?5resolution?5afte@
   5AC6DE ??_C@_0DP@NFGNHKLK@Size?5of?5the?5pixels?5in?5the?5refer@
   5AC6DE ??_C@_0EA@JCDDENFP@Name?5of?5a?5group?5?$CIof?5images?$CJ?5wit@
   5AC6DE ??_C@_0EA@OAGCFICO@Center?5of?5the?5prior?5?$CIin?5degrees@
   5AC6DE ??_C@_0EA@PIPAIMC@Step?5size?5for?5the?5searches?5in?5t@
   5AC6DE ??_C@_0EA@PPGAGDBG@Center?5of?5the?5prior?5?$CIin?5degrees@
   5AC6DE ??_C@_0EB@CCJENENH@Current?5resolution?5where?5SSNR?$FOM@
   5AC6DE ??_C@_0EB@HGDCPAFG@Contribution?5of?5a?5particle?5to?5t@
   5AC6DE ??_C@_0EB@JHLMDHPP@Spherical?5average?5of?5the?5standa@
   5AC6DE ??_C@_0EB@KGBEKPIH@The?5kernel?5used?5for?5Fourier?9spa@
   5AC6DE ??_C@_0EB@NOCNMCOP@The?5number?5of?5references?5?$CIi?4e?4?5@
   5AC6DE ??_C@_0EC@BKKBGLDB@Kurtosis?5excess?5?$CI4th?5moment?5?9?53@
   5AC6DE ??_C@_0EC@HBGLMGEL@Center?5of?5the?5prior?5?$CIin?5degrees@
   5AC6DE ??_C@_0EC@INLIMIPB@The?5name?5of?5a?5group?5of?5images?5?$CI@
   5AC6DE ??_C@_0ED@HOOAMDAB@Number?5of?5iterations?5that?5have?5@
   5AC6DE ??_C@_0ED@NGHAKFOJ@Index?5of?5a?5metadata?5entry?5after@
   5AC6DE ??_C@_0EE@BPFMHBBF@Standard?5deviation?5of?5the?5prior@
   5AC6DE ??_C@_0EE@JKDKALGJ@Standard?5deviation?5of?5the?5prior@
   5AC6DE ??_C@_0EF@CNNAMIAA@Z?9Position?5of?5an?5image?5in?5a?53D?5@
   5AC6DE ??_C@_0EF@GAODLOCF@Flag?5to?5indicate?5that?5the?5FSC?5a@
   5AC6DE ??_C@_0EF@HIEJIPHD@Phase?5shift?5caused?5by?5a?5phase?5p@
   5AC6DE ??_C@_0EF@IKDJBOFM@Spherical?5average?5of?5the?5estima@
   5AC6DE ??_C@_0EF@LJAHHODO@Direction?5of?5the?5tilt?9axis?5?$CIin?5@
   5AC6DE ??_C@_0EF@NEHMFHDJ@Estimated?5accuracy?5?$CIin?5degrees?$CJ@
   5AC6DE ??_C@_0EG@BAJEKBI@Maximum?5value?5of?5the?5?$CInormalise@
   5AC6DE ??_C@_0EG@BPLGKHGN@Value?5of?5the?5detectors?5modulati@
   5AC6DE ??_C@_0EG@EJCBAOJK@Defocus?5in?5U?9direction?5?$CIin?5Angs@
   5AC6DE ??_C@_0EG@FGECMDF@Standard?5deviation?5of?5the?5prior@
   5AC6DE ??_C@_0EG@OCMFFGID@Spherical?5average?5of?5the?5estima@
   5AC6DE ??_C@_0EG@PCPFAAIJ@Defocus?5in?5V?9direction?5?$CIin?5Angs@
   5AC6DE ??_C@_0EH@BBANMADN@Estimated?5accuracy?5?$CIin?5pixels?$CJ?5@
   5AC6DE ??_C@_0EH@DMHEFLAK@Average?5value?5?$CIover?5all?5images?$CJ@
   5AC6DE ??_C@_0EH@IIFLACIB@Figure?5of?5merit?5for?5the?5fit?5of?5@
   5AC6DE ??_C@_0EH@LCJLCMD@Flag?5to?5indicate?5that?5individua@
   5AC6DE ??_C@_0EH@LIPEBPLO@Spectral?5SNR?5contribution?5to?5th@
   5AC6DE ??_C@_0EI@LPHJKFE@Spectral?5signal?9to?9noise?5ratio?5@
   5AC6DE ??_C@_0EI@MCKIEDJG@Flag?5to?5indicate?5that?5the?5CTFs?5@
   5AC6DE ??_C@_0EI@PKAKLMML@The?5correlation?5coefficient?5of?5@
   5AC6DE ??_C@_0EJ@EAODCJBJ@Random?5instance?5of?5the?5random?5p@
   5AC6DE ??_C@_0EJ@FDDLPDEJ@Spectral?5index?5?$CIi?4e?4?5distance?5i@
   5AC6DE ??_C@_0EJ@IEGFPCFG@Flag?5to?5indicate?5that?5CTF?9corre@
   5AC6DE ??_C@_0EJ@PCJOJIHB@Smallest?5changes?5thus?5far?5in?5th@
   5AC6DE ??_C@_0EK@NHDFCKIJ@Flag?5whether?5an?5entry?5in?5a?5meta@
   5AC6DE ??_C@_0EM@EAGIJDGF@Radius?5of?5the?5spherical?5mask?5to@
   5AC6DE ??_C@_0EM@FCADKGPK@How?5many?5iterations?5have?5passed@
   5AC6DE ??_C@_0EM@GMBGCEOA@The?5highest?5resolution?5that?5has@
   5AC6DE ??_C@_0EN@BFMAPDOH@The?5average?5change?5in?5optimal?5t@
   5AC6DE ??_C@_0EN@OEEPAKGK@Flag?5to?5indicate?5that?5the?5input@
   5AC6DE ??_C@_0EN@OJDDAGMD@Step?5size?5?$CIin?5degrees?$CJ?5for?5the?5@
   5AC6DE ??_C@_0EO@EJEMBLLC@The?5average?5change?5in?5optimal?5o@
   5AC6DE ??_C@_0EO@ENFIMPEL@Flag?5to?5indicate?5that?5a?5custom?5@
   5AC6DE ??_C@_0EO@OLIBOLND@Maximum?5number?5particles?5that?5a@
   5AC6DE ??_C@_0EP@EGHMGCEN@Center?5of?5the?5prior?5on?5the?5X?9co@
   5AC6DE ??_C@_0EP@HBMCJGOJ@Smallest?5changes?5thus?5far?5in?5th@
   5AC6DE ??_C@_0EP@JFFCFEP@Sum?5of?5Z?9scores?5from?5particle_s@
   5AC6DE ??_C@_0EP@MEDJPNNK@Flag?5to?5indicate?5that?5?$CIper?9grou@
   5AC6DE ??_C@_0EP@OKIICEHO@Average?5value?5?$CIover?5all?5images?$CJ@
   5AC6DE ??_C@_0FB@BHPHNGCB@Not?5used?5in?5RELION?0?5only?5includ@
   5AC6DE ??_C@_0FC@HIMFOLEF@Final?5FSC?5value?3?5i?4e?4?5after?5cor@
   5AC6DE ??_C@_0FD@DGNEHFGF@Flag?5to?5indicate?5that?5MAP?5estim@
   5AC6DE ??_C@_0FE@DOAPHCGG@Smallest?5changes?5thus?5far?5in?5th@
   5AC6DE ??_C@_0FE@IDCCFNPH@Radius?5of?5the?5circular?5mask?5to?5@
   5AC6DE ??_C@_0FF@KFPNEFEI@Flag?5to?5indicate?5that?5?$CIper?9imag@
   5AC6DE ??_C@_0FG@FKHCKBMB@Diameter?5of?5the?5circular?5mask?5t@
   5AC6DE ??_C@_0FH@OANDBNMJ@Name?5of?5a?5secondary?5solvent?5mas@
   5AC6DE ??_C@_0FK@CIBAFJOG@Flag?5to?5indicate?5that?5internal?5@
   5AC6DE ??_C@_0FK@JGCABLAJ@Healpix?5order?5for?5the?5sampling?5@
   5AC6DE ??_C@_0FK@OCDBLPOB@The?5number?5of?5particles?5that?5ch@
   5AC6DE ??_C@_0FL@ECJKCALP@Number?5of?5Fourier?5shells?5to?5be?5@
   5AC6DE ??_C@_0FL@MBDPMDHM@Flag?5to?5indicate?5that?5the?5data?5@
   5AC6DE ??_C@_0FM@EJHIJGOE@Sum?5of?5the?5resolution?9dependent@
   5AC6DE ??_C@_0FM@IBIPCGNH@Out?9of?9plane?5angle?5?$CIin?5degrees?$CJ@
   5AC6DE ??_C@_0FN@CMEILKEN@Y?9value?5for?5Guinier?5plot?3?5the?5l@
   5AC6DE ??_C@_0FN@NLGCEKHG@Y?9value?5for?5Guinier?5plot?3?5the?5l@
   5AC6DE ??_C@_0FP@IFAEKAEB@Flag?5to?5indicate?5that?5the?5estim@
   5AC6DE ??_C@_0FP@NIGJNLJG@Minimum?5radius?5for?5NN?9interpola@
   5AC6DE ??_C@_0GA@KJACEBEO@Y?9value?5for?5Guinier?5plot?3?5the?5l@
   5AC6DE ??_C@_0GA@KOKMKFKO@Rootname?5for?5all?5output?5files?5?$CI@
   5AC6DE ??_C@_0GA@NGLKCEFH@Power?5of?5the?5differences?5betwee@
   5AC6DE ??_C@_0GB@DFHJDLIO@Y?9value?5for?5Guinier?5plot?3?5the?5l@
   5AC6DE ??_C@_0GB@EDNKCCIH@Flag?5to?5indicate?5that?5the?5estim@
   5AC6DE ??_C@_0GB@GELANEBC@Fourier?5shell?5correlation?5betwe@
   5AC6DE ??_C@_0GB@ILLEEDOA@Number?5of?5iterations?5that?5have?5@
   5AC6DE ??_C@_0GC@DDDFBDIO@Y?9value?5for?5Guinier?5plot?3?5the?5f@
   5AC6DE ??_C@_0GC@KFABNFJL@Width?5?$CIin?5pixels?$CJ?5of?5the?5soft?5e@
   5AC6DE ??_C@_0GE@DMDBCEJM@Probability?5Density?5Function?5of@
   5AC6DE ??_C@_0GE@ELJDNICG@Order?5of?5the?5adaptive?5oversampl@
   5AC6DE ??_C@_0GE@GMFBAJBI@STAR?5file?5with?5metadata?5for?5the@
   5AC6DE ??_C@_0GG@NLPFJBMC@Healpix?5order?5?$CIbefore?5oversampl@
   5AC6DE ??_C@_0GH@BEGMIKBI@Probability?5Density?5Function?5of@
   5AC6DE ??_C@_0GH@FLLKNFFK@Flag?5to?5indicate?5that?5the?5refer@
   5AC6DE ??_C@_0GI@BDBICEGO@Fraction?5of?5the?5weights?5that?5wi@
   5AC6DE ??_C@_0GL@CMHHDFID@Values?5to?5which?5to?5limit?5the?5ti@
   5AC6DE ??_C@_0HB@EJDGBBMF@The?5number?5of?5different?5groups?5@
   5AC6DE ??_C@_0HF@GABKIAKE@Mode?5for?5prior?5distributions?5on@
   5AC6DE ??_C@_0HG@PJLFBAOD@Flag?5to?5indicate?5that?5the?5estim@
   5AC6DE ??_C@_0HH@CLLIBCGM@Regularisation?5parameter?5with?5w@
   5AC6DE ??_C@_0HH@EIKJBFKC@Flag?5to?5indicate?5that?5the?5angul@
   5AC6DE ??_C@_0HI@GNDBFKNO@Factor?5for?5random?5perturbation?5@
   5AC6DE ??_C@_0HJ@COFAJCBC@Name?5of?5an?5image?5that?5contains?5@
   5AC6DE ??_C@_0HM@FIJDLBBI@Number?5of?5orientational?1class?5a@
   5AC6DE ??_C@_0IA@GIODMDFD@Resolution?5?$CIin?5Angstrom?$CJ?5to?5joi@
   5AC6DE ??_C@_0IM@BNMPAKAC@Maximum?5size?5of?5the?5images?5to?5b@
   5AC6DE ??_C@_0IM@JIJNCECD@Current?5size?5of?5the?5images?5to?5b@
   5AC6DE ??_C@_0IP@OILEOOIA@Flag?5to?5indicate?5that?5the?5surro@
   5AC6DE ??_C@_0JC@LNINFPBA@Flag?5to?5indicate?5that?5rotationa@
   5AC6DE ??_C@_0KI@JGMHBLDF@Flag?5to?5indicate?5that?5orientati@
   5AC6DE ??_C@_0L@CGBHIGKL@rlnVoltage@
   5AC6DE ??_C@_0L@CLGHIHHF@rlnImageId@
   5AC6DE ??_C@_0L@DANMIOOG@rlnPsiStep@
   5AC6DE ??_C@_0L@EJHHNGGG@rlnBfactor@
   5AC6DE ??_C@_0L@GHIKBAHK@rlnComment@
   5AC6DE ??_C@_0L@INPBEHNL@rlnOriginY@
   5AC6DE ??_C@_0L@IPHBEFCI@?5?$CIint?$CJ?5?5?5?5@
   5AC6DE ??_C@_0L@JEOKHGJK@rlnOriginX@
   5AC6DE ??_C@_0L@JNABCJFH@?5?$CIDOUBLE?$CJ?5@
   5AC6DE ??_C@_0L@KGNMBEBI@rlnOriginZ@
   5AC6DE ??_C@_0L@MJJPPHNJ@rlnEnabled@
   5AC6DE ??_C@_0L@NFNNKAPO@rlnSsnrMap@
   5AC6DE ??_C@_0L@NJLNCCFB@?5?$CIstring?$CJ?5@
   5AC6DE ??_C@_0L@PCKAMKBE@?5?$CIlong?$CJ?5?5?5@
   5AC6DE ??_C@_0L@PGNCOKPB@?5?$CIbool?$CJ?5?5?5@
   5AC6DE ??_C@_0M@GBKFPFMJ@rlnCtfImage@
   5AC6DE ??_C@_0M@GLACOAON@rlnSelected@
   5AC6DE ??_C@_0M@HDNPNMNH@rlnMtfValue@
   5AC6DE ??_C@_0M@JMEDPPDI@rlnAnglePsi@
   5AC6DE ??_C@_0M@KNELNIB@rlnDataType@
   5AC6DE ??_C@_0M@LLBNAHEF@rlnCtfValue@
   5AC6DE ??_C@_0M@MAACAMGI@rlnDefocusU@
   5AC6DE ??_C@_0M@NINNJJAM@rlnAreaName@
   5AC6DE ??_C@_0M@NMBKABLL@rlnAngleRot@
   5AC6DE ??_C@_0M@OLCPFPKL@rlnDefocusV@
   5AC6DE ??_C@_0M@PBLIENNF@rlnNrGroups@
   5AC6DE ??_C@_0N@CHIPOKAK@rlnGroupName@
   5AC6DE ??_C@_0N@CMBFHCMF@rlnBeamTiltX@
   5AC6DE ??_C@_0N@DFAOEDIE@rlnBeamTiltY@
   5AC6DE ??_C@_0N@KPCCJEED@rlnAngleTilt@
   5AC6DE ??_C@_0N@LIECJFMN@rlnImageSize@
   5AC6DE ??_C@_0N@ONHBAEAC@rlnPixelSize@
   5AC6DE ??_C@_0N@PMOPFLOE@rlnImageName@
   5AC6DE ??_C@_0N@POKFLJLG@rlnNrClasses@
   5AC6DE ??_C@_0O@BAJDPFAB@rlnMatrix_3_1@
   5AC6DE ??_C@_0O@BINHCBCJ@rlnPhaseShift@
   5AC6DE ??_C@_0O@CCKFJHID@rlnMatrix_3_3@
   5AC6DE ??_C@_0O@COAAHOEI@rlnEnergyLoss@
   5AC6DE ??_C@_0O@DIHHGJLC@rlnDoZeroMask@
   5AC6DE ??_C@_0O@DLLOKGMC@rlnMatrix_3_2@
   5AC6DE ??_C@_0O@ECOGEFOE@rlnResolution@
   5AC6DE ??_C@_0O@FHGDJBJB@rlnNrOfFrames@
   5AC6DE ??_C@_0O@FHHAAEFI@rlnOffsetStep@
   5AC6DE ??_C@_0O@FLMKOHHF@rlnRandomSeed@
   5AC6DE ??_C@_0O@HOBFBKGD@rlnParticleId@
   5AC6DE ??_C@_0O@IDACMBKH@rlnMatrix_2_2@
   5AC6DE ??_C@_0O@IIKMFPAI@rlnMatrix_1_3@
   5AC6DE ??_C@_0O@IOBEBKIF@rlnImageSizeY@
   5AC6DE ??_C@_0O@JBLHGOEJ@rlnMatrix_1_2@
   5AC6DE ??_C@_0O@JHAPCLME@rlnImageSizeX@
   5AC6DE ??_C@_0O@JKBJPAOG@rlnMatrix_2_3@
   5AC6DE ??_C@_0O@KFDJEJEG@rlnImageSizeZ@
   5AC6DE ??_C@_0O@KICPJCGE@rlnMatrix_2_1@
   5AC6DE ??_C@_0O@LKJKDNIK@rlnMatrix_1_1@
   5AC6DE ??_C@_0P@CPDOGIMI@rlnSigma2Noise@
   5AC6DE ??_C@_0P@JIJFPAOB@rlnCoordinateZ@
   5AC6DE ??_C@_0P@KKKDJCGD@rlnCoordinateX@
   5AC6DE ??_C@_0P@LDLIKDCC@rlnCoordinateY@
   5AC6DE ??_C@_0P@NAFJMPID@rlnOffsetRange@
   5AC6DE ??_C@_0P@NFMEOGNM@rlnAveragePmax@
   5AC6DE ??_C@_0P@ODFFJILH@rlnDoSkipAlign@
   5AC6DE ??_C@_0P@OMLFKOOI@rlnGroupNumber@
   5AC6DE ??_C@_0P@PAGPDEIA@rlnClassNumber@
   5AC6DE ??_C@_0P@PHOILMHB@rlnSortedIndex@
   5AC6DE ??_C@_0P@PNGCJBFB@rlnImageWeight@
   5AC6DE ??_C@_1BAM@PDLPMHPG@?$AAs?$AAt?$AAd?$AA?3?$AA?3?$AA_?$AAT?$AAr?$AAe?$AAe?$AA_?$AAv?$AAa?$AAl?$AA?$DM@
   5AC6DE ??_C@_1BFE@FNIDKBNP@?$AAs?$AAt?$AAd?$AA?3?$AA?3?$AA_?$AAT?$AAr?$AAe?$AAe?$AA_?$AAc?$AAo?$AAn?$AAs@
   5AC6DE ??_C@_1BFG@BLBOOMLH@?$AAs?$AAt?$AAd?$AA?3?$AA?3?$AA_?$AAT?$AAr?$AAe?$AAe?$AA_?$AAc?$AAo?$AAn?$AAs@
   5AC6DE ??_C@_1BFG@LLODAFHC@?$AAs?$AAt?$AAd?$AA?3?$AA?3?$AA_?$AAT?$AAr?$AAe?$AAe?$AA_?$AAc?$AAo?$AAn?$AAs@
   5AC6DE ??_C@_1BFG@OICMFAHG@?$AAs?$AAt?$AAd?$AA?3?$AA?3?$AA_?$AAT?$AAr?$AAe?$AAe?$AA_?$AAc?$AAo?$AAn?$AAs@
   5AC6DE ??_C@_1BIG@HIDCCCLO@?$AAs?$AAt?$AAd?$AA?3?$AA?3?$AA_?$AAT?$AAr?$AAe?$AAe?$AA_?$AAv?$AAa?$AAl?$AA?$DM@
   5AC6DE ??_C@_1BMO@BNBJKIGO@?$AAs?$AAt?$AAd?$AA?3?$AA?3?$AA_?$AAT?$AAr?$AAe?$AAe?$AA_?$AAc?$AAo?$AAn?$AAs@
   5AC6DE ??_C@_1BNA@DPOBGCLF@?$AAs?$AAt?$AAd?$AA?3?$AA?3?$AA_?$AAT?$AAr?$AAe?$AAe?$AA_?$AAc?$AAo?$AAn?$AAs@
   5AC6DE ??_C@_1BNA@GMCODHLB@?$AAs?$AAt?$AAd?$AA?3?$AA?3?$AA_?$AAT?$AAr?$AAe?$AAe?$AA_?$AAc?$AAo?$AAn?$AAs@
   5AC6DE ??_C@_1BNA@JPBMILHA@?$AAs?$AAt?$AAd?$AA?3?$AA?3?$AA_?$AAT?$AAr?$AAe?$AAe?$AA_?$AAc?$AAo?$AAn?$AAs@
   5AC6DE ??_C@_1BNC@OCEHMLKO@?$AAs?$AAt?$AAd?$AA?3?$AA?3?$AA_?$AAT?$AAr?$AAe?$AAe?$AA?$DM?$AAc?$AAl?$AAa?$AAs@
   5AC6DE ??_C@_1BOA@MIANMFJL@?$AAs?$AAt?$AAd?$AA?3?$AA?3?$AA_?$AAT?$AAr?$AAe?$AAe?$AA?$DM?$AAc?$AAl?$AAa?$AAs@
   5AC6DE ??_C@_1CAM@NGLDEJOH@?$AAs?$AAt?$AAd?$AA?3?$AA?3?$AA_?$AAT?$AAr?$AAe?$AAe?$AA_?$AAv?$AAa?$AAl?$AA?$DM@
   5AC6DE ??_C@_1CFE@PPLBLEGL@?$AAs?$AAt?$AAd?$AA?3?$AA?3?$AA_?$AAT?$AAr?$AAe?$AAe?$AA_?$AAc?$AAo?$AAn?$AAs@
   5AC6DE ??_C@_1CFG@FFIHNBD@?$AAs?$AAt?$AAd?$AA?3?$AA?3?$AA_?$AAT?$AAr?$AAe?$AAe?$AA_?$AAc?$AAo?$AAn?$AAs@
   5AC6DE ??_C@_1CFG@FGJHCIBH@?$AAs?$AAt?$AAd?$AA?3?$AA?3?$AA_?$AAT?$AAr?$AAe?$AAe?$AA_?$AAc?$AAo?$AAn?$AAs@
   5AC6DE ??_C@_1CFG@PGGKMBNC@?$AAs?$AAt?$AAd?$AA?3?$AA?3?$AA_?$AAT?$AAr?$AAe?$AAe?$AA_?$AAc?$AAo?$AAn?$AAs@
   5AC6DE ??_C@_1DEM@GKJMKAKF@?$AAs?$AAt?$AAd?$AA?3?$AA?3?$AA_?$AAT?$AAr?$AAe?$AAe?$AA?$DM?$AAc?$AAl?$AAa?$AAs@
   5AC6DE ??_C@_1DFK@IOADNOLD@?$AAs?$AAt?$AAd?$AA?3?$AA?3?$AA_?$AAT?$AAr?$AAe?$AAe?$AA?$DM?$AAc?$AAl?$AAa?$AAs@
   5AC6DE ??_C@_1EFG@HPDNAECC@?$AAs?$AAt?$AAd?$AA?3?$AA?3?$AA_?$AAT?$AAr?$AAe?$AAe?$AA?$DM?$AAc?$AAl?$AAa?$AAs@
   5AC6DE ??_C@_1EGE@IHOCAPBL@?$AAs?$AAt?$AAd?$AA?3?$AA?3?$AA_?$AAT?$AAr?$AAe?$AAe?$AA?$DM?$AAc?$AAl?$AAa?$AAs@
   5AC6DE ??_C@_1FA@HNFOKDLB@?$AA?$CC?$AAm?$AAa?$AAp?$AA?1?$AAs?$AAe?$AAt?$AA?5?$AAi?$AAn?$AAs?$AAe?$AAr?$AAt@
   5AC6DE ??_C@_1FE@HAEBNAIH@?$AA?$CC?$AAc?$AAa?$AAn?$AAn?$AAo?$AAt?$AA?5?$AAd?$AAe?$AAc?$AAr?$AAe?$AAm?$AAe@
   5AC6DE ??_C@_1GM@ECOECPCJ@?$AA?$CC?$AAc?$AAa?$AAn?$AAn?$AAo?$AAt?$AA?5?$AAd?$AAe?$AAc?$AAr?$AAe?$AAm?$AAe@
   5AC6DE ??_G?$pair@$$CBV?$basic_string@DU?$char_traits@D@std@@V?$allocator@D@2@@std@@V12@@std@@QEAAPEAXI@Z
   5AC6DE ??_G?$pair@$$CBV?$basic_string@DU?$char_traits@D@std@@V?$allocator@D@2@@std@@W4EMDLabel@relion@@@std@@QEAAPEAXI@Z
   5AC6DE ??_G?$pair@$$CBW4EMDLabel@relion@@VEMDLabelData@2@@std@@QEAAPEAXI@Z
   5AC6DE ?_Alloc_proxy@?$_Tree_comp_alloc@V?$_Tmap_traits@V?$basic_string@DU?$char_traits@D@std@@V?$allocator@D@2@@std@@V12@U?$less@V?$basic_string@DU?$char_traits@D@std@@V?$allocator@D@2@@std@@@2@V?$allocator@U?$pair@$$CBV?$basic_string@DU?$char_traits@D@std@@V?$allocator@D@2@@std@@V12@@std@@@2@$0A@@std@@@std@@QEAAXXZ
   5AC6DE ?_Alloc_proxy@?$_Tree_comp_alloc@V?$_Tmap_traits@V?$basic_string@DU?$char_traits@D@std@@V?$allocator@D@2@@std@@W4EMDLabel@relion@@U?$less@V?$basic_string@DU?$char_traits@D@std@@V?$allocator@D@2@@std@@@2@V?$allocator@U?$pair@$$CBV?$basic_string@DU?$char_traits@D@std@@V?$allocator@D@2@@std@@W4EMDLabel@relion@@@std@@@2@$0A@@std@@@std@@QEAAXXZ
   5AC6DE ?_Alloc_proxy@?$_Tree_comp_alloc@V?$_Tmap_traits@W4EMDLabel@relion@@VEMDLabelData@2@U?$less@W4EMDLabel@relion@@@std@@V?$allocator@U?$pair@$$CBW4EMDLabel@relion@@VEMDLabelData@2@@std@@@5@$0A@@std@@@std@@QEAAXXZ
   5AC6DE ?_Buyheadnode@?$_Tree_comp_alloc@V?$_Tmap_traits@V?$basic_string@DU?$char_traits@D@std@@V?$allocator@D@2@@std@@V12@U?$less@V?$basic_string@DU?$char_traits@D@std@@V?$allocator@D@2@@std@@@2@V?$allocator@U?$pair@$$CBV?$basic_string@DU?$char_traits@D@std@@V?$allocator@D@2@@std@@V12@@std@@@2@$0A@@std@@@std@@QEAAPEAU?$_Tree_node@U?$pair@$$CBV?$basic_string@DU?$char_traits@D@std@@V?$allocator@D@2@@std@@V12@@std@@PEAX@2@XZ
   5AC6DE ?_Buyheadnode@?$_Tree_comp_alloc@V?$_Tmap_traits@V?$basic_string@DU?$char_traits@D@std@@V?$allocator@D@2@@std@@W4EMDLabel@relion@@U?$less@V?$basic_string@DU?$char_traits@D@std@@V?$allocator@D@2@@std@@@2@V?$allocator@U?$pair@$$CBV?$basic_string@DU?$char_traits@D@std@@V?$allocator@D@2@@std@@W4EMDLabel@relion@@@std@@@2@$0A@@std@@@std@@QEAAPEAU?$_Tree_node@U?$pair@$$CBV?$basic_string@DU?$char_traits@D@std@@V?$allocator@D@2@@std@@W4EMDLabel@relion@@@std@@PEAX@2@XZ
   5AC6DE ?_Buyheadnode@?$_Tree_comp_alloc@V?$_Tmap_traits@W4EMDLabel@relion@@VEMDLabelData@2@U?$less@W4EMDLabel@relion@@@std@@V?$allocator@U?$pair@$$CBW4EMDLabel@relion@@VEMDLabelData@2@@std@@@5@$0A@@std@@@std@@QEAAPEAU?$_Tree_node@U?$pair@$$CBW4EMDLabel@relion@@VEMDLabelData@2@@std@@PEAX@2@XZ
   5AC6DE ?_Buynode0@?$_Tree_comp_alloc@V?$_Tmap_traits@V?$basic_string@DU?$char_traits@D@std@@V?$allocator@D@2@@std@@V12@U?$less@V?$basic_string@DU?$char_traits@D@std@@V?$allocator@D@2@@std@@@2@V?$allocator@U?$pair@$$CBV?$basic_string@DU?$char_traits@D@std@@V?$allocator@D@2@@std@@V12@@std@@@2@$0A@@std@@@std@@QEAAPEAU?$_Tree_node@U?$pair@$$CBV?$basic_string@DU?$char_traits@D@std@@V?$allocator@D@2@@std@@V12@@std@@PEAX@2@XZ
   5AC6DE ?_Buynode0@?$_Tree_comp_alloc@V?$_Tmap_traits@V?$basic_string@DU?$char_traits@D@std@@V?$allocator@D@2@@std@@W4EMDLabel@relion@@U?$less@V?$basic_string@DU?$char_traits@D@std@@V?$allocator@D@2@@std@@@2@V?$allocator@U?$pair@$$CBV?$basic_string@DU?$char_traits@D@std@@V?$allocator@D@2@@std@@W4EMDLabel@relion@@@std@@@2@$0A@@std@@@std@@QEAAPEAU?$_Tree_node@U?$pair@$$CBV?$basic_string@DU?$char_traits@D@std@@V?$allocator@D@2@@std@@W4EMDLabel@relion@@@std@@PEAX@2@XZ
   5AC6DE ?_Buynode0@?$_Tree_comp_alloc@V?$_Tmap_traits@W4EMDLabel@relion@@VEMDLabelData@2@U?$less@W4EMDLabel@relion@@@std@@V?$allocator@U?$pair@$$CBW4EMDLabel@relion@@VEMDLabelData@2@@std@@@5@$0A@@std@@@std@@QEAAPEAU?$_Tree_node@U?$pair@$$CBW4EMDLabel@relion@@VEMDLabelData@2@@std@@PEAX@2@XZ
   5AC6DE ?_Compare@?$_Tree@V?$_Tmap_traits@V?$basic_string@DU?$char_traits@D@std@@V?$allocator@D@2@@std@@V12@U?$less@V?$basic_string@DU?$char_traits@D@std@@V?$allocator@D@2@@std@@@2@V?$allocator@U?$pair@$$CBV?$basic_string@DU?$char_traits@D@std@@V?$allocator@D@2@@std@@V12@@std@@@2@$0A@@std@@@std@@IEBA_NAEBV?$basic_string@DU?$char_traits@D@std@@V?$allocator@D@2@@2@0@Z
   5AC6DE ?_Compare@?$_Tree@V?$_Tmap_traits@V?$basic_string@DU?$char_traits@D@std@@V?$allocator@D@2@@std@@W4EMDLabel@relion@@U?$less@V?$basic_string@DU?$char_traits@D@std@@V?$allocator@D@2@@std@@@2@V?$allocator@U?$pair@$$CBV?$basic_string@DU?$char_traits@D@std@@V?$allocator@D@2@@std@@W4EMDLabel@relion@@@std@@@2@$0A@@std@@@std@@IEBA_NAEBV?$basic_string@DU?$char_traits@D@std@@V?$allocator@D@2@@2@0@Z
   5AC6DE ?_Compare@?$_Tree@V?$_Tmap_traits@W4EMDLabel@relion@@VEMDLabelData@2@U?$less@W4EMDLabel@relion@@@std@@V?$allocator@U?$pair@$$CBW4EMDLabel@relion@@VEMDLabelData@2@@std@@@5@$0A@@std@@@std@@IEBA_NAEBW4EMDLabel@relion@@0@Z
   5AC6DE ?_Construct@?$_Tree_comp_alloc@V?$_Tmap_traits@V?$basic_string@DU?$char_traits@D@std@@V?$allocator@D@2@@std@@V12@U?$less@V?$basic_string@DU?$char_traits@D@std@@V?$allocator@D@2@@std@@@2@V?$allocator@U?$pair@$$CBV?$basic_string@DU?$char_traits@D@std@@V?$allocator@D@2@@std@@V12@@std@@@2@$0A@@std@@@std@@QEAAXXZ
   5AC6DE ?_Construct@?$_Tree_comp_alloc@V?$_Tmap_traits@V?$basic_string@DU?$char_traits@D@std@@V?$allocator@D@2@@std@@W4EMDLabel@relion@@U?$less@V?$basic_string@DU?$char_traits@D@std@@V?$allocator@D@2@@std@@@2@V?$allocator@U?$pair@$$CBV?$basic_string@DU?$char_traits@D@std@@V?$allocator@D@2@@std@@W4EMDLabel@relion@@@std@@@2@$0A@@std@@@std@@QEAAXXZ
   5AC6DE ?_Construct@?$_Tree_comp_alloc@V?$_Tmap_traits@W4EMDLabel@relion@@VEMDLabelData@2@U?$less@W4EMDLabel@relion@@@std@@V?$allocator@U?$pair@$$CBW4EMDLabel@relion@@VEMDLabelData@2@@std@@@5@$0A@@std@@@std@@QEAAXXZ
   5AC6DE ?_Destroy_if_node@?$_Tree@V?$_Tmap_traits@V?$basic_string@DU?$char_traits@D@std@@V?$allocator@D@2@@std@@V12@U?$less@V?$basic_string@DU?$char_traits@D@std@@V?$allocator@D@2@@std@@@2@V?$allocator@U?$pair@$$CBV?$basic_string@DU?$char_traits@D@std@@V?$allocator@D@2@@std@@V12@@std@@@2@$0A@@std@@@std@@IEAAXPEAU?$_Tree_node@U?$pair@$$CBV?$basic_string@DU?$char_traits@D@std@@V?$allocator@D@2@@std@@V12@@std@@PEAX@2@@Z
   5AC6DE ?_Destroy_if_node@?$_Tree@V?$_Tmap_traits@V?$basic_string@DU?$char_traits@D@std@@V?$allocator@D@2@@std@@W4EMDLabel@relion@@U?$less@V?$basic_string@DU?$char_traits@D@std@@V?$allocator@D@2@@std@@@2@V?$allocator@U?$pair@$$CBV?$basic_string@DU?$char_traits@D@std@@V?$allocator@D@2@@std@@W4EMDLabel@relion@@@std@@@2@$0A@@std@@@std@@IEAAXPEAU?$_Tree_node@U?$pair@$$CBV?$basic_string@DU?$char_traits@D@std@@V?$allocator@D@2@@std@@W4EMDLabel@relion@@@std@@PEAX@2@@Z
   5AC6DE ?_Destroy_if_node@?$_Tree@V?$_Tmap_traits@W4EMDLabel@relion@@VEMDLabelData@2@U?$less@W4EMDLabel@relion@@@std@@V?$allocator@U?$pair@$$CBW4EMDLabel@relion@@VEMDLabelData@2@@std@@@5@$0A@@std@@@std@@IEAAXPEAU?$_Tree_node@U?$pair@$$CBW4EMDLabel@relion@@VEMDLabelData@2@@std@@PEAX@2@@Z
   5AC6DE ?_Erase@?$_Tree@V?$_Tmap_traits@V?$basic_string@DU?$char_traits@D@std@@V?$allocator@D@2@@std@@V12@U?$less@V?$basic_string@DU?$char_traits@D@std@@V?$allocator@D@2@@std@@@2@V?$allocator@U?$pair@$$CBV?$basic_string@DU?$char_traits@D@std@@V?$allocator@D@2@@std@@V12@@std@@@2@$0A@@std@@@std@@IEAAXPEAU?$_Tree_node@U?$pair@$$CBV?$basic_string@DU?$char_traits@D@std@@V?$allocator@D@2@@std@@V12@@std@@PEAX@2@@Z
   5AC6DE ?_Erase@?$_Tree@V?$_Tmap_traits@V?$basic_string@DU?$char_traits@D@std@@V?$allocator@D@2@@std@@W4EMDLabel@relion@@U?$less@V?$basic_string@DU?$char_traits@D@std@@V?$allocator@D@2@@std@@@2@V?$allocator@U?$pair@$$CBV?$basic_string@DU?$char_traits@D@std@@V?$allocator@D@2@@std@@W4EMDLabel@relion@@@std@@@2@$0A@@std@@@std@@IEAAXPEAU?$_Tree_node@U?$pair@$$CBV?$basic_string@DU?$char_traits@D@std@@V?$allocator@D@2@@std@@W4EMDLabel@relion@@@std@@PEAX@2@@Z
   5AC6DE ?_Erase@?$_Tree@V?$_Tmap_traits@W4EMDLabel@relion@@VEMDLabelData@2@U?$less@W4EMDLabel@relion@@@std@@V?$allocator@U?$pair@$$CBW4EMDLabel@relion@@VEMDLabelData@2@@std@@@5@$0A@@std@@@std@@IEAAXPEAU?$_Tree_node@U?$pair@$$CBW4EMDLabel@relion@@VEMDLabelData@2@@std@@PEAX@2@@Z
   5AC6DE ?_Extract@?$_Tree_val@U?$_Tree_simple_types@U?$pair@$$CBV?$basic_string@DU?$char_traits@D@std@@V?$allocator@D@2@@std@@V12@@std@@@std@@@std@@QEAAPEAU?$_Tree_node@U?$pair@$$CBV?$basic_string@DU?$char_traits@D@std@@V?$allocator@D@2@@std@@V12@@std@@PEAX@2@V?$_Tree_const_iterator@V?$_Tree_val@U?$_Tree_simple_types@U?$pair@$$CBV?$basic_string@DU?$char_traits@D@std@@V?$allocator@D@2@@std@@V12@@std@@@std@@@std@@@2@@Z
   5AC6DE ?_Extract@?$_Tree_val@U?$_Tree_simple_types@U?$pair@$$CBV?$basic_string@DU?$char_traits@D@std@@V?$allocator@D@2@@std@@W4EMDLabel@relion@@@std@@@std@@@std@@QEAAPEAU?$_Tree_node@U?$pair@$$CBV?$basic_string@DU?$char_traits@D@std@@V?$allocator@D@2@@std@@W4EMDLabel@relion@@@std@@PEAX@2@V?$_Tree_const_iterator@V?$_Tree_val@U?$_Tree_simple_types@U?$pair@$$CBV?$basic_string@DU?$char_traits@D@std@@V?$allocator@D@2@@std@@W4EMDLabel@relion@@@std@@@std@@@std@@@2@@Z
   5AC6DE ?_Extract@?$_Tree_val@U?$_Tree_simple_types@U?$pair@$$CBW4EMDLabel@relion@@VEMDLabelData@2@@std@@@std@@@std@@QEAAPEAU?$_Tree_node@U?$pair@$$CBW4EMDLabel@relion@@VEMDLabelData@2@@std@@PEAX@2@V?$_Tree_const_iterator@V?$_Tree_val@U?$_Tree_simple_types@U?$pair@$$CBW4EMDLabel@relion@@VEMDLabelData@2@@std@@@std@@@std@@@2@@Z
   5AC6DE ?_Free_proxy@?$_Tree_comp_alloc@V?$_Tmap_traits@V?$basic_string@DU?$char_traits@D@std@@V?$allocator@D@2@@std@@V12@U?$less@V?$basic_string@DU?$char_traits@D@std@@V?$allocator@D@2@@std@@@2@V?$allocator@U?$pair@$$CBV?$basic_string@DU?$char_traits@D@std@@V?$allocator@D@2@@std@@V12@@std@@@2@$0A@@std@@@std@@QEAAXXZ
   5AC6DE ?_Free_proxy@?$_Tree_comp_alloc@V?$_Tmap_traits@V?$basic_string@DU?$char_traits@D@std@@V?$allocator@D@2@@std@@W4EMDLabel@relion@@U?$less@V?$basic_string@DU?$char_traits@D@std@@V?$allocator@D@2@@std@@@2@V?$allocator@U?$pair@$$CBV?$basic_string@DU?$char_traits@D@std@@V?$allocator@D@2@@std@@W4EMDLabel@relion@@@std@@@2@$0A@@std@@@std@@QEAAXXZ
   5AC6DE ?_Free_proxy@?$_Tree_comp_alloc@V?$_Tmap_traits@W4EMDLabel@relion@@VEMDLabelData@2@U?$less@W4EMDLabel@relion@@@std@@V?$allocator@U?$pair@$$CBW4EMDLabel@relion@@VEMDLabelData@2@@std@@@5@$0A@@std@@@std@@QEAAXXZ
   5AC6DE ?_Freeheadnode@?$_Tree_comp_alloc@V?$_Tmap_traits@V?$basic_string@DU?$char_traits@D@std@@V?$allocator@D@2@@std@@V12@U?$less@V?$basic_string@DU?$char_traits@D@std@@V?$allocator@D@2@@std@@@2@V?$allocator@U?$pair@$$CBV?$basic_string@DU?$char_traits@D@std@@V?$allocator@D@2@@std@@V12@@std@@@2@$0A@@std@@@std@@QEAAXPEAU?$_Tree_node@U?$pair@$$CBV?$basic_string@DU?$char_traits@D@std@@V?$allocator@D@2@@std@@V12@@std@@PEAX@2@@Z
   5AC6DE ?_Freeheadnode@?$_Tree_comp_alloc@V?$_Tmap_traits@V?$basic_string@DU?$char_traits@D@std@@V?$allocator@D@2@@std@@W4EMDLabel@relion@@U?$less@V?$basic_string@DU?$char_traits@D@std@@V?$allocator@D@2@@std@@@2@V?$allocator@U?$pair@$$CBV?$basic_string@DU?$char_traits@D@std@@V?$allocator@D@2@@std@@W4EMDLabel@relion@@@std@@@2@$0A@@std@@@std@@QEAAXPEAU?$_Tree_node@U?$pair@$$CBV?$basic_string@DU?$char_traits@D@std@@V?$allocator@D@2@@std@@W4EMDLabel@relion@@@std@@PEAX@2@@Z
   5AC6DE ?_Freeheadnode@?$_Tree_comp_alloc@V?$_Tmap_traits@W4EMDLabel@relion@@VEMDLabelData@2@U?$less@W4EMDLabel@relion@@@std@@V?$allocator@U?$pair@$$CBW4EMDLabel@relion@@VEMDLabelData@2@@std@@@5@$0A@@std@@@std@@QEAAXPEAU?$_Tree_node@U?$pair@$$CBW4EMDLabel@relion@@VEMDLabelData@2@@std@@PEAX@2@@Z
   5AC6DE ?_Freenode0@?$_Tree_comp_alloc@V?$_Tmap_traits@V?$basic_string@DU?$char_traits@D@std@@V?$allocator@D@2@@std@@V12@U?$less@V?$basic_string@DU?$char_traits@D@std@@V?$allocator@D@2@@std@@@2@V?$allocator@U?$pair@$$CBV?$basic_string@DU?$char_traits@D@std@@V?$allocator@D@2@@std@@V12@@std@@@2@$0A@@std@@@std@@QEAAXPEAU?$_Tree_node@U?$pair@$$CBV?$basic_string@DU?$char_traits@D@std@@V?$allocator@D@2@@std@@V12@@std@@PEAX@2@@Z
   5AC6DE ?_Freenode0@?$_Tree_comp_alloc@V?$_Tmap_traits@V?$basic_string@DU?$char_traits@D@std@@V?$allocator@D@2@@std@@W4EMDLabel@relion@@U?$less@V?$basic_string@DU?$char_traits@D@std@@V?$allocator@D@2@@std@@@2@V?$allocator@U?$pair@$$CBV?$basic_string@DU?$char_traits@D@std@@V?$allocator@D@2@@std@@W4EMDLabel@relion@@@std@@@2@$0A@@std@@@std@@QEAAXPEAU?$_Tree_node@U?$pair@$$CBV?$basic_string@DU?$char_traits@D@std@@V?$allocator@D@2@@std@@W4EMDLabel@relion@@@std@@PEAX@2@@Z
   5AC6DE ?_Freenode0@?$_Tree_comp_alloc@V?$_Tmap_traits@W4EMDLabel@relion@@VEMDLabelData@2@U?$less@W4EMDLabel@relion@@@std@@V?$allocator@U?$pair@$$CBW4EMDLabel@relion@@VEMDLabelData@2@@std@@@5@$0A@@std@@@std@@QEAAXPEAU?$_Tree_node@U?$pair@$$CBW4EMDLabel@relion@@VEMDLabelData@2@@std@@PEAX@2@@Z
   5AC6DE ?_Get_data@?$_Tree_comp_alloc@V?$_Tmap_traits@V?$basic_string@DU?$char_traits@D@std@@V?$allocator@D@2@@std@@V12@U?$less@V?$basic_string@DU?$char_traits@D@std@@V?$allocator@D@2@@std@@@2@V?$allocator@U?$pair@$$CBV?$basic_string@DU?$char_traits@D@std@@V?$allocator@D@2@@std@@V12@@std@@@2@$0A@@std@@@std@@QEAAAEAV?$_Tree_val@U?$_Tree_simple_types@U?$pair@$$CBV?$basic_string@DU?$char_traits@D@std@@V?$allocator@D@2@@std@@V12@@std@@@std@@@2@XZ
   5AC6DE ?_Get_data@?$_Tree_comp_alloc@V?$_Tmap_traits@V?$basic_string@DU?$char_traits@D@std@@V?$allocator@D@2@@std@@V12@U?$less@V?$basic_string@DU?$char_traits@D@std@@V?$allocator@D@2@@std@@@2@V?$allocator@U?$pair@$$CBV?$basic_string@DU?$char_traits@D@std@@V?$allocator@D@2@@std@@V12@@std@@@2@$0A@@std@@@std@@QEBAAEBV?$_Tree_val@U?$_Tree_simple_types@U?$pair@$$CBV?$basic_string@DU?$char_traits@D@std@@V?$allocator@D@2@@std@@V12@@std@@@std@@@2@XZ
   5AC6DE ?_Get_data@?$_Tree_comp_alloc@V?$_Tmap_traits@V?$basic_string@DU?$char_traits@D@std@@V?$allocator@D@2@@std@@W4EMDLabel@relion@@U?$less@V?$basic_string@DU?$char_traits@D@std@@V?$allocator@D@2@@std@@@2@V?$allocator@U?$pair@$$CBV?$basic_string@DU?$char_traits@D@std@@V?$allocator@D@2@@std@@W4EMDLabel@relion@@@std@@@2@$0A@@std@@@std@@QEAAAEAV?$_Tree_val@U?$_Tree_simple_types@U?$pair@$$CBV?$basic_string@DU?$char_traits@D@std@@V?$allocator@D@2@@std@@W4EMDLabel@relion@@@std@@@std@@@2@XZ
   5AC6DE ?_Get_data@?$_Tree_comp_alloc@V?$_Tmap_traits@V?$basic_string@DU?$char_traits@D@std@@V?$allocator@D@2@@std@@W4EMDLabel@relion@@U?$less@V?$basic_string@DU?$char_traits@D@std@@V?$allocator@D@2@@std@@@2@V?$allocator@U?$pair@$$CBV?$basic_string@DU?$char_traits@D@std@@V?$allocator@D@2@@std@@W4EMDLabel@relion@@@std@@@2@$0A@@std@@@std@@QEBAAEBV?$_Tree_val@U?$_Tree_simple_types@U?$pair@$$CBV?$basic_string@DU?$char_traits@D@std@@V?$allocator@D@2@@std@@W4EMDLabel@relion@@@std@@@std@@@2@XZ
   5AC6DE ?_Get_data@?$_Tree_comp_alloc@V?$_Tmap_traits@W4EMDLabel@relion@@VEMDLabelData@2@U?$less@W4EMDLabel@relion@@@std@@V?$allocator@U?$pair@$$CBW4EMDLabel@relion@@VEMDLabelData@2@@std@@@5@$0A@@std@@@std@@QEAAAEAV?$_Tree_val@U?$_Tree_simple_types@U?$pair@$$CBW4EMDLabel@relion@@VEMDLabelData@2@@std@@@std@@@2@XZ
   5AC6DE ?_Get_data@?$_Tree_comp_alloc@V?$_Tmap_traits@W4EMDLabel@relion@@VEMDLabelData@2@U?$less@W4EMDLabel@relion@@@std@@V?$allocator@U?$pair@$$CBW4EMDLabel@relion@@VEMDLabelData@2@@std@@@5@$0A@@std@@@std@@QEBAAEBV?$_Tree_val@U?$_Tree_simple_types@U?$pair@$$CBW4EMDLabel@relion@@VEMDLabelData@2@@std@@@std@@@2@XZ
   5AC6DE ?_Get_first@?$_Compressed_pair@U?$less@V?$basic_string@DU?$char_traits@D@std@@V?$allocator@D@2@@std@@@std@@V?$_Compressed_pair@V?$allocator@U?$_Tree_node@U?$pair@$$CBV?$basic_string@DU?$char_traits@D@std@@V?$allocator@D@2@@std@@V12@@std@@PEAX@std@@@std@@V?$_Tree_val@U?$_Tree_simple_types@U?$pair@$$CBV?$basic_string@DU?$char_traits@D@std@@V?$allocator@D@2@@std@@V12@@std@@@std@@@2@$00@2@$00@std@@QEAAAEAU?$less@V?$basic_string@DU?$char_traits@D@std@@V?$allocator@D@2@@std@@@2@XZ
   5AC6DE ?_Get_first@?$_Compressed_pair@U?$less@V?$basic_string@DU?$char_traits@D@std@@V?$allocator@D@2@@std@@@std@@V?$_Compressed_pair@V?$allocator@U?$_Tree_node@U?$pair@$$CBV?$basic_string@DU?$char_traits@D@std@@V?$allocator@D@2@@std@@V12@@std@@PEAX@std@@@std@@V?$_Tree_val@U?$_Tree_simple_types@U?$pair@$$CBV?$basic_string@DU?$char_traits@D@std@@V?$allocator@D@2@@std@@V12@@std@@@std@@@2@$00@2@$00@std@@QEBAAEBU?$less@V?$basic_string@DU?$char_traits@D@std@@V?$allocator@D@2@@std@@@2@XZ
   5AC6DE ?_Get_first@?$_Compressed_pair@U?$less@V?$basic_string@DU?$char_traits@D@std@@V?$allocator@D@2@@std@@@std@@V?$_Compressed_pair@V?$allocator@U?$_Tree_node@U?$pair@$$CBV?$basic_string@DU?$char_traits@D@std@@V?$allocator@D@2@@std@@W4EMDLabel@relion@@@std@@PEAX@std@@@std@@V?$_Tree_val@U?$_Tree_simple_types@U?$pair@$$CBV?$basic_string@DU?$char_traits@D@std@@V?$allocator@D@2@@std@@W4EMDLabel@relion@@@std@@@std@@@2@$00@2@$00@std@@QEAAAEAU?$less@V?$basic_string@DU?$char_traits@D@std@@V?$allocator@D@2@@std@@@2@XZ
   5AC6DE ?_Get_first@?$_Compressed_pair@U?$less@V?$basic_string@DU?$char_traits@D@std@@V?$allocator@D@2@@std@@@std@@V?$_Compressed_pair@V?$allocator@U?$_Tree_node@U?$pair@$$CBV?$basic_string@DU?$char_traits@D@std@@V?$allocator@D@2@@std@@W4EMDLabel@relion@@@std@@PEAX@std@@@std@@V?$_Tree_val@U?$_Tree_simple_types@U?$pair@$$CBV?$basic_string@DU?$char_traits@D@std@@V?$allocator@D@2@@std@@W4EMDLabel@relion@@@std@@@std@@@2@$00@2@$00@std@@QEBAAEBU?$less@V?$basic_string@DU?$char_traits@D@std@@V?$allocator@D@2@@std@@@2@XZ
   5AC6DE ?_Get_first@?$_Compressed_pair@U?$less@W4EMDLabel@relion@@@std@@V?$_Compressed_pair@V?$allocator@U?$_Tree_node@U?$pair@$$CBW4EMDLabel@relion@@VEMDLabelData@2@@std@@PEAX@std@@@std@@V?$_Tree_val@U?$_Tree_simple_types@U?$pair@$$CBW4EMDLabel@relion@@VEMDLabelData@2@@std@@@std@@@2@$00@2@$00@std@@QEAAAEAU?$less@W4EMDLabel@relion@@@2@XZ
   5AC6DE ?_Get_first@?$_Compressed_pair@U?$less@W4EMDLabel@relion@@@std@@V?$_Compressed_pair@V?$allocator@U?$_Tree_node@U?$pair@$$CBW4EMDLabel@relion@@VEMDLabelData@2@@std@@PEAX@std@@@std@@V?$_Tree_val@U?$_Tree_simple_types@U?$pair@$$CBW4EMDLabel@relion@@VEMDLabelData@2@@std@@@std@@@2@$00@2@$00@std@@QEBAAEBU?$less@W4EMDLabel@relion@@@2@XZ
   5AC6DE ?_Get_first@?$_Compressed_pair@V?$allocator@U?$_Tree_node@U?$pair@$$CBV?$basic_string@DU?$char_traits@D@std@@V?$allocator@D@2@@std@@V12@@std@@PEAX@std@@@std@@V?$_Tree_val@U?$_Tree_simple_types@U?$pair@$$CBV?$basic_string@DU?$char_traits@D@std@@V?$allocator@D@2@@std@@V12@@std@@@std@@@2@$00@std@@QEAAAEAV?$allocator@U?$_Tree_node@U?$pair@$$CBV?$basic_string@DU?$char_traits@D@std@@V?$allocator@D@2@@std@@V12@@std@@PEAX@std@@@2@XZ
   5AC6DE ?_Get_first@?$_Compressed_pair@V?$allocator@U?$_Tree_node@U?$pair@$$CBV?$basic_string@DU?$char_traits@D@std@@V?$allocator@D@2@@std@@V12@@std@@PEAX@std@@@std@@V?$_Tree_val@U?$_Tree_simple_types@U?$pair@$$CBV?$basic_string@DU?$char_traits@D@std@@V?$allocator@D@2@@std@@V12@@std@@@std@@@2@$00@std@@QEBAAEBV?$allocator@U?$_Tree_node@U?$pair@$$CBV?$basic_string@DU?$char_traits@D@std@@V?$allocator@D@2@@std@@V12@@std@@PEAX@std@@@2@XZ
   5AC6DE ?_Get_first@?$_Compressed_pair@V?$allocator@U?$_Tree_node@U?$pair@$$CBV?$basic_string@DU?$char_traits@D@std@@V?$allocator@D@2@@std@@W4EMDLabel@relion@@@std@@PEAX@std@@@std@@V?$_Tree_val@U?$_Tree_simple_types@U?$pair@$$CBV?$basic_string@DU?$char_traits@D@std@@V?$allocator@D@2@@std@@W4EMDLabel@relion@@@std@@@std@@@2@$00@std@@QEAAAEAV?$allocator@U?$_Tree_node@U?$pair@$$CBV?$basic_string@DU?$char_traits@D@std@@V?$allocator@D@2@@std@@W4EMDLabel@relion@@@std@@PEAX@std@@@2@XZ
   5AC6DE ?_Get_first@?$_Compressed_pair@V?$allocator@U?$_Tree_node@U?$pair@$$CBV?$basic_string@DU?$char_traits@D@std@@V?$allocator@D@2@@std@@W4EMDLabel@relion@@@std@@PEAX@std@@@std@@V?$_Tree_val@U?$_Tree_simple_types@U?$pair@$$CBV?$basic_string@DU?$char_traits@D@std@@V?$allocator@D@2@@std@@W4EMDLabel@relion@@@std@@@std@@@2@$00@std@@QEBAAEBV?$allocator@U?$_Tree_node@U?$pair@$$CBV?$basic_string@DU?$char_traits@D@std@@V?$allocator@D@2@@std@@W4EMDLabel@relion@@@std@@PEAX@std@@@2@XZ
   5AC6DE ?_Get_first@?$_Compressed_pair@V?$allocator@U?$_Tree_node@U?$pair@$$CBW4EMDLabel@relion@@VEMDLabelData@2@@std@@PEAX@std@@@std@@V?$_Tree_val@U?$_Tree_simple_types@U?$pair@$$CBW4EMDLabel@relion@@VEMDLabelData@2@@std@@@std@@@2@$00@std@@QEAAAEAV?$allocator@U?$_Tree_node@U?$pair@$$CBW4EMDLabel@relion@@VEMDLabelData@2@@std@@PEAX@std@@@2@XZ
   5AC6DE ?_Get_first@?$_Compressed_pair@V?$allocator@U?$_Tree_node@U?$pair@$$CBW4EMDLabel@relion@@VEMDLabelData@2@@std@@PEAX@std@@@std@@V?$_Tree_val@U?$_Tree_simple_types@U?$pair@$$CBW4EMDLabel@relion@@VEMDLabelData@2@@std@@@std@@@2@$00@std@@QEBAAEBV?$allocator@U?$_Tree_node@U?$pair@$$CBW4EMDLabel@relion@@VEMDLabelData@2@@std@@PEAX@std@@@2@XZ
   5AC6DE ?_Get_second@?$_Compressed_pair@U?$less@V?$basic_string@DU?$char_traits@D@std@@V?$allocator@D@2@@std@@@std@@V?$_Compressed_pair@V?$allocator@U?$_Tree_node@U?$pair@$$CBV?$basic_string@DU?$char_traits@D@std@@V?$allocator@D@2@@std@@V12@@std@@PEAX@std@@@std@@V?$_Tree_val@U?$_Tree_simple_types@U?$pair@$$CBV?$basic_string@DU?$char_traits@D@std@@V?$allocator@D@2@@std@@V12@@std@@@std@@@2@$00@2@$00@std@@QEAAAEAV?$_Compressed_pair@V?$allocator@U?$_Tree_node@U?$pair@$$CBV?$basic_string@DU?$char_traits@D@std@@V?$allocator@D@2@@std@@V12@@std@@PEAX@std@@@std@@V?$_Tree_val@U?$_Tree_simple_types@U?$pair@$$CBV?$basic_string@DU?$char_traits@D@std@@V?$allocator@D@2@@std@@V12@@std@@@std@@@2@$00@2@XZ
   5AC6DE ?_Get_second@?$_Compressed_pair@U?$less@V?$basic_string@DU?$char_traits@D@std@@V?$allocator@D@2@@std@@@std@@V?$_Compressed_pair@V?$allocator@U?$_Tree_node@U?$pair@$$CBV?$basic_string@DU?$char_traits@D@std@@V?$allocator@D@2@@std@@V12@@std@@PEAX@std@@@std@@V?$_Tree_val@U?$_Tree_simple_types@U?$pair@$$CBV?$basic_string@DU?$char_traits@D@std@@V?$allocator@D@2@@std@@V12@@std@@@std@@@2@$00@2@$00@std@@QEBAAEBV?$_Compressed_pair@V?$allocator@U?$_Tree_node@U?$pair@$$CBV?$basic_string@DU?$char_traits@D@std@@V?$allocator@D@2@@std@@V12@@std@@PEAX@std@@@std@@V?$_Tree_val@U?$_Tree_simple_types@U?$pair@$$CBV?$basic_string@DU?$char_traits@D@std@@V?$allocator@D@2@@std@@V12@@std@@@std@@@2@$00@2@XZ
   5AC6DE ?_Get_second@?$_Compressed_pair@U?$less@V?$basic_string@DU?$char_traits@D@std@@V?$allocator@D@2@@std@@@std@@V?$_Compressed_pair@V?$allocator@U?$_Tree_node@U?$pair@$$CBV?$basic_string@DU?$char_traits@D@std@@V?$allocator@D@2@@std@@W4EMDLabel@relion@@@std@@PEAX@std@@@std@@V?$_Tree_val@U?$_Tree_simple_types@U?$pair@$$CBV?$basic_string@DU?$char_traits@D@std@@V?$allocator@D@2@@std@@W4EMDLabel@relion@@@std@@@std@@@2@$00@2@$00@std@@QEAAAEAV?$_Compressed_pair@V?$allocator@U?$_Tree_node@U?$pair@$$CBV?$basic_string@DU?$char_traits@D@std@@V?$allocator@D@2@@std@@W4EMDLabel@relion@@@std@@PEAX@std@@@std@@V?$_Tree_val@U?$_Tree_simple_types@U?$pair@$$CBV?$basic_string@DU?$char_traits@D@std@@V?$allocator@D@2@@std@@W4EMDLabel@relion@@@std@@@std@@@2@$00@2@XZ
   5AC6DE ?_Get_second@?$_Compressed_pair@U?$less@V?$basic_string@DU?$char_traits@D@std@@V?$allocator@D@2@@std@@@std@@V?$_Compressed_pair@V?$allocator@U?$_Tree_node@U?$pair@$$CBV?$basic_string@DU?$char_traits@D@std@@V?$allocator@D@2@@std@@W4EMDLabel@relion@@@std@@PEAX@std@@@std@@V?$_Tree_val@U?$_Tree_simple_types@U?$pair@$$CBV?$basic_string@DU?$char_traits@D@std@@V?$allocator@D@2@@std@@W4EMDLabel@relion@@@std@@@std@@@2@$00@2@$00@std@@QEBAAEBV?$_Compressed_pair@V?$allocator@U?$_Tree_node@U?$pair@$$CBV?$basic_string@DU?$char_traits@D@std@@V?$allocator@D@2@@std@@W4EMDLabel@relion@@@std@@PEAX@std@@@std@@V?$_Tree_val@U?$_Tree_simple_types@U?$pair@$$CBV?$basic_string@DU?$char_traits@D@std@@V?$allocator@D@2@@std@@W4EMDLabel@relion@@@std@@@std@@@2@$00@2@XZ
   5AC6DE ?_Get_second@?$_Compressed_pair@U?$less@W4EMDLabel@relion@@@std@@V?$_Compressed_pair@V?$allocator@U?$_Tree_node@U?$pair@$$CBW4EMDLabel@relion@@VEMDLabelData@2@@std@@PEAX@std@@@std@@V?$_Tree_val@U?$_Tree_simple_types@U?$pair@$$CBW4EMDLabel@relion@@VEMDLabelData@2@@std@@@std@@@2@$00@2@$00@std@@QEAAAEAV?$_Compressed_pair@V?$allocator@U?$_Tree_node@U?$pair@$$CBW4EMDLabel@relion@@VEMDLabelData@2@@std@@PEAX@std@@@std@@V?$_Tree_val@U?$_Tree_simple_types@U?$pair@$$CBW4EMDLabel@relion@@VEMDLabelData@2@@std@@@std@@@2@$00@2@XZ
   5AC6DE ?_Get_second@?$_Compressed_pair@U?$less@W4EMDLabel@relion@@@std@@V?$_Compressed_pair@V?$allocator@U?$_Tree_node@U?$pair@$$CBW4EMDLabel@relion@@VEMDLabelData@2@@std@@PEAX@std@@@std@@V?$_Tree_val@U?$_Tree_simple_types@U?$pair@$$CBW4EMDLabel@relion@@VEMDLabelData@2@@std@@@std@@@2@$00@2@$00@std@@QEBAAEBV?$_Compressed_pair@V?$allocator@U?$_Tree_node@U?$pair@$$CBW4EMDLabel@relion@@VEMDLabelData@2@@std@@PEAX@std@@@std@@V?$_Tree_val@U?$_Tree_simple_types@U?$pair@$$CBW4EMDLabel@relion@@VEMDLabelData@2@@std@@@std@@@2@$00@2@XZ
   5AC6DE ?_Get_second@?$_Compressed_pair@V?$allocator@U?$_Tree_node@U?$pair@$$CBV?$basic_string@DU?$char_traits@D@std@@V?$allocator@D@2@@std@@V12@@std@@PEAX@std@@@std@@V?$_Tree_val@U?$_Tree_simple_types@U?$pair@$$CBV?$basic_string@DU?$char_traits@D@std@@V?$allocator@D@2@@std@@V12@@std@@@std@@@2@$00@std@@QEAAAEAV?$_Tree_val@U?$_Tree_simple_types@U?$pair@$$CBV?$basic_string@DU?$char_traits@D@std@@V?$allocator@D@2@@std@@V12@@std@@@std@@@2@XZ
   5AC6DE ?_Get_second@?$_Compressed_pair@V?$allocator@U?$_Tree_node@U?$pair@$$CBV?$basic_string@DU?$char_traits@D@std@@V?$allocator@D@2@@std@@V12@@std@@PEAX@std@@@std@@V?$_Tree_val@U?$_Tree_simple_types@U?$pair@$$CBV?$basic_string@DU?$char_traits@D@std@@V?$allocator@D@2@@std@@V12@@std@@@std@@@2@$00@std@@QEBAAEBV?$_Tree_val@U?$_Tree_simple_types@U?$pair@$$CBV?$basic_string@DU?$char_traits@D@std@@V?$allocator@D@2@@std@@V12@@std@@@std@@@2@XZ
   5AC6DE ?_Get_second@?$_Compressed_pair@V?$allocator@U?$_Tree_node@U?$pair@$$CBV?$basic_string@DU?$char_traits@D@std@@V?$allocator@D@2@@std@@W4EMDLabel@relion@@@std@@PEAX@std@@@std@@V?$_Tree_val@U?$_Tree_simple_types@U?$pair@$$CBV?$basic_string@DU?$char_traits@D@std@@V?$allocator@D@2@@std@@W4EMDLabel@relion@@@std@@@std@@@2@$00@std@@QEAAAEAV?$_Tree_val@U?$_Tree_simple_types@U?$pair@$$CBV?$basic_string@DU?$char_traits@D@std@@V?$allocator@D@2@@std@@W4EMDLabel@relion@@@std@@@std@@@2@XZ
   5AC6DE ?_Get_second@?$_Compressed_pair@V?$allocator@U?$_Tree_node@U?$pair@$$CBV?$basic_string@DU?$char_traits@D@std@@V?$allocator@D@2@@std@@W4EMDLabel@relion@@@std@@PEAX@std@@@std@@V?$_Tree_val@U?$_Tree_simple_types@U?$pair@$$CBV?$basic_string@DU?$char_traits@D@std@@V?$allocator@D@2@@std@@W4EMDLabel@relion@@@std@@@std@@@2@$00@std@@QEBAAEBV?$_Tree_val@U?$_Tree_simple_types@U?$pair@$$CBV?$basic_string@DU?$char_traits@D@std@@V?$allocator@D@2@@std@@W4EMDLabel@relion@@@std@@@std@@@2@XZ
   5AC6DE ?_Get_second@?$_Compressed_pair@V?$allocator@U?$_Tree_node@U?$pair@$$CBW4EMDLabel@relion@@VEMDLabelData@2@@std@@PEAX@std@@@std@@V?$_Tree_val@U?$_Tree_simple_types@U?$pair@$$CBW4EMDLabel@relion@@VEMDLabelData@2@@std@@@std@@@2@$00@std@@QEAAAEAV?$_Tree_val@U?$_Tree_simple_types@U?$pair@$$CBW4EMDLabel@relion@@VEMDLabelData@2@@std@@@std@@@2@XZ
   5AC6DE ?_Get_second@?$_Compressed_pair@V?$allocator@U?$_Tree_node@U?$pair@$$CBW4EMDLabel@relion@@VEMDLabelData@2@@std@@PEAX@std@@@std@@V?$_Tree_val@U?$_Tree_simple_types@U?$pair@$$CBW4EMDLabel@relion@@VEMDLabelData@2@@std@@@std@@@2@$00@std@@QEBAAEBV?$_Tree_val@U?$_Tree_simple_types@U?$pair@$$CBW4EMDLabel@relion@@VEMDLabelData@2@@std@@@std@@@2@XZ
   5AC6DE ?_Getal@?$_Tree_comp_alloc@V?$_Tmap_traits@V?$basic_string@DU?$char_traits@D@std@@V?$allocator@D@2@@std@@V12@U?$less@V?$basic_string@DU?$char_traits@D@std@@V?$allocator@D@2@@std@@@2@V?$allocator@U?$pair@$$CBV?$basic_string@DU?$char_traits@D@std@@V?$allocator@D@2@@std@@V12@@std@@@2@$0A@@std@@@std@@QEAAAEAV?$allocator@U?$_Tree_node@U?$pair@$$CBV?$basic_string@DU?$char_traits@D@std@@V?$allocator@D@2@@std@@V12@@std@@PEAX@std@@@2@XZ
   5AC6DE ?_Getal@?$_Tree_comp_alloc@V?$_Tmap_traits@V?$basic_string@DU?$char_traits@D@std@@V?$allocator@D@2@@std@@V12@U?$less@V?$basic_string@DU?$char_traits@D@std@@V?$allocator@D@2@@std@@@2@V?$allocator@U?$pair@$$CBV?$basic_string@DU?$char_traits@D@std@@V?$allocator@D@2@@std@@V12@@std@@@2@$0A@@std@@@std@@QEBAAEBV?$allocator@U?$_Tree_node@U?$pair@$$CBV?$basic_string@DU?$char_traits@D@std@@V?$allocator@D@2@@std@@V12@@std@@PEAX@std@@@2@XZ
   5AC6DE ?_Getal@?$_Tree_comp_alloc@V?$_Tmap_traits@V?$basic_string@DU?$char_traits@D@std@@V?$allocator@D@2@@std@@W4EMDLabel@relion@@U?$less@V?$basic_string@DU?$char_traits@D@std@@V?$allocator@D@2@@std@@@2@V?$allocator@U?$pair@$$CBV?$basic_string@DU?$char_traits@D@std@@V?$allocator@D@2@@std@@W4EMDLabel@relion@@@std@@@2@$0A@@std@@@std@@QEAAAEAV?$allocator@U?$_Tree_node@U?$pair@$$CBV?$basic_string@DU?$char_traits@D@std@@V?$allocator@D@2@@std@@W4EMDLabel@relion@@@std@@PEAX@std@@@2@XZ
   5AC6DE ?_Getal@?$_Tree_comp_alloc@V?$_Tmap_traits@V?$basic_string@DU?$char_traits@D@std@@V?$allocator@D@2@@std@@W4EMDLabel@relion@@U?$less@V?$basic_string@DU?$char_traits@D@std@@V?$allocator@D@2@@std@@@2@V?$allocator@U?$pair@$$CBV?$basic_string@DU?$char_traits@D@std@@V?$allocator@D@2@@std@@W4EMDLabel@relion@@@std@@@2@$0A@@std@@@std@@QEBAAEBV?$allocator@U?$_Tree_node@U?$pair@$$CBV?$basic_string@DU?$char_traits@D@std@@V?$allocator@D@2@@std@@W4EMDLabel@relion@@@std@@PEAX@std@@@2@XZ
   5AC6DE ?_Getal@?$_Tree_comp_alloc@V?$_Tmap_traits@W4EMDLabel@relion@@VEMDLabelData@2@U?$less@W4EMDLabel@relion@@@std@@V?$allocator@U?$pair@$$CBW4EMDLabel@relion@@VEMDLabelData@2@@std@@@5@$0A@@std@@@std@@QEAAAEAV?$allocator@U?$_Tree_node@U?$pair@$$CBW4EMDLabel@relion@@VEMDLabelData@2@@std@@PEAX@std@@@2@XZ
   5AC6DE ?_Getal@?$_Tree_comp_alloc@V?$_Tmap_traits@W4EMDLabel@relion@@VEMDLabelData@2@U?$less@W4EMDLabel@relion@@@std@@V?$allocator@U?$pair@$$CBW4EMDLabel@relion@@VEMDLabelData@2@@std@@@5@$0A@@std@@@std@@QEBAAEBV?$allocator@U?$_Tree_node@U?$pair@$$CBW4EMDLabel@relion@@VEMDLabelData@2@@std@@PEAX@std@@@2@XZ
   5AC6DE ?_Getcomp@?$_Tree_comp_alloc@V?$_Tmap_traits@V?$basic_string@DU?$char_traits@D@std@@V?$allocator@D@2@@std@@V12@U?$less@V?$basic_string@DU?$char_traits@D@std@@V?$allocator@D@2@@std@@@2@V?$allocator@U?$pair@$$CBV?$basic_string@DU?$char_traits@D@std@@V?$allocator@D@2@@std@@V12@@std@@@2@$0A@@std@@@std@@QEAAAEAU?$less@V?$basic_string@DU?$char_traits@D@std@@V?$allocator@D@2@@std@@@2@XZ
   5AC6DE ?_Getcomp@?$_Tree_comp_alloc@V?$_Tmap_traits@V?$basic_string@DU?$char_traits@D@std@@V?$allocator@D@2@@std@@V12@U?$less@V?$basic_string@DU?$char_traits@D@std@@V?$allocator@D@2@@std@@@2@V?$allocator@U?$pair@$$CBV?$basic_string@DU?$char_traits@D@std@@V?$allocator@D@2@@std@@V12@@std@@@2@$0A@@std@@@std@@QEBAAEBU?$less@V?$basic_string@DU?$char_traits@D@std@@V?$allocator@D@2@@std@@@2@XZ
   5AC6DE ?_Getcomp@?$_Tree_comp_alloc@V?$_Tmap_traits@V?$basic_string@DU?$char_traits@D@std@@V?$allocator@D@2@@std@@W4EMDLabel@relion@@U?$less@V?$basic_string@DU?$char_traits@D@std@@V?$allocator@D@2@@std@@@2@V?$allocator@U?$pair@$$CBV?$basic_string@DU?$char_traits@D@std@@V?$allocator@D@2@@std@@W4EMDLabel@relion@@@std@@@2@$0A@@std@@@std@@QEAAAEAU?$less@V?$basic_string@DU?$char_traits@D@std@@V?$allocator@D@2@@std@@@2@XZ
   5AC6DE ?_Getcomp@?$_Tree_comp_alloc@V?$_Tmap_traits@V?$basic_string@DU?$char_traits@D@std@@V?$allocator@D@2@@std@@W4EMDLabel@relion@@U?$less@V?$basic_string@DU?$char_traits@D@std@@V?$allocator@D@2@@std@@@2@V?$allocator@U?$pair@$$CBV?$basic_string@DU?$char_traits@D@std@@V?$allocator@D@2@@std@@W4EMDLabel@relion@@@std@@@2@$0A@@std@@@std@@QEBAAEBU?$less@V?$basic_string@DU?$char_traits@D@std@@V?$allocator@D@2@@std@@@2@XZ
   5AC6DE ?_Getcomp@?$_Tree_comp_alloc@V?$_Tmap_traits@W4EMDLabel@relion@@VEMDLabelData@2@U?$less@W4EMDLabel@relion@@@std@@V?$allocator@U?$pair@$$CBW4EMDLabel@relion@@VEMDLabelData@2@@std@@@5@$0A@@std@@@std@@QEAAAEAU?$less@W4EMDLabel@relion@@@2@XZ
   5AC6DE ?_Getcomp@?$_Tree_comp_alloc@V?$_Tmap_traits@W4EMDLabel@relion@@VEMDLabelData@2@U?$less@W4EMDLabel@relion@@@std@@V?$allocator@U?$pair@$$CBW4EMDLabel@relion@@VEMDLabelData@2@@std@@@5@$0A@@std@@@std@@QEBAAEBU?$less@W4EMDLabel@relion@@@2@XZ
   5AC6DE ?_Getpfirst@?$_Tree_comp_alloc@V?$_Tmap_traits@V?$basic_string@DU?$char_traits@D@std@@V?$allocator@D@2@@std@@V12@U?$less@V?$basic_string@DU?$char_traits@D@std@@V?$allocator@D@2@@std@@@2@V?$allocator@U?$pair@$$CBV?$basic_string@DU?$char_traits@D@std@@V?$allocator@D@2@@std@@V12@@std@@@2@$0A@@std@@@std@@QEBAPEAPEAU_Iterator_base12@2@XZ
   5AC6DE ?_Getpfirst@?$_Tree_comp_alloc@V?$_Tmap_traits@V?$basic_string@DU?$char_traits@D@std@@V?$allocator@D@2@@std@@W4EMDLabel@relion@@U?$less@V?$basic_string@DU?$char_traits@D@std@@V?$allocator@D@2@@std@@@2@V?$allocator@U?$pair@$$CBV?$basic_string@DU?$char_traits@D@std@@V?$allocator@D@2@@std@@W4EMDLabel@relion@@@std@@@2@$0A@@std@@@std@@QEBAPEAPEAU_Iterator_base12@2@XZ
   5AC6DE ?_Getpfirst@?$_Tree_comp_alloc@V?$_Tmap_traits@W4EMDLabel@relion@@VEMDLabelData@2@U?$less@W4EMDLabel@relion@@@std@@V?$allocator@U?$pair@$$CBW4EMDLabel@relion@@VEMDLabelData@2@@std@@@5@$0A@@std@@@std@@QEBAPEAPEAU_Iterator_base12@2@XZ
   5AC6DE ?_Key@?$_Tree@V?$_Tmap_traits@V?$basic_string@DU?$char_traits@D@std@@V?$allocator@D@2@@std@@V12@U?$less@V?$basic_string@DU?$char_traits@D@std@@V?$allocator@D@2@@std@@@2@V?$allocator@U?$pair@$$CBV?$basic_string@DU?$char_traits@D@std@@V?$allocator@D@2@@std@@V12@@std@@@2@$0A@@std@@@std@@IEBAAEBV?$basic_string@DU?$char_traits@D@std@@V?$allocator@D@2@@2@PEAU?$_Tree_node@U?$pair@$$CBV?$basic_string@DU?$char_traits@D@std@@V?$allocator@D@2@@std@@V12@@std@@PEAX@2@@Z
   5AC6DE ?_Key@?$_Tree@V?$_Tmap_traits@V?$basic_string@DU?$char_traits@D@std@@V?$allocator@D@2@@std@@W4EMDLabel@relion@@U?$less@V?$basic_string@DU?$char_traits@D@std@@V?$allocator@D@2@@std@@@2@V?$allocator@U?$pair@$$CBV?$basic_string@DU?$char_traits@D@std@@V?$allocator@D@2@@std@@W4EMDLabel@relion@@@std@@@2@$0A@@std@@@std@@IEBAAEBV?$basic_string@DU?$char_traits@D@std@@V?$allocator@D@2@@2@PEAU?$_Tree_node@U?$pair@$$CBV?$basic_string@DU?$char_traits@D@std@@V?$allocator@D@2@@std@@W4EMDLabel@relion@@@std@@PEAX@2@@Z
   5AC6DE ?_Key@?$_Tree@V?$_Tmap_traits@W4EMDLabel@relion@@VEMDLabelData@2@U?$less@W4EMDLabel@relion@@@std@@V?$allocator@U?$pair@$$CBW4EMDLabel@relion@@VEMDLabelData@2@@std@@@5@$0A@@std@@@std@@IEBAAEBW4EMDLabel@relion@@PEAU?$_Tree_node@U?$pair@$$CBW4EMDLabel@relion@@VEMDLabelData@2@@std@@PEAX@2@@Z
   5AC6DE ?_Kfn@?$_Tree@V?$_Tmap_traits@V?$basic_string@DU?$char_traits@D@std@@V?$allocator@D@2@@std@@V12@U?$less@V?$basic_string@DU?$char_traits@D@std@@V?$allocator@D@2@@std@@@2@V?$allocator@U?$pair@$$CBV?$basic_string@DU?$char_traits@D@std@@V?$allocator@D@2@@std@@V12@@std@@@2@$0A@@std@@@std@@IEBAAEBV?$basic_string@DU?$char_traits@D@std@@V?$allocator@D@2@@2@AEBU?$pair@$$CBV?$basic_string@DU?$char_traits@D@std@@V?$allocator@D@2@@std@@V12@@2@@Z
   5AC6DE ?_Kfn@?$_Tree@V?$_Tmap_traits@V?$basic_string@DU?$char_traits@D@std@@V?$allocator@D@2@@std@@W4EMDLabel@relion@@U?$less@V?$basic_string@DU?$char_traits@D@std@@V?$allocator@D@2@@std@@@2@V?$allocator@U?$pair@$$CBV?$basic_string@DU?$char_traits@D@std@@V?$allocator@D@2@@std@@W4EMDLabel@relion@@@std@@@2@$0A@@std@@@std@@IEBAAEBV?$basic_string@DU?$char_traits@D@std@@V?$allocator@D@2@@2@AEBU?$pair@$$CBV?$basic_string@DU?$char_traits@D@std@@V?$allocator@D@2@@std@@W4EMDLabel@relion@@@2@@Z
   5AC6DE ?_Kfn@?$_Tree@V?$_Tmap_traits@W4EMDLabel@relion@@VEMDLabelData@2@U?$less@W4EMDLabel@relion@@@std@@V?$allocator@U?$pair@$$CBW4EMDLabel@relion@@VEMDLabelData@2@@std@@@5@$0A@@std@@@std@@IEBAAEBW4EMDLabel@relion@@AEBU?$pair@$$CBW4EMDLabel@relion@@VEMDLabelData@2@@2@@Z
   5AC6DE ?_Lmost@?$_Tree_val@U?$_Tree_simple_types@U?$pair@$$CBV?$basic_string@DU?$char_traits@D@std@@V?$allocator@D@2@@std@@V12@@std@@@std@@@std@@QEBAAEAPEAU?$_Tree_node@U?$pair@$$CBV?$basic_string@DU?$char_traits@D@std@@V?$allocator@D@2@@std@@V12@@std@@PEAX@2@XZ
   5AC6DE ?_Lmost@?$_Tree_val@U?$_Tree_simple_types@U?$pair@$$CBV?$basic_string@DU?$char_traits@D@std@@V?$allocator@D@2@@std@@W4EMDLabel@relion@@@std@@@std@@@std@@QEBAAEAPEAU?$_Tree_node@U?$pair@$$CBV?$basic_string@DU?$char_traits@D@std@@V?$allocator@D@2@@std@@W4EMDLabel@relion@@@std@@PEAX@2@XZ
   5AC6DE ?_Lmost@?$_Tree_val@U?$_Tree_simple_types@U?$pair@$$CBW4EMDLabel@relion@@VEMDLabelData@2@@std@@@std@@@std@@QEBAAEAPEAU?$_Tree_node@U?$pair@$$CBW4EMDLabel@relion@@VEMDLabelData@2@@std@@PEAX@2@XZ
   5AC6DE ?_Lrotate@?$_Tree_val@U?$_Tree_simple_types@U?$pair@$$CBV?$basic_string@DU?$char_traits@D@std@@V?$allocator@D@2@@std@@V12@@std@@@std@@@std@@QEAAXPEAU?$_Tree_node@U?$pair@$$CBV?$basic_string@DU?$char_traits@D@std@@V?$allocator@D@2@@std@@V12@@std@@PEAX@2@@Z
   5AC6DE ?_Lrotate@?$_Tree_val@U?$_Tree_simple_types@U?$pair@$$CBV?$basic_string@DU?$char_traits@D@std@@V?$allocator@D@2@@std@@W4EMDLabel@relion@@@std@@@std@@@std@@QEAAXPEAU?$_Tree_node@U?$pair@$$CBV?$basic_string@DU?$char_traits@D@std@@V?$allocator@D@2@@std@@W4EMDLabel@relion@@@std@@PEAX@2@@Z
   5AC6DE ?_Lrotate@?$_Tree_val@U?$_Tree_simple_types@U?$pair@$$CBW4EMDLabel@relion@@VEMDLabelData@2@@std@@@std@@@std@@QEAAXPEAU?$_Tree_node@U?$pair@$$CBW4EMDLabel@relion@@VEMDLabelData@2@@std@@PEAX@2@@Z
   5AC6DE ?_Max@?$_Tree_val@U?$_Tree_simple_types@U?$pair@$$CBV?$basic_string@DU?$char_traits@D@std@@V?$allocator@D@2@@std@@V12@@std@@@std@@@std@@SAPEAU?$_Tree_node@U?$pair@$$CBV?$basic_string@DU?$char_traits@D@std@@V?$allocator@D@2@@std@@V12@@std@@PEAX@2@PEAU32@@Z
   5AC6DE ?_Max@?$_Tree_val@U?$_Tree_simple_types@U?$pair@$$CBV?$basic_string@DU?$char_traits@D@std@@V?$allocator@D@2@@std@@W4EMDLabel@relion@@@std@@@std@@@std@@SAPEAU?$_Tree_node@U?$pair@$$CBV?$basic_string@DU?$char_traits@D@std@@V?$allocator@D@2@@std@@W4EMDLabel@relion@@@std@@PEAX@2@PEAU32@@Z
   5AC6DE ?_Max@?$_Tree_val@U?$_Tree_simple_types@U?$pair@$$CBW4EMDLabel@relion@@VEMDLabelData@2@@std@@@std@@@std@@SAPEAU?$_Tree_node@U?$pair@$$CBW4EMDLabel@relion@@VEMDLabelData@2@@std@@PEAX@2@PEAU32@@Z
   5AC6DE ?_Min@?$_Tree_val@U?$_Tree_simple_types@U?$pair@$$CBV?$basic_string@DU?$char_traits@D@std@@V?$allocator@D@2@@std@@V12@@std@@@std@@@std@@SAPEAU?$_Tree_node@U?$pair@$$CBV?$basic_string@DU?$char_traits@D@std@@V?$allocator@D@2@@std@@V12@@std@@PEAX@2@PEAU32@@Z
   5AC6DE ?_Min@?$_Tree_val@U?$_Tree_simple_types@U?$pair@$$CBV?$basic_string@DU?$char_traits@D@std@@V?$allocator@D@2@@std@@W4EMDLabel@relion@@@std@@@std@@@std@@SAPEAU?$_Tree_node@U?$pair@$$CBV?$basic_string@DU?$char_traits@D@std@@V?$allocator@D@2@@std@@W4EMDLabel@relion@@@std@@PEAX@2@PEAU32@@Z
   5AC6DE ?_Min@?$_Tree_val@U?$_Tree_simple_types@U?$pair@$$CBW4EMDLabel@relion@@VEMDLabelData@2@@std@@@std@@@std@@SAPEAU?$_Tree_node@U?$pair@$$CBW4EMDLabel@relion@@VEMDLabelData@2@@std@@PEAX@2@PEAU32@@Z
   5AC6DE ?_Myproxy@?$_Tree_comp_alloc@V?$_Tmap_traits@V?$basic_string@DU?$char_traits@D@std@@V?$allocator@D@2@@std@@V12@U?$less@V?$basic_string@DU?$char_traits@D@std@@V?$allocator@D@2@@std@@@2@V?$allocator@U?$pair@$$CBV?$basic_string@DU?$char_traits@D@std@@V?$allocator@D@2@@std@@V12@@std@@@2@$0A@@std@@@std@@QEAAAEAPEAU_Container_proxy@2@XZ
   5AC6DE ?_Myproxy@?$_Tree_comp_alloc@V?$_Tmap_traits@V?$basic_string@DU?$char_traits@D@std@@V?$allocator@D@2@@std@@W4EMDLabel@relion@@U?$less@V?$basic_string@DU?$char_traits@D@std@@V?$allocator@D@2@@std@@@2@V?$allocator@U?$pair@$$CBV?$basic_string@DU?$char_traits@D@std@@V?$allocator@D@2@@std@@W4EMDLabel@relion@@@std@@@2@$0A@@std@@@std@@QEAAAEAPEAU_Container_proxy@2@XZ
   5AC6DE ?_Myproxy@?$_Tree_comp_alloc@V?$_Tmap_traits@W4EMDLabel@relion@@VEMDLabelData@2@U?$less@W4EMDLabel@relion@@@std@@V?$allocator@U?$pair@$$CBW4EMDLabel@relion@@VEMDLabelData@2@@std@@@5@$0A@@std@@@std@@QEAAAEAPEAU_Container_proxy@2@XZ
   5AC6DE ?_Orphan_all@?$_Tree_comp_alloc@V?$_Tmap_traits@V?$basic_string@DU?$char_traits@D@std@@V?$allocator@D@2@@std@@V12@U?$less@V?$basic_string@DU?$char_traits@D@std@@V?$allocator@D@2@@std@@@2@V?$allocator@U?$pair@$$CBV?$basic_string@DU?$char_traits@D@std@@V?$allocator@D@2@@std@@V12@@std@@@2@$0A@@std@@@std@@QEAAXXZ
   5AC6DE ?_Orphan_all@?$_Tree_comp_alloc@V?$_Tmap_traits@V?$basic_string@DU?$char_traits@D@std@@V?$allocator@D@2@@std@@W4EMDLabel@relion@@U?$less@V?$basic_string@DU?$char_traits@D@std@@V?$allocator@D@2@@std@@@2@V?$allocator@U?$pair@$$CBV?$basic_string@DU?$char_traits@D@std@@V?$allocator@D@2@@std@@W4EMDLabel@relion@@@std@@@2@$0A@@std@@@std@@QEAAXXZ
   5AC6DE ?_Orphan_all@?$_Tree_comp_alloc@V?$_Tmap_traits@W4EMDLabel@relion@@VEMDLabelData@2@U?$less@W4EMDLabel@relion@@@std@@V?$allocator@U?$pair@$$CBW4EMDLabel@relion@@VEMDLabelData@2@@std@@@5@$0A@@std@@@std@@QEAAXXZ
   5AC6DE ?_Orphan_ptr@?$_Tree@V?$_Tmap_traits@V?$basic_string@DU?$char_traits@D@std@@V?$allocator@D@2@@std@@V12@U?$less@V?$basic_string@DU?$char_traits@D@std@@V?$allocator@D@2@@std@@@2@V?$allocator@U?$pair@$$CBV?$basic_string@DU?$char_traits@D@std@@V?$allocator@D@2@@std@@V12@@std@@@2@$0A@@std@@@std@@IEAAXPEAU?$_Tree_node@U?$pair@$$CBV?$basic_string@DU?$char_traits@D@std@@V?$allocator@D@2@@std@@V12@@std@@PEAX@2@@Z
   5AC6DE ?_Orphan_ptr@?$_Tree@V?$_Tmap_traits@V?$basic_string@DU?$char_traits@D@std@@V?$allocator@D@2@@std@@W4EMDLabel@relion@@U?$less@V?$basic_string@DU?$char_traits@D@std@@V?$allocator@D@2@@std@@@2@V?$allocator@U?$pair@$$CBV?$basic_string@DU?$char_traits@D@std@@V?$allocator@D@2@@std@@W4EMDLabel@relion@@@std@@@2@$0A@@std@@@std@@IEAAXPEAU?$_Tree_node@U?$pair@$$CBV?$basic_string@DU?$char_traits@D@std@@V?$allocator@D@2@@std@@W4EMDLabel@relion@@@std@@PEAX@2@@Z
   5AC6DE ?_Orphan_ptr@?$_Tree@V?$_Tmap_traits@W4EMDLabel@relion@@VEMDLabelData@2@U?$less@W4EMDLabel@relion@@@std@@V?$allocator@U?$pair@$$CBW4EMDLabel@relion@@VEMDLabelData@2@@std@@@5@$0A@@std@@@std@@IEAAXPEAU?$_Tree_node@U?$pair@$$CBW4EMDLabel@relion@@VEMDLabelData@2@@std@@PEAX@2@@Z
   5AC6DE ?_Rmost@?$_Tree_val@U?$_Tree_simple_types@U?$pair@$$CBV?$basic_string@DU?$char_traits@D@std@@V?$allocator@D@2@@std@@V12@@std@@@std@@@std@@QEBAAEAPEAU?$_Tree_node@U?$pair@$$CBV?$basic_string@DU?$char_traits@D@std@@V?$allocator@D@2@@std@@V12@@std@@PEAX@2@XZ
   5AC6DE ?_Rmost@?$_Tree_val@U?$_Tree_simple_types@U?$pair@$$CBV?$basic_string@DU?$char_traits@D@std@@V?$allocator@D@2@@std@@W4EMDLabel@relion@@@std@@@std@@@std@@QEBAAEAPEAU?$_Tree_node@U?$pair@$$CBV?$basic_string@DU?$char_traits@D@std@@V?$allocator@D@2@@std@@W4EMDLabel@relion@@@std@@PEAX@2@XZ
   5AC6DE ?_Rmost@?$_Tree_val@U?$_Tree_simple_types@U?$pair@$$CBW4EMDLabel@relion@@VEMDLabelData@2@@std@@@std@@@std@@QEBAAEAPEAU?$_Tree_node@U?$pair@$$CBW4EMDLabel@relion@@VEMDLabelData@2@@std@@PEAX@2@XZ
   5AC6DE ?_Root@?$_Tree_val@U?$_Tree_simple_types@U?$pair@$$CBV?$basic_string@DU?$char_traits@D@std@@V?$allocator@D@2@@std@@V12@@std@@@std@@@std@@QEBAAEAPEAU?$_Tree_node@U?$pair@$$CBV?$basic_string@DU?$char_traits@D@std@@V?$allocator@D@2@@std@@V12@@std@@PEAX@2@XZ
   5AC6DE ?_Root@?$_Tree_val@U?$_Tree_simple_types@U?$pair@$$CBV?$basic_string@DU?$char_traits@D@std@@V?$allocator@D@2@@std@@W4EMDLabel@relion@@@std@@@std@@@std@@QEBAAEAPEAU?$_Tree_node@U?$pair@$$CBV?$basic_string@DU?$char_traits@D@std@@V?$allocator@D@2@@std@@W4EMDLabel@relion@@@std@@PEAX@2@XZ
   5AC6DE ?_Root@?$_Tree_val@U?$_Tree_simple_types@U?$pair@$$CBW4EMDLabel@relion@@VEMDLabelData@2@@std@@@std@@@std@@QEBAAEAPEAU?$_Tree_node@U?$pair@$$CBW4EMDLabel@relion@@VEMDLabelData@2@@std@@PEAX@2@XZ
   5AC6DE ?_Rrotate@?$_Tree_val@U?$_Tree_simple_types@U?$pair@$$CBV?$basic_string@DU?$char_traits@D@std@@V?$allocator@D@2@@std@@V12@@std@@@std@@@std@@QEAAXPEAU?$_Tree_node@U?$pair@$$CBV?$basic_string@DU?$char_traits@D@std@@V?$allocator@D@2@@std@@V12@@std@@PEAX@2@@Z
   5AC6DE ?_Rrotate@?$_Tree_val@U?$_Tree_simple_types@U?$pair@$$CBV?$basic_string@DU?$char_traits@D@std@@V?$allocator@D@2@@std@@W4EMDLabel@relion@@@std@@@std@@@std@@QEAAXPEAU?$_Tree_node@U?$pair@$$CBV?$basic_string@DU?$char_traits@D@std@@V?$allocator@D@2@@std@@W4EMDLabel@relion@@@std@@PEAX@2@@Z
   5AC6DE ?_Rrotate@?$_Tree_val@U?$_Tree_simple_types@U?$pair@$$CBW4EMDLabel@relion@@VEMDLabelData@2@@std@@@std@@@std@@QEAAXPEAU?$_Tree_node@U?$pair@$$CBW4EMDLabel@relion@@VEMDLabelData@2@@std@@PEAX@2@@Z
   5AC6DE ?_Tidy@?$_Tree@V?$_Tmap_traits@V?$basic_string@DU?$char_traits@D@std@@V?$allocator@D@2@@std@@V12@U?$less@V?$basic_string@DU?$char_traits@D@std@@V?$allocator@D@2@@std@@@2@V?$allocator@U?$pair@$$CBV?$basic_string@DU?$char_traits@D@std@@V?$allocator@D@2@@std@@V12@@std@@@2@$0A@@std@@@std@@IEAAXXZ
   5AC6DE ?_Tidy@?$_Tree@V?$_Tmap_traits@V?$basic_string@DU?$char_traits@D@std@@V?$allocator@D@2@@std@@W4EMDLabel@relion@@U?$less@V?$basic_string@DU?$char_traits@D@std@@V?$allocator@D@2@@std@@@2@V?$allocator@U?$pair@$$CBV?$basic_string@DU?$char_traits@D@std@@V?$allocator@D@2@@std@@W4EMDLabel@relion@@@std@@@2@$0A@@std@@@std@@IEAAXXZ
   5AC6DE ?_Tidy@?$_Tree@V?$_Tmap_traits@W4EMDLabel@relion@@VEMDLabelData@2@U?$less@W4EMDLabel@relion@@@std@@V?$allocator@U?$pair@$$CBW4EMDLabel@relion@@VEMDLabelData@2@@std@@@5@$0A@@std@@@std@@IEAAXXZ
   5AC6DE ?_Unwrapped@?$_Vector_const_iterator@V?$_Vector_val@U?$_Simple_types@W4EMDLabel@relion@@@std@@@std@@@std@@QEBAPEBW4EMDLabel@relion@@XZ
   5AC6DE ?__LINE__Var@?0??printDefinitions@EMDL@relion@@SAXAEAV?$basic_ostream@DU?$char_traits@D@std@@@std@@@Z@4JA
   5AC6DE ?addLabel@EMDL@relion@@CAXW4EMDLabel@2@W4EMDLabelType@2@V?$basic_string@DU?$char_traits@D@std@@V?$allocator@D@2@@std@@2@Z
   5AC6DE ?allocate@?$allocator@U?$_Tree_node@U?$pair@$$CBV?$basic_string@DU?$char_traits@D@std@@V?$allocator@D@2@@std@@V12@@std@@PEAX@std@@@std@@QEAAPEAU?$_Tree_node@U?$pair@$$CBV?$basic_string@DU?$char_traits@D@std@@V?$allocator@D@2@@std@@V12@@std@@PEAX@2@_K@Z
   5AC6DE ?allocate@?$allocator@U?$_Tree_node@U?$pair@$$CBV?$basic_string@DU?$char_traits@D@std@@V?$allocator@D@2@@std@@W4EMDLabel@relion@@@std@@PEAX@std@@@std@@QEAAPEAU?$_Tree_node@U?$pair@$$CBV?$basic_string@DU?$char_traits@D@std@@V?$allocator@D@2@@std@@W4EMDLabel@relion@@@std@@PEAX@2@_K@Z
   5AC6DE ?allocate@?$allocator@U?$_Tree_node@U?$pair@$$CBW4EMDLabel@relion@@VEMDLabelData@2@@std@@PEAX@std@@@std@@QEAAPEAU?$_Tree_node@U?$pair@$$CBW4EMDLabel@relion@@VEMDLabelData@2@@std@@PEAX@2@_K@Z
   5AC6DE ?begin@?$_Tree@V?$_Tmap_traits@V?$basic_string@DU?$char_traits@D@std@@V?$allocator@D@2@@std@@V12@U?$less@V?$basic_string@DU?$char_traits@D@std@@V?$allocator@D@2@@std@@@2@V?$allocator@U?$pair@$$CBV?$basic_string@DU?$char_traits@D@std@@V?$allocator@D@2@@std@@V12@@std@@@2@$0A@@std@@@std@@QEAA?AV?$_Tree_iterator@V?$_Tree_val@U?$_Tree_simple_types@U?$pair@$$CBV?$basic_string@DU?$char_traits@D@std@@V?$allocator@D@2@@std@@V12@@std@@@std@@@std@@@2@XZ
   5AC6DE ?begin@?$_Tree@V?$_Tmap_traits@V?$basic_string@DU?$char_traits@D@std@@V?$allocator@D@2@@std@@W4EMDLabel@relion@@U?$less@V?$basic_string@DU?$char_traits@D@std@@V?$allocator@D@2@@std@@@2@V?$allocator@U?$pair@$$CBV?$basic_string@DU?$char_traits@D@std@@V?$allocator@D@2@@std@@W4EMDLabel@relion@@@std@@@2@$0A@@std@@@std@@QEAA?AV?$_Tree_iterator@V?$_Tree_val@U?$_Tree_simple_types@U?$pair@$$CBV?$basic_string@DU?$char_traits@D@std@@V?$allocator@D@2@@std@@W4EMDLabel@relion@@@std@@@std@@@std@@@2@XZ
   5AC6DE ?begin@?$_Tree@V?$_Tmap_traits@W4EMDLabel@relion@@VEMDLabelData@2@U?$less@W4EMDLabel@relion@@@std@@V?$allocator@U?$pair@$$CBW4EMDLabel@relion@@VEMDLabelData@2@@std@@@5@$0A@@std@@@std@@QEAA?AV?$_Tree_iterator@V?$_Tree_val@U?$_Tree_simple_types@U?$pair@$$CBW4EMDLabel@relion@@VEMDLabelData@2@@std@@@std@@@std@@@2@XZ
   5AC6DE ?begin@?$vector@W4EMDLabel@relion@@V?$allocator@W4EMDLabel@relion@@@std@@@std@@QEBA?AV?$_Vector_const_iterator@V?$_Vector_val@U?$_Simple_types@W4EMDLabel@relion@@@std@@@std@@@2@XZ
   5AC6DE ?clear@?$_Tree@V?$_Tmap_traits@V?$basic_string@DU?$char_traits@D@std@@V?$allocator@D@2@@std@@V12@U?$less@V?$basic_string@DU?$char_traits@D@std@@V?$allocator@D@2@@std@@@2@V?$allocator@U?$pair@$$CBV?$basic_string@DU?$char_traits@D@std@@V?$allocator@D@2@@std@@V12@@std@@@2@$0A@@std@@@std@@QEAAXXZ
   5AC6DE ?clear@?$_Tree@V?$_Tmap_traits@V?$basic_string@DU?$char_traits@D@std@@V?$allocator@D@2@@std@@W4EMDLabel@relion@@U?$less@V?$basic_string@DU?$char_traits@D@std@@V?$allocator@D@2@@std@@@2@V?$allocator@U?$pair@$$CBV?$basic_string@DU?$char_traits@D@std@@V?$allocator@D@2@@std@@W4EMDLabel@relion@@@std@@@2@$0A@@std@@@std@@QEAAXXZ
   5AC6DE ?clear@?$_Tree@V?$_Tmap_traits@W4EMDLabel@relion@@VEMDLabelData@2@U?$less@W4EMDLabel@relion@@@std@@V?$allocator@U?$pair@$$CBW4EMDLabel@relion@@VEMDLabelData@2@@std@@@5@$0A@@std@@@std@@QEAAXXZ
   5AC6DE ?data@EMDL@relion@@0V?$map@W4EMDLabel@relion@@VEMDLabelData@2@U?$less@W4EMDLabel@relion@@@std@@V?$allocator@U?$pair@$$CBW4EMDLabel@relion@@VEMDLabelData@2@@std@@@5@@std@@A
   5AC6DE ?deallocate@?$_Default_allocator_traits@V?$allocator@U?$_Tree_node@U?$pair@$$CBV?$basic_string@DU?$char_traits@D@std@@V?$allocator@D@2@@std@@V12@@std@@PEAX@std@@@std@@@std@@SAXAEAV?$allocator@U?$_Tree_node@U?$pair@$$CBV?$basic_string@DU?$char_traits@D@std@@V?$allocator@D@2@@std@@V12@@std@@PEAX@std@@@2@QEAU?$_Tree_node@U?$pair@$$CBV?$basic_string@DU?$char_traits@D@std@@V?$allocator@D@2@@std@@V12@@std@@PEAX@2@_K@Z
   5AC6DE ?deallocate@?$_Default_allocator_traits@V?$allocator@U?$_Tree_node@U?$pair@$$CBV?$basic_string@DU?$char_traits@D@std@@V?$allocator@D@2@@std@@W4EMDLabel@relion@@@std@@PEAX@std@@@std@@@std@@SAXAEAV?$allocator@U?$_Tree_node@U?$pair@$$CBV?$basic_string@DU?$char_traits@D@std@@V?$allocator@D@2@@std@@W4EMDLabel@relion@@@std@@PEAX@std@@@2@QEAU?$_Tree_node@U?$pair@$$CBV?$basic_string@DU?$char_traits@D@std@@V?$allocator@D@2@@std@@W4EMDLabel@relion@@@std@@PEAX@2@_K@Z
   5AC6DE ?deallocate@?$_Default_allocator_traits@V?$allocator@U?$_Tree_node@U?$pair@$$CBW4EMDLabel@relion@@VEMDLabelData@2@@std@@PEAX@std@@@std@@@std@@SAXAEAV?$allocator@U?$_Tree_node@U?$pair@$$CBW4EMDLabel@relion@@VEMDLabelData@2@@std@@PEAX@std@@@2@QEAU?$_Tree_node@U?$pair@$$CBW4EMDLabel@relion@@VEMDLabelData@2@@std@@PEAX@2@_K@Z
   5AC6DE ?deallocate@?$allocator@U?$_Tree_node@U?$pair@$$CBV?$basic_string@DU?$char_traits@D@std@@V?$allocator@D@2@@std@@V12@@std@@PEAX@std@@@std@@QEAAXQEAU?$_Tree_node@U?$pair@$$CBV?$basic_string@DU?$char_traits@D@std@@V?$allocator@D@2@@std@@V12@@std@@PEAX@2@_K@Z
   5AC6DE ?deallocate@?$allocator@U?$_Tree_node@U?$pair@$$CBV?$basic_string@DU?$char_traits@D@std@@V?$allocator@D@2@@std@@W4EMDLabel@relion@@@std@@PEAX@std@@@std@@QEAAXQEAU?$_Tree_node@U?$pair@$$CBV?$basic_string@DU?$char_traits@D@std@@V?$allocator@D@2@@std@@W4EMDLabel@relion@@@std@@PEAX@2@_K@Z
   5AC6DE ?deallocate@?$allocator@U?$_Tree_node@U?$pair@$$CBW4EMDLabel@relion@@VEMDLabelData@2@@std@@PEAX@std@@@std@@QEAAXQEAU?$_Tree_node@U?$pair@$$CBW4EMDLabel@relion@@VEMDLabelData@2@@std@@PEAX@2@_K@Z
   5AC6DE ?definitions@EMDL@relion@@0V?$map@V?$basic_string@DU?$char_traits@D@std@@V?$allocator@D@2@@std@@V12@U?$less@V?$basic_string@DU?$char_traits@D@std@@V?$allocator@D@2@@std@@@2@V?$allocator@U?$pair@$$CBV?$basic_string@DU?$char_traits@D@std@@V?$allocator@D@2@@std@@V12@@std@@@2@@std@@A
   5AC6DE ?end@?$_Tree@V?$_Tmap_traits@V?$basic_string@DU?$char_traits@D@std@@V?$allocator@D@2@@std@@V12@U?$less@V?$basic_string@DU?$char_traits@D@std@@V?$allocator@D@2@@std@@@2@V?$allocator@U?$pair@$$CBV?$basic_string@DU?$char_traits@D@std@@V?$allocator@D@2@@std@@V12@@std@@@2@$0A@@std@@@std@@QEAA?AV?$_Tree_iterator@V?$_Tree_val@U?$_Tree_simple_types@U?$pair@$$CBV?$basic_string@DU?$char_traits@D@std@@V?$allocator@D@2@@std@@V12@@std@@@std@@@std@@@2@XZ
   5AC6DE ?end@?$_Tree@V?$_Tmap_traits@V?$basic_string@DU?$char_traits@D@std@@V?$allocator@D@2@@std@@W4EMDLabel@relion@@U?$less@V?$basic_string@DU?$char_traits@D@std@@V?$allocator@D@2@@std@@@2@V?$allocator@U?$pair@$$CBV?$basic_string@DU?$char_traits@D@std@@V?$allocator@D@2@@std@@W4EMDLabel@relion@@@std@@@2@$0A@@std@@@std@@QEAA?AV?$_Tree_iterator@V?$_Tree_val@U?$_Tree_simple_types@U?$pair@$$CBV?$basic_string@DU?$char_traits@D@std@@V?$allocator@D@2@@std@@W4EMDLabel@relion@@@std@@@std@@@std@@@2@XZ
   5AC6DE ?end@?$_Tree@V?$_Tmap_traits@W4EMDLabel@relion@@VEMDLabelData@2@U?$less@W4EMDLabel@relion@@@std@@V?$allocator@U?$pair@$$CBW4EMDLabel@relion@@VEMDLabelData@2@@std@@@5@$0A@@std@@@std@@QEAA?AV?$_Tree_iterator@V?$_Tree_val@U?$_Tree_simple_types@U?$pair@$$CBW4EMDLabel@relion@@VEMDLabelData@2@@std@@@std@@@std@@@2@XZ
   5AC6DE ?end@?$vector@W4EMDLabel@relion@@V?$allocator@W4EMDLabel@relion@@@std@@@std@@QEBA?AV?$_Vector_const_iterator@V?$_Vector_val@U?$_Simple_types@W4EMDLabel@relion@@@std@@@std@@@2@XZ
   5AC6DE ?erase@?$_Tree@V?$_Tmap_traits@V?$basic_string@DU?$char_traits@D@std@@V?$allocator@D@2@@std@@V12@U?$less@V?$basic_string@DU?$char_traits@D@std@@V?$allocator@D@2@@std@@@2@V?$allocator@U?$pair@$$CBV?$basic_string@DU?$char_traits@D@std@@V?$allocator@D@2@@std@@V12@@std@@@2@$0A@@std@@@std@@QEAA?AV?$_Tree_iterator@V?$_Tree_val@U?$_Tree_simple_types@U?$pair@$$CBV?$basic_string@DU?$char_traits@D@std@@V?$allocator@D@2@@std@@V12@@std@@@std@@@std@@@2@V?$_Tree_const_iterator@V?$_Tree_val@U?$_Tree_simple_types@U?$pair@$$CBV?$basic_string@DU?$char_traits@D@std@@V?$allocator@D@2@@std@@V12@@std@@@std@@@std@@@2@0@Z
   5AC6DE ?erase@?$_Tree@V?$_Tmap_traits@V?$basic_string@DU?$char_traits@D@std@@V?$allocator@D@2@@std@@V12@U?$less@V?$basic_string@DU?$char_traits@D@std@@V?$allocator@D@2@@std@@@2@V?$allocator@U?$pair@$$CBV?$basic_string@DU?$char_traits@D@std@@V?$allocator@D@2@@std@@V12@@std@@@2@$0A@@std@@@std@@QEAA?AV?$_Tree_iterator@V?$_Tree_val@U?$_Tree_simple_types@U?$pair@$$CBV?$basic_string@DU?$char_traits@D@std@@V?$allocator@D@2@@std@@V12@@std@@@std@@@std@@@2@V?$_Tree_const_iterator@V?$_Tree_val@U?$_Tree_simple_types@U?$pair@$$CBV?$basic_string@DU?$char_traits@D@std@@V?$allocator@D@2@@std@@V12@@std@@@std@@@std@@@2@@Z
   5AC6DE ?erase@?$_Tree@V?$_Tmap_traits@V?$basic_string@DU?$char_traits@D@std@@V?$allocator@D@2@@std@@W4EMDLabel@relion@@U?$less@V?$basic_string@DU?$char_traits@D@std@@V?$allocator@D@2@@std@@@2@V?$allocator@U?$pair@$$CBV?$basic_string@DU?$char_traits@D@std@@V?$allocator@D@2@@std@@W4EMDLabel@relion@@@std@@@2@$0A@@std@@@std@@QEAA?AV?$_Tree_iterator@V?$_Tree_val@U?$_Tree_simple_types@U?$pair@$$CBV?$basic_string@DU?$char_traits@D@std@@V?$allocator@D@2@@std@@W4EMDLabel@relion@@@std@@@std@@@std@@@2@V?$_Tree_const_iterator@V?$_Tree_val@U?$_Tree_simple_types@U?$pair@$$CBV?$basic_string@DU?$char_traits@D@std@@V?$allocator@D@2@@std@@W4EMDLabel@relion@@@std@@@std@@@std@@@2@0@Z
   5AC6DE ?erase@?$_Tree@V?$_Tmap_traits@V?$basic_string@DU?$char_traits@D@std@@V?$allocator@D@2@@std@@W4EMDLabel@relion@@U?$less@V?$basic_string@DU?$char_traits@D@std@@V?$allocator@D@2@@std@@@2@V?$allocator@U?$pair@$$CBV?$basic_string@DU?$char_traits@D@std@@V?$allocator@D@2@@std@@W4EMDLabel@relion@@@std@@@2@$0A@@std@@@std@@QEAA?AV?$_Tree_iterator@V?$_Tree_val@U?$_Tree_simple_types@U?$pair@$$CBV?$basic_string@DU?$char_traits@D@std@@V?$allocator@D@2@@std@@W4EMDLabel@relion@@@std@@@std@@@std@@@2@V?$_Tree_const_iterator@V?$_Tree_val@U?$_Tree_simple_types@U?$pair@$$CBV?$basic_string@DU?$char_traits@D@std@@V?$allocator@D@2@@std@@W4EMDLabel@relion@@@std@@@std@@@std@@@2@@Z
   5AC6DE ?erase@?$_Tree@V?$_Tmap_traits@W4EMDLabel@relion@@VEMDLabelData@2@U?$less@W4EMDLabel@relion@@@std@@V?$allocator@U?$pair@$$CBW4EMDLabel@relion@@VEMDLabelData@2@@std@@@5@$0A@@std@@@std@@QEAA?AV?$_Tree_iterator@V?$_Tree_val@U?$_Tree_simple_types@U?$pair@$$CBW4EMDLabel@relion@@VEMDLabelData@2@@std@@@std@@@std@@@2@V?$_Tree_const_iterator@V?$_Tree_val@U?$_Tree_simple_types@U?$pair@$$CBW4EMDLabel@relion@@VEMDLabelData@2@@std@@@std@@@std@@@2@0@Z
   5AC6DE ?erase@?$_Tree@V?$_Tmap_traits@W4EMDLabel@relion@@VEMDLabelData@2@U?$less@W4EMDLabel@relion@@@std@@V?$allocator@U?$pair@$$CBW4EMDLabel@relion@@VEMDLabelData@2@@std@@@5@$0A@@std@@@std@@QEAA?AV?$_Tree_iterator@V?$_Tree_val@U?$_Tree_simple_types@U?$pair@$$CBW4EMDLabel@relion@@VEMDLabelData@2@@std@@@std@@@std@@@2@V?$_Tree_const_iterator@V?$_Tree_val@U?$_Tree_simple_types@U?$pair@$$CBW4EMDLabel@relion@@VEMDLabelData@2@@std@@@std@@@std@@@2@@Z
   5AC6DE ?find@?$_Tree@V?$_Tmap_traits@V?$basic_string@DU?$char_traits@D@std@@V?$allocator@D@2@@std@@W4EMDLabel@relion@@U?$less@V?$basic_string@DU?$char_traits@D@std@@V?$allocator@D@2@@std@@@2@V?$allocator@U?$pair@$$CBV?$basic_string@DU?$char_traits@D@std@@V?$allocator@D@2@@std@@W4EMDLabel@relion@@@std@@@2@$0A@@std@@@std@@QEAA?AV?$_Tree_iterator@V?$_Tree_val@U?$_Tree_simple_types@U?$pair@$$CBV?$basic_string@DU?$char_traits@D@std@@V?$allocator@D@2@@std@@W4EMDLabel@relion@@@std@@@std@@@std@@@2@AEBV?$basic_string@DU?$char_traits@D@std@@V?$allocator@D@2@@2@@Z
   5AC6DE ?find@?$_Tree@V?$_Tmap_traits@W4EMDLabel@relion@@VEMDLabelData@2@U?$less@W4EMDLabel@relion@@@std@@V?$allocator@U?$pair@$$CBW4EMDLabel@relion@@VEMDLabelData@2@@std@@@5@$0A@@std@@@std@@QEAA?AV?$_Tree_iterator@V?$_Tree_val@U?$_Tree_simple_types@U?$pair@$$CBW4EMDLabel@relion@@VEMDLabelData@2@@std@@@std@@@std@@@2@AEBW4EMDLabel@relion@@@Z
   5AC6DE ?initialization@EMDL@relion@@0VStaticInitialization@2@A
   5AC6DE ?isBool@EMDL@relion@@SA_NAEBW4EMDLabel@2@@Z
   5AC6DE ?isDouble@EMDL@relion@@SA_NAEBW4EMDLabel@2@@Z
   5AC6DE ?isInt@EMDL@relion@@SA_NAEBW4EMDLabel@2@@Z
   5AC6DE ?isLong@EMDL@relion@@SA_NAEBW4EMDLabel@2@@Z
   5AC6DE ?isNumber@EMDL@relion@@SA_NAEBW4EMDLabel@2@@Z
   5AC6DE ?isString@EMDL@relion@@SA_NAEBW4EMDLabel@2@@Z
   5AC6DE ?isValidLabel@EMDL@relion@@SA_NAEBV?$basic_string@DU?$char_traits@D@std@@V?$allocator@D@2@@std@@@Z
   5AC6DE ?isValidLabel@EMDL@relion@@SA_NAEBW4EMDLabel@2@@Z
   5AC6DE ?label2Str@EMDL@relion@@SA?AV?$basic_string@DU?$char_traits@D@std@@V?$allocator@D@2@@std@@AEBW4EMDLabel@2@@Z
   5AC6DE ?lower_bound@?$_Tree@V?$_Tmap_traits@V?$basic_string@DU?$char_traits@D@std@@V?$allocator@D@2@@std@@V12@U?$less@V?$basic_string@DU?$char_traits@D@std@@V?$allocator@D@2@@std@@@2@V?$allocator@U?$pair@$$CBV?$basic_string@DU?$char_traits@D@std@@V?$allocator@D@2@@std@@V12@@std@@@2@$0A@@std@@@std@@QEAA?AV?$_Tree_iterator@V?$_Tree_val@U?$_Tree_simple_types@U?$pair@$$CBV?$basic_string@DU?$char_traits@D@std@@V?$allocator@D@2@@std@@V12@@std@@@std@@@std@@@2@AEBV?$basic_string@DU?$char_traits@D@std@@V?$allocator@D@2@@2@@Z
   5AC6DE ?lower_bound@?$_Tree@V?$_Tmap_traits@V?$basic_string@DU?$char_traits@D@std@@V?$allocator@D@2@@std@@W4EMDLabel@relion@@U?$less@V?$basic_string@DU?$char_traits@D@std@@V?$allocator@D@2@@std@@@2@V?$allocator@U?$pair@$$CBV?$basic_string@DU?$char_traits@D@std@@V?$allocator@D@2@@std@@W4EMDLabel@relion@@@std@@@2@$0A@@std@@@std@@QEAA?AV?$_Tree_iterator@V?$_Tree_val@U?$_Tree_simple_types@U?$pair@$$CBV?$basic_string@DU?$char_traits@D@std@@V?$allocator@D@2@@std@@W4EMDLabel@relion@@@std@@@std@@@std@@@2@AEBV?$basic_string@DU?$char_traits@D@std@@V?$allocator@D@2@@2@@Z
   5AC6DE ?lower_bound@?$_Tree@V?$_Tmap_traits@W4EMDLabel@relion@@VEMDLabelData@2@U?$less@W4EMDLabel@relion@@@std@@V?$allocator@U?$pair@$$CBW4EMDLabel@relion@@VEMDLabelData@2@@std@@@5@$0A@@std@@@std@@QEAA?AV?$_Tree_iterator@V?$_Tree_val@U?$_Tree_simple_types@U?$pair@$$CBW4EMDLabel@relion@@VEMDLabelData@2@@std@@@std@@@std@@@2@AEBW4EMDLabel@relion@@@Z
   5AC6DE ?max_size@?$_Default_allocator_traits@V?$allocator@U?$_Tree_node@U?$pair@$$CBV?$basic_string@DU?$char_traits@D@std@@V?$allocator@D@2@@std@@V12@@std@@PEAX@std@@@std@@@std@@SA_KAEBV?$allocator@U?$_Tree_node@U?$pair@$$CBV?$basic_string@DU?$char_traits@D@std@@V?$allocator@D@2@@std@@V12@@std@@PEAX@std@@@2@@Z
   5AC6DE ?max_size@?$_Default_allocator_traits@V?$allocator@U?$_Tree_node@U?$pair@$$CBV?$basic_string@DU?$char_traits@D@std@@V?$allocator@D@2@@std@@W4EMDLabel@relion@@@std@@PEAX@std@@@std@@@std@@SA_KAEBV?$allocator@U?$_Tree_node@U?$pair@$$CBV?$basic_string@DU?$char_traits@D@std@@V?$allocator@D@2@@std@@W4EMDLabel@relion@@@std@@PEAX@std@@@2@@Z
   5AC6DE ?max_size@?$_Default_allocator_traits@V?$allocator@U?$_Tree_node@U?$pair@$$CBW4EMDLabel@relion@@VEMDLabelData@2@@std@@PEAX@std@@@std@@@std@@SA_KAEBV?$allocator@U?$_Tree_node@U?$pair@$$CBW4EMDLabel@relion@@VEMDLabelData@2@@std@@PEAX@std@@@2@@Z
   5AC6DE ?max_size@?$_Tree@V?$_Tmap_traits@V?$basic_string@DU?$char_traits@D@std@@V?$allocator@D@2@@std@@V12@U?$less@V?$basic_string@DU?$char_traits@D@std@@V?$allocator@D@2@@std@@@2@V?$allocator@U?$pair@$$CBV?$basic_string@DU?$char_traits@D@std@@V?$allocator@D@2@@std@@V12@@std@@@2@$0A@@std@@@std@@QEBA_KXZ
   5AC6DE ?max_size@?$_Tree@V?$_Tmap_traits@V?$basic_string@DU?$char_traits@D@std@@V?$allocator@D@2@@std@@W4EMDLabel@relion@@U?$less@V?$basic_string@DU?$char_traits@D@std@@V?$allocator@D@2@@std@@@2@V?$allocator@U?$pair@$$CBV?$basic_string@DU?$char_traits@D@std@@V?$allocator@D@2@@std@@W4EMDLabel@relion@@@std@@@2@$0A@@std@@@std@@QEBA_KXZ
   5AC6DE ?max_size@?$_Tree@V?$_Tmap_traits@W4EMDLabel@relion@@VEMDLabelData@2@U?$less@W4EMDLabel@relion@@@std@@V?$allocator@U?$pair@$$CBW4EMDLabel@relion@@VEMDLabelData@2@@std@@@5@$0A@@std@@@std@@QEBA_KXZ
   5AC6DE ?names@EMDL@relion@@0V?$map@V?$basic_string@DU?$char_traits@D@std@@V?$allocator@D@2@@std@@W4EMDLabel@relion@@U?$less@V?$basic_string@DU?$char_traits@D@std@@V?$allocator@D@2@@std@@@2@V?$allocator@U?$pair@$$CBV?$basic_string@DU?$char_traits@D@std@@V?$allocator@D@2@@std@@W4EMDLabel@relion@@@std@@@2@@std@@A
   5AC6DE ?pointer_to@?$pointer_traits@PEAU?$pair@$$CBV?$basic_string@DU?$char_traits@D@std@@V?$allocator@D@2@@std@@V12@@std@@@std@@SAPEAU?$pair@$$CBV?$basic_string@DU?$char_traits@D@std@@V?$allocator@D@2@@std@@V12@@2@AEAU32@@Z
   5AC6DE ?pointer_to@?$pointer_traits@PEAU?$pair@$$CBV?$basic_string@DU?$char_traits@D@std@@V?$allocator@D@2@@std@@W4EMDLabel@relion@@@std@@@std@@SAPEAU?$pair@$$CBV?$basic_string@DU?$char_traits@D@std@@V?$allocator@D@2@@std@@W4EMDLabel@relion@@@2@AEAU32@@Z
   5AC6DE ?pointer_to@?$pointer_traits@PEAU?$pair@$$CBW4EMDLabel@relion@@VEMDLabelData@2@@std@@@std@@SAPEAU?$pair@$$CBW4EMDLabel@relion@@VEMDLabelData@2@@2@AEAU32@@Z
   5AC6DE ?pointer_to@?$pointer_traits@PEBU?$pair@$$CBV?$basic_string@DU?$char_traits@D@std@@V?$allocator@D@2@@std@@V12@@std@@@std@@SAPEBU?$pair@$$CBV?$basic_string@DU?$char_traits@D@std@@V?$allocator@D@2@@std@@V12@@2@AEBU32@@Z
   5AC6DE ?printDefinitions@EMDL@relion@@SAXAEAV?$basic_ostream@DU?$char_traits@D@std@@@std@@@Z
   5AC6DE ?size@?$_Tree@V?$_Tmap_traits@V?$basic_string@DU?$char_traits@D@std@@V?$allocator@D@2@@std@@V12@U?$less@V?$basic_string@DU?$char_traits@D@std@@V?$allocator@D@2@@std@@@2@V?$allocator@U?$pair@$$CBV?$basic_string@DU?$char_traits@D@std@@V?$allocator@D@2@@std@@V12@@std@@@2@$0A@@std@@@std@@QEBA_KXZ
   5AC6DE ?size@?$_Tree@V?$_Tmap_traits@V?$basic_string@DU?$char_traits@D@std@@V?$allocator@D@2@@std@@W4EMDLabel@relion@@U?$less@V?$basic_string@DU?$char_traits@D@std@@V?$allocator@D@2@@std@@@2@V?$allocator@U?$pair@$$CBV?$basic_string@DU?$char_traits@D@std@@V?$allocator@D@2@@std@@W4EMDLabel@relion@@@std@@@2@$0A@@std@@@std@@QEBA_KXZ
   5AC6DE ?size@?$_Tree@V?$_Tmap_traits@W4EMDLabel@relion@@VEMDLabelData@2@U?$less@W4EMDLabel@relion@@@std@@V?$allocator@U?$pair@$$CBW4EMDLabel@relion@@VEMDLabelData@2@@std@@@5@$0A@@std@@@std@@QEBA_KXZ
   5AC6DE ?str2Label@EMDL@relion@@SA?AW4EMDLabel@2@AEBV?$basic_string@DU?$char_traits@D@std@@V?$allocator@D@2@@std@@@Z
   5AC6DE ?vectorContainsLabel@relion@@YA_NAEBV?$vector@W4EMDLabel@relion@@V?$allocator@W4EMDLabel@relion@@@std@@@std@@W4EMDLabel@1@@Z
   7EE012 ??$?0AEAV?$_Tree_iterator@V?$_Tree_val@U?$_Tree_simple_types@U?$pair@$$CBW4EMDLabel@relion@@PEAX@std@@@std@@@std@@@std@@_N$0A@@?$pair@V?$_Tree_iterator@V?$_Tree_val@U?$_Tree_simple_types@U?$pair@$$CBW4EMDLabel@relion@@PEAX@std@@@std@@@std@@@std@@_N@std@@QEAA@AEAV?$_Tree_iterator@V?$_Tree_val@U?$_Tree_simple_types@U?$pair@$$CBW4EMDLabel@relion@@PEAX@std@@@std@@@std@@@1@$$QEA_N@Z
   7EE012 ??$?0AEBW4EMDLabel@relion@@$$Z$$V@?$pair@$$CBW4EMDLabel@relion@@PEAX@std@@QEAA@Upiecewise_construct_t@1@V?$tuple@AEBW4EMDLabel@relion@@@1@V?$tuple@$$V@1@@Z
   7EE012 ??$?0V?$_Tree_iterator@V?$_Tree_val@U?$_Tree_simple_types@U?$pair@$$CBW4EMDLabel@relion@@PEAX@std@@@std@@@std@@@std@@_N$0A@@?$pair@V?$_Tree_iterator@V?$_Tree_val@U?$_Tree_simple_types@U?$pair@$$CBW4EMDLabel@relion@@PEAX@std@@@std@@@std@@@std@@_N@std@@QEAA@$$QEAV?$_Tree_iterator@V?$_Tree_val@U?$_Tree_simple_types@U?$pair@$$CBW4EMDLabel@relion@@PEAX@std@@@std@@@std@@@1@$$QEA_N@Z
   7EE012 ??$?0V?$allocator@W4EMDLabel@relion@@@std@@$$V@?$_Compressed_pair@V?$allocator@W4EMDLabel@relion@@@std@@V?$_Vector_val@U?$_Simple_types@W4EMDLabel@relion@@@std@@@2@$00@std@@QEAA@U_One_then_variadic_args_t@1@$$QEAV?$allocator@W4EMDLabel@relion@@@1@@Z
   7EE012 ??$?0V?$allocator@W4EMDLabel@relion@@@std@@X@?$_Vector_alloc@U?$_Vec_base_types@W4EMDLabel@relion@@V?$allocator@W4EMDLabel@relion@@@std@@@std@@@std@@QEAA@$$QEAV?$allocator@W4EMDLabel@relion@@@1@@Z
   7EE012 ??$?0V?$tuple@AEBW4EMDLabel@relion@@@std@@V?$tuple@$$V@1@$0A@$$Z$S@?$pair@$$CBW4EMDLabel@relion@@PEAX@std@@QEAA@AEAV?$tuple@AEBW4EMDLabel@relion@@@1@AEAV?$tuple@$$V@1@U?$integer_sequence@_K$0A@@1@U?$integer_sequence@_K$S@1@@Z
   7EE012 ??$?HDU?$char_traits@D@std@@V?$allocator@D@1@@std@@YA?AV?$basic_string@DU?$char_traits@D@std@@V?$allocator@D@2@@0@$$QEAV10@0@Z
   7EE012 ??$_Buy_if_not_node@AEAU?$pair@$$CBW4EMDLabel@relion@@PEAX@std@@@?$_Tree@V?$_Tmap_traits@W4EMDLabel@relion@@PEAXU?$less@W4EMDLabel@relion@@@std@@V?$allocator@U?$pair@$$CBW4EMDLabel@relion@@PEAX@std@@@4@$0A@@std@@@std@@IEAAPEAU?$_Tree_node@U?$pair@$$CBW4EMDLabel@relion@@PEAX@std@@PEAX@1@PEAU21@AEAU?$pair@$$CBW4EMDLabel@relion@@PEAX@1@@Z
   7EE012 ??$_Buynode@AEBUpiecewise_construct_t@std@@V?$tuple@AEBW4EMDLabel@relion@@@2@V?$tuple@$$V@2@@?$_Tree_comp_alloc@V?$_Tmap_traits@W4EMDLabel@relion@@PEAXU?$less@W4EMDLabel@relion@@@std@@V?$allocator@U?$pair@$$CBW4EMDLabel@relion@@PEAX@std@@@4@$0A@@std@@@std@@QEAAPEAU?$_Tree_node@U?$pair@$$CBW4EMDLabel@relion@@PEAX@std@@PEAX@1@AEBUpiecewise_construct_t@1@$$QEAV?$tuple@AEBW4EMDLabel@relion@@@1@$$QEAV?$tuple@$$V@1@@Z
   7EE012 ??$_Insert_at@AEAU?$pair@$$CBW4EMDLabel@relion@@PEAX@std@@PEAU?$_Tree_node@U?$pair@$$CBW4EMDLabel@relion@@PEAX@std@@PEAX@2@@?$_Tree@V?$_Tmap_traits@W4EMDLabel@relion@@PEAXU?$less@W4EMDLabel@relion@@@std@@V?$allocator@U?$pair@$$CBW4EMDLabel@relion@@PEAX@std@@@4@$0A@@std@@@std@@IEAA?AV?$_Tree_iterator@V?$_Tree_val@U?$_Tree_simple_types@U?$pair@$$CBW4EMDLabel@relion@@PEAX@std@@@std@@@std@@@1@_NPEAU?$_Tree_node@U?$pair@$$CBW4EMDLabel@relion@@PEAX@std@@PEAX@1@AEAU?$pair@$$CBW4EMDLabel@relion@@PEAX@1@1@Z
   7EE012 ??$_Insert_hint@AEAU?$pair@$$CBW4EMDLabel@relion@@PEAX@std@@PEAU?$_Tree_node@U?$pair@$$CBW4EMDLabel@relion@@PEAX@std@@PEAX@2@@?$_Tree@V?$_Tmap_traits@W4EMDLabel@relion@@PEAXU?$less@W4EMDLabel@relion@@@std@@V?$allocator@U?$pair@$$CBW4EMDLabel@relion@@PEAX@std@@@4@$0A@@std@@@std@@IEAA?AV?$_Tree_iterator@V?$_Tree_val@U?$_Tree_simple_types@U?$pair@$$CBW4EMDLabel@relion@@PEAX@std@@@std@@@std@@@1@V?$_Tree_const_iterator@V?$_Tree_val@U?$_Tree_simple_types@U?$pair@$$CBW4EMDLabel@relion@@PEAX@std@@@std@@@std@@@1@AEAU?$pair@$$CBW4EMDLabel@relion@@PEAX@1@PEAU?$_Tree_node@U?$pair@$$CBW4EMDLabel@relion@@PEAX@std@@PEAX@1@@Z
   7EE012 ??$_Insert_nohint@AEAU?$pair@$$CBW4EMDLabel@relion@@PEAX@std@@PEAU?$_Tree_node@U?$pair@$$CBW4EMDLabel@relion@@PEAX@std@@PEAX@2@@?$_Tree@V?$_Tmap_traits@W4EMDLabel@relion@@PEAXU?$less@W4EMDLabel@relion@@@std@@V?$allocator@U?$pair@$$CBW4EMDLabel@relion@@PEAX@std@@@4@$0A@@std@@@std@@IEAA?AU?$pair@V?$_Tree_iterator@V?$_Tree_val@U?$_Tree_simple_types@U?$pair@$$CBW4EMDLabel@relion@@PEAX@std@@@std@@@std@@@std@@_N@1@_NAEAU?$pair@$$CBW4EMDLabel@relion@@PEAX@1@PEAU?$_Tree_node@U?$pair@$$CBW4EMDLabel@relion@@PEAX@std@@PEAX@1@@Z
   7EE012 ??$_Kfn@$$CBW4EMDLabel@relion@@PEAX@?$_Tmap_traits@W4EMDLabel@relion@@PEAXU?$less@W4EMDLabel@relion@@@std@@V?$allocator@U?$pair@$$CBW4EMDLabel@relion@@PEAX@std@@@4@$0A@@std@@SAAEBW4EMDLabel@relion@@AEBU?$pair@$$CBW4EMDLabel@relion@@PEAX@1@@Z
   7EE012 ??$_Lbound@W4EMDLabel@relion@@@?$_Tree@V?$_Tmap_traits@W4EMDLabel@relion@@PEAXU?$less@W4EMDLabel@relion@@@std@@V?$allocator@U?$pair@$$CBW4EMDLabel@relion@@PEAX@std@@@4@$0A@@std@@@std@@IEBAPEAU?$_Tree_node@U?$pair@$$CBW4EMDLabel@relion@@PEAX@std@@PEAX@1@AEBW4EMDLabel@relion@@@Z
   7EE012 ??$_Try_emplace@AEBW4EMDLabel@relion@@$$V@?$map@W4EMDLabel@relion@@PEAXU?$less@W4EMDLabel@relion@@@std@@V?$allocator@U?$pair@$$CBW4EMDLabel@relion@@PEAX@std@@@4@@std@@QEAA?AU?$pair@V?$_Tree_iterator@V?$_Tree_val@U?$_Tree_simple_types@U?$pair@$$CBW4EMDLabel@relion@@PEAX@std@@@std@@@std@@@std@@_N@1@AEBW4EMDLabel@relion@@@Z
   7EE012 ??$addressof@$$CBU?$pair@$$CBW4EMDLabel@relion@@PEAX@std@@@std@@YAPEBU?$pair@$$CBW4EMDLabel@relion@@PEAX@0@AEBU10@@Z
   7EE012 ??$addressof@$$CBV?$_Tree_val@U?$_Tree_simple_types@U?$pair@$$CBW4EMDLabel@relion@@PEAX@std@@@std@@@std@@@std@@YAPEBV?$_Tree_val@U?$_Tree_simple_types@U?$pair@$$CBW4EMDLabel@relion@@PEAX@std@@@std@@@0@AEBV10@@Z
   7EE012 ??$construct@U?$pair@$$CBW4EMDLabel@relion@@PEAX@std@@AEBUpiecewise_construct_t@2@V?$tuple@AEBW4EMDLabel@relion@@@2@V?$tuple@$$V@2@@?$_Default_allocator_traits@V?$allocator@U?$_Tree_node@U?$pair@$$CBW4EMDLabel@relion@@PEAX@std@@PEAX@std@@@std@@@std@@SAXAEAV?$allocator@U?$_Tree_node@U?$pair@$$CBW4EMDLabel@relion@@PEAX@std@@PEAX@std@@@1@QEAU?$pair@$$CBW4EMDLabel@relion@@PEAX@1@AEBUpiecewise_construct_t@1@$$QEAV?$tuple@AEBW4EMDLabel@relion@@@1@$$QEAV?$tuple@$$V@1@@Z
   7EE012 ??$emplace_hint@AEBUpiecewise_construct_t@std@@V?$tuple@AEBW4EMDLabel@relion@@@2@V?$tuple@$$V@2@@?$_Tree@V?$_Tmap_traits@W4EMDLabel@relion@@PEAXU?$less@W4EMDLabel@relion@@@std@@V?$allocator@U?$pair@$$CBW4EMDLabel@relion@@PEAX@std@@@4@$0A@@std@@@std@@QEAA?AV?$_Tree_iterator@V?$_Tree_val@U?$_Tree_simple_types@U?$pair@$$CBW4EMDLabel@relion@@PEAX@std@@@std@@@std@@@1@V?$_Tree_const_iterator@V?$_Tree_val@U?$_Tree_simple_types@U?$pair@$$CBW4EMDLabel@relion@@PEAX@std@@@std@@@std@@@1@AEBUpiecewise_construct_t@1@$$QEAV?$tuple@AEBW4EMDLabel@relion@@@1@$$QEAV?$tuple@$$V@1@@Z
   7EE012 ??$forward@AEAU?$pair@$$CBW4EMDLabel@relion@@PEAX@std@@@std@@YAAEAU?$pair@$$CBW4EMDLabel@relion@@PEAX@0@AEAU10@@Z
   7EE012 ??$forward@AEAV?$_Tree_iterator@V?$_Tree_val@U?$_Tree_simple_types@U?$pair@$$CBW4EMDLabel@relion@@PEAX@std@@@std@@@std@@@std@@@std@@YAAEAV?$_Tree_iterator@V?$_Tree_val@U?$_Tree_simple_types@U?$pair@$$CBW4EMDLabel@relion@@PEAX@std@@@std@@@std@@@0@AEAV10@@Z
   7EE012 ??$forward@V?$_Tree_iterator@V?$_Tree_val@U?$_Tree_simple_types@U?$pair@$$CBW4EMDLabel@relion@@PEAX@std@@@std@@@std@@@std@@@std@@YA$$QEAV?$_Tree_iterator@V?$_Tree_val@U?$_Tree_simple_types@U?$pair@$$CBW4EMDLabel@relion@@PEAX@std@@@std@@@std@@@0@AEAV10@@Z
   7EE012 ??$forward@V?$allocator@W4EMDLabel@relion@@@std@@@std@@YA$$QEAV?$allocator@W4EMDLabel@relion@@@0@AEAV10@@Z
   7EE012 ??$try_emplace@$$V@?$map@W4EMDLabel@relion@@PEAXU?$less@W4EMDLabel@relion@@@std@@V?$allocator@U?$pair@$$CBW4EMDLabel@relion@@PEAX@std@@@4@@std@@QEAA?AU?$pair@V?$_Tree_iterator@V?$_Tree_val@U?$_Tree_simple_types@U?$pair@$$CBW4EMDLabel@relion@@PEAX@std@@@std@@@std@@@std@@_N@1@AEBW4EMDLabel@relion@@@Z
   7EE012 ??0?$_Tree_const_iterator@V?$_Tree_val@U?$_Tree_simple_types@U?$pair@$$CBW4EMDLabel@relion@@PEAX@std@@@std@@@std@@@std@@QEAA@XZ
   7EE012 ??0?$_Tree_iterator@V?$_Tree_val@U?$_Tree_simple_types@U?$pair@$$CBW4EMDLabel@relion@@PEAX@std@@@std@@@std@@@std@@QEAA@$$QEAV01@@Z
   7EE012 ??0?$_Tree_iterator@V?$_Tree_val@U?$_Tree_simple_types@U?$pair@$$CBW4EMDLabel@relion@@PEAX@std@@@std@@@std@@@std@@QEAA@AEBV01@@Z
   7EE012 ??0?$_Tree_iterator@V?$_Tree_val@U?$_Tree_simple_types@U?$pair@$$CBW4EMDLabel@relion@@PEAX@std@@@std@@@std@@@std@@QEAA@XZ
   7EE012 ??0?$_Tree_unchecked_const_iterator@V?$_Tree_val@U?$_Tree_simple_types@U?$pair@$$CBW4EMDLabel@relion@@PEAX@std@@@std@@@std@@U_Iterator_base12@2@@std@@QEAA@XZ
   7EE012 ??0?$basic_istringstream@DU?$char_traits@D@std@@V?$allocator@D@2@@std@@QEAA@AEBV?$basic_string@DU?$char_traits@D@std@@V?$allocator@D@2@@1@H@Z
   7EE012 ??0?$vector@W4EMDLabel@relion@@V?$allocator@W4EMDLabel@relion@@@std@@@std@@QEAA@$$QEAV01@@Z
   7EE012 ??0MetaDataContainer@relion@@QEAA@AEBV01@@Z
   7EE012 ??1?$basic_istringstream@DU?$char_traits@D@std@@V?$allocator@D@2@@std@@UEAA@XZ
   7EE012 ??1?$pair@V?$_Tree_iterator@V?$_Tree_val@U?$_Tree_simple_types@U?$pair@$$CBW4EMDLabel@relion@@PEAX@std@@@std@@@std@@@std@@_N@std@@QEAA@XZ
   7EE012 ??4?$_Tree_const_iterator@V?$_Tree_val@U?$_Tree_simple_types@U?$pair@$$CBW4EMDLabel@relion@@PEAX@std@@@std@@@std@@@std@@QEAAAEAV01@$$QEAV01@@Z
   7EE012 ??4?$_Tree_const_iterator@V?$_Tree_val@U?$_Tree_simple_types@U?$pair@$$CBW4EMDLabel@relion@@PEAX@std@@@std@@@std@@@std@@QEAAAEAV01@AEBV01@@Z
   7EE012 ??4?$_Tree_iterator@V?$_Tree_val@U?$_Tree_simple_types@U?$pair@$$CBW4EMDLabel@relion@@PEAX@std@@@std@@@std@@@std@@QEAAAEAV01@$$QEAV01@@Z
   7EE012 ??4?$_Tree_unchecked_const_iterator@V?$_Tree_val@U?$_Tree_simple_types@U?$pair@$$CBW4EMDLabel@relion@@PEAX@std@@@std@@@std@@U_Iterator_base12@2@@std@@QEAAAEAV01@$$QEAV01@@Z
   7EE012 ??4?$_Tree_unchecked_const_iterator@V?$_Tree_val@U?$_Tree_simple_types@U?$pair@$$CBW4EMDLabel@relion@@PEAX@std@@@std@@@std@@U_Iterator_base12@2@@std@@QEAAAEAV01@AEBV01@@Z
   7EE012 ??4MetaDataContainer@relion@@QEAAAEAV01@AEBV01@@Z
   7EE012 ??A?$map@W4EMDLabel@relion@@PEAXU?$less@W4EMDLabel@relion@@@std@@V?$allocator@U?$pair@$$CBW4EMDLabel@relion@@PEAX@std@@@4@@std@@QEAAAEAPEAXAEBW4EMDLabel@relion@@@Z
   7EE012 ??C?$_Tree_const_iterator@V?$_Tree_val@U?$_Tree_simple_types@U?$pair@$$CBW4EMDLabel@relion@@PEAX@std@@@std@@@std@@@std@@QEBAPEBU?$pair@$$CBW4EMDLabel@relion@@PEAX@1@XZ
   7EE012 ??E?$_Tree_iterator@V?$_Tree_val@U?$_Tree_simple_types@U?$pair@$$CBW4EMDLabel@relion@@PEAX@std@@@std@@@std@@@std@@QEAA?AV01@H@Z
   7EE012 ??F?$_Tree_const_iterator@V?$_Tree_val@U?$_Tree_simple_types@U?$pair@$$CBW4EMDLabel@relion@@PEAX@std@@@std@@@std@@@std@@QEAAAEAV01@XZ
   7EE012 ??F?$_Tree_iterator@V?$_Tree_val@U?$_Tree_simple_types@U?$pair@$$CBW4EMDLabel@relion@@PEAX@std@@@std@@@std@@@std@@QEAAAEAV01@XZ
   7EE012 ??F?$_Tree_unchecked_const_iterator@V?$_Tree_val@U?$_Tree_simple_types@U?$pair@$$CBW4EMDLabel@relion@@PEAX@std@@@std@@@std@@U_Iterator_base12@2@@std@@QEAAAEAV01@XZ
   7EE012 ??_7?$basic_istringstream@DU?$char_traits@D@std@@V?$allocator@D@2@@std@@6B@
   7EE012 ??_8?$basic_istringstream@DU?$char_traits@D@std@@V?$allocator@D@2@@std@@7B@
   7EE012 ??_C@_06BJNDNGIJ@Label?5@
   7EE012 ??_C@_0BF@JFGHLBGH@?5is?5not?5of?5type?5int?$CB@
   7EE012 ??_C@_0BG@HJMCHICD@?5is?5not?5of?5type?5long?$CB@
   7EE012 ??_C@_0BG@PHCBJBNH@?5is?5not?5of?5type?5bool?$CB@
   7EE012 ??_C@_0BH@HOBJBBDO@?5is?5not?5of?5type?5float?$CB@
   7EE012 ??_C@_0BI@FBEHJFNO@?5is?5not?5of?5type?5DOUBLE?$CB@
   7EE012 ??_C@_0BI@OJGBOALC@?5is?5not?5of?5type?5string?$CB@
   7EE012 ??_C@_0BJ@OFGCMAHA@getValue?5for?5int?3?5label?5@
   7EE012 ??_C@_0BJ@OOOEPLN@addValue?5for?5int?3?5label?5@
   7EE012 ??_C@_0BK@GDJANGKK@?5is?5not?5of?5type?5long?5int?$CB@
   7EE012 ??_C@_0BK@HDNMKIIN@addValue?5for?5bool?3?5label?5@
   7EE012 ??_C@_0BK@JGOCJKAP@getValue?5for?5bool?3?5label?5@
   7EE012 ??_C@_0BK@LAFEIAAK@addValue?5for?5long?3?5label?5@
   7EE012 ??_C@_0BL@PPEIHFEL@addValue?5for?5float?3?5label?5@
   7EE012 ??_C@_0BM@DEGGDLJD@addValue?5for?5DOUBLE?3?5label?5@
   7EE012 ??_C@_0BM@HELKHDNG@getValue?5for?5string?3?5label?5@
   7EE012 ??_C@_0BM@LFNIDNKB@addValue?5for?5string?3?5label?5@
   7EE012 ??_C@_0BM@PEMDDMPN@?5not?5found?5on?5getVoidPtr?$CI?$CJ?6@
   7EE012 ??_C@_0BM@PFAEHFOE@getValue?5for?5DOUBLE?3?5label?5@
   7EE012 ??_C@_0BO@IHONOPNI@getValue?5for?5long?5int?3?5label?5@
   7EE012 ??_C@_0CP@JCMPILEF@d?3?2software?2liblion?2src?2metadat@
   7EE012 ??_C@_0EF@DCJOKLLF@MetaDataContainer?3?3addDefaultVa@
   7EE012 ??_C@_1BCO@KIPMOLIE@?$AAs?$AAt?$AAd?$AA?3?$AA?3?$AA_?$AAT?$AAr?$AAe?$AAe?$AA_?$AAc?$AAo?$AAn?$AAs@
   7EE012 ??_C@_1BJA@JNKOFKMO@?$AAs?$AAt?$AAd?$AA?3?$AA?3?$AA_?$AAT?$AAr?$AAe?$AAe?$AA?$DM?$AAc?$AAl?$AAa?$AAs@
   7EE012 ??_D?$basic_istringstream@DU?$char_traits@D@std@@V?$allocator@D@2@@std@@QEAAXXZ
   7EE012 ??_E?$basic_istringstream@DU?$char_traits@D@std@@V?$allocator@D@2@@std@@$4PPPPPPPM@A@EAAPEAXI@Z
   7EE012 ??_G?$basic_istringstream@DU?$char_traits@D@std@@V?$allocator@D@2@@std@@UEAAPEAXI@Z
   7EE012 ??_R0?AV?$basic_istringstream@DU?$char_traits@D@std@@V?$allocator@D@2@@std@@@8
   7EE012 ??_R1A@?0A@EA@?$basic_istringstream@DU?$char_traits@D@std@@V?$allocator@D@2@@std@@8
   7EE012 ??_R2?$basic_istringstream@DU?$char_traits@D@std@@V?$allocator@D@2@@std@@8
   7EE012 ??_R3?$basic_istringstream@DU?$char_traits@D@std@@V?$allocator@D@2@@std@@8
   7EE012 ??_R4?$basic_istringstream@DU?$char_traits@D@std@@V?$allocator@D@2@@std@@6B@
   7EE012 ?_Buynode0@?$_Tree_comp_alloc@V?$_Tmap_traits@W4EMDLabel@relion@@PEAXU?$less@W4EMDLabel@relion@@@std@@V?$allocator@U?$pair@$$CBW4EMDLabel@relion@@PEAX@std@@@4@$0A@@std@@@std@@QEAAPEAU?$_Tree_node@U?$pair@$$CBW4EMDLabel@relion@@PEAX@std@@PEAX@2@XZ
   7EE012 ?_Compare@?$_Tree@V?$_Tmap_traits@W4EMDLabel@relion@@PEAXU?$less@W4EMDLabel@relion@@@std@@V?$allocator@U?$pair@$$CBW4EMDLabel@relion@@PEAX@std@@@4@$0A@@std@@@std@@IEBA_NAEBW4EMDLabel@relion@@0@Z
   7EE012 ?_Destroy_if_node@?$_Tree@V?$_Tmap_traits@W4EMDLabel@relion@@PEAXU?$less@W4EMDLabel@relion@@@std@@V?$allocator@U?$pair@$$CBW4EMDLabel@relion@@PEAX@std@@@4@$0A@@std@@@std@@IEAAXPEAU?$_Tree_node@U?$pair@$$CBW4EMDLabel@relion@@PEAX@std@@PEAX@2@@Z
   7EE012 ?_Freenode0@?$_Tree_comp_alloc@V?$_Tmap_traits@W4EMDLabel@relion@@PEAXU?$less@W4EMDLabel@relion@@@std@@V?$allocator@U?$pair@$$CBW4EMDLabel@relion@@PEAX@std@@@4@$0A@@std@@@std@@QEAAXPEAU?$_Tree_node@U?$pair@$$CBW4EMDLabel@relion@@PEAX@std@@PEAX@2@@Z
   7EE012 ?_Get_first@?$_Compressed_pair@U?$less@W4EMDLabel@relion@@@std@@V?$_Compressed_pair@V?$allocator@U?$_Tree_node@U?$pair@$$CBW4EMDLabel@relion@@PEAX@std@@PEAX@std@@@std@@V?$_Tree_val@U?$_Tree_simple_types@U?$pair@$$CBW4EMDLabel@relion@@PEAX@std@@@std@@@2@$00@2@$00@std@@QEAAAEAU?$less@W4EMDLabel@relion@@@2@XZ
   7EE012 ?_Get_first@?$_Compressed_pair@U?$less@W4EMDLabel@relion@@@std@@V?$_Compressed_pair@V?$allocator@U?$_Tree_node@U?$pair@$$CBW4EMDLabel@relion@@PEAX@std@@PEAX@std@@@std@@V?$_Tree_val@U?$_Tree_simple_types@U?$pair@$$CBW4EMDLabel@relion@@PEAX@std@@@std@@@2@$00@2@$00@std@@QEBAAEBU?$less@W4EMDLabel@relion@@@2@XZ
   7EE012 ?_Get_first@?$_Compressed_pair@V?$allocator@U?$_Tree_node@U?$pair@$$CBW4EMDLabel@relion@@PEAX@std@@PEAX@std@@@std@@V?$_Tree_val@U?$_Tree_simple_types@U?$pair@$$CBW4EMDLabel@relion@@PEAX@std@@@std@@@2@$00@std@@QEBAAEBV?$allocator@U?$_Tree_node@U?$pair@$$CBW4EMDLabel@relion@@PEAX@std@@PEAX@std@@@2@XZ
   7EE012 ?_Getal@?$_Tree_comp_alloc@V?$_Tmap_traits@W4EMDLabel@relion@@PEAXU?$less@W4EMDLabel@relion@@@std@@V?$allocator@U?$pair@$$CBW4EMDLabel@relion@@PEAX@std@@@4@$0A@@std@@@std@@QEBAAEBV?$allocator@U?$_Tree_node@U?$pair@$$CBW4EMDLabel@relion@@PEAX@std@@PEAX@std@@@2@XZ
   7EE012 ?_Getcomp@?$_Tree_comp_alloc@V?$_Tmap_traits@W4EMDLabel@relion@@PEAXU?$less@W4EMDLabel@relion@@@std@@V?$allocator@U?$pair@$$CBW4EMDLabel@relion@@PEAX@std@@@4@$0A@@std@@@std@@QEAAAEAU?$less@W4EMDLabel@relion@@@2@XZ
   7EE012 ?_Getcomp@?$_Tree_comp_alloc@V?$_Tmap_traits@W4EMDLabel@relion@@PEAXU?$less@W4EMDLabel@relion@@@std@@V?$allocator@U?$pair@$$CBW4EMDLabel@relion@@PEAX@std@@@4@$0A@@std@@@std@@QEBAAEBU?$less@W4EMDLabel@relion@@@2@XZ
   7EE012 ?_Key@?$_Tree@V?$_Tmap_traits@W4EMDLabel@relion@@PEAXU?$less@W4EMDLabel@relion@@@std@@V?$allocator@U?$pair@$$CBW4EMDLabel@relion@@PEAX@std@@@4@$0A@@std@@@std@@IEBAAEBW4EMDLabel@relion@@PEAU?$_Tree_node@U?$pair@$$CBW4EMDLabel@relion@@PEAX@std@@PEAX@2@@Z
   7EE012 ?_Kfn@?$_Tree@V?$_Tmap_traits@W4EMDLabel@relion@@PEAXU?$less@W4EMDLabel@relion@@@std@@V?$allocator@U?$pair@$$CBW4EMDLabel@relion@@PEAX@std@@@4@$0A@@std@@@std@@IEBAAEBW4EMDLabel@relion@@AEBU?$pair@$$CBW4EMDLabel@relion@@PEAX@2@@Z
   7EE012 ?__LINE__Var@?0??addDefaultValue@MetaDataContainer@relion@@QEAAXW4EMDLabel@3@@Z@4JA
   7EE012 ?__LINE__Var@?0??addValue@MetaDataContainer@relion@@QEAAXW4EMDLabel@3@AEBH@Z@4JA
   7EE012 ?__LINE__Var@?0??addValue@MetaDataContainer@relion@@QEAAXW4EMDLabel@3@AEBJ@Z@4JA
   7EE012 ?__LINE__Var@?0??addValue@MetaDataContainer@relion@@QEAAXW4EMDLabel@3@AEBM@Z@4JA
   7EE012 ?__LINE__Var@?0??addValue@MetaDataContainer@relion@@QEAAXW4EMDLabel@3@AEBN@Z@4JA
   7EE012 ?__LINE__Var@?0??addValue@MetaDataContainer@relion@@QEAAXW4EMDLabel@3@AEBV?$basic_string@DU?$char_traits@D@std@@V?$allocator@D@2@@std@@@Z@4JA
   7EE012 ?__LINE__Var@?0??addValue@MetaDataContainer@relion@@QEAAXW4EMDLabel@3@AEB_N@Z@4JA
   7EE012 ?__LINE__Var@?0??getValue@MetaDataContainer@relion@@QEAA_NW4EMDLabel@3@AEAH@Z@4JA
   7EE012 ?__LINE__Var@?0??getValue@MetaDataContainer@relion@@QEAA_NW4EMDLabel@3@AEAJ@Z@4JA
   7EE012 ?__LINE__Var@?0??getValue@MetaDataContainer@relion@@QEAA_NW4EMDLabel@3@AEAM@Z@4JA
   7EE012 ?__LINE__Var@?0??getValue@MetaDataContainer@relion@@QEAA_NW4EMDLabel@3@AEAV?$basic_string@DU?$char_traits@D@std@@V?$allocator@D@2@@std@@@Z@4JA
   7EE012 ?__LINE__Var@?0??getValue@MetaDataContainer@relion@@QEAA_NW4EMDLabel@3@AEA_N@Z@4JA
   7EE012 ?__LINE__Var@?0??getVoidPtr@MetaDataContainer@relion@@AEAAPEAXW4EMDLabel@3@@Z@4JA
   7EE012 ?__LINE__Var@?0??insertVoidPtr@MetaDataContainer@relion@@AEAAXW4EMDLabel@3@PEAX@Z@4JA
   7EE012 ?addDefaultValue@MetaDataContainer@relion@@QEAAXW4EMDLabel@2@@Z
   7EE012 ?addValue@MetaDataContainer@relion@@QEAAXW4EMDLabel@2@AEBH@Z
   7EE012 ?addValue@MetaDataContainer@relion@@QEAAXW4EMDLabel@2@AEBJ@Z
   7EE012 ?addValue@MetaDataContainer@relion@@QEAAXW4EMDLabel@2@AEBM@Z
   7EE012 ?addValue@MetaDataContainer@relion@@QEAAXW4EMDLabel@2@AEBN@Z
   7EE012 ?addValue@MetaDataContainer@relion@@QEAAXW4EMDLabel@2@AEBV?$basic_string@DU?$char_traits@D@std@@V?$allocator@D@2@@std@@@Z
   7EE012 ?addValue@MetaDataContainer@relion@@QEAAXW4EMDLabel@2@AEB_N@Z
   7EE012 ?addValueFromString@MetaDataContainer@relion@@QEAAXAEBW4EMDLabel@2@AEBV?$basic_string@DU?$char_traits@D@std@@V?$allocator@D@2@@std@@@Z
   7EE012 ?begin@?$_Tree@V?$_Tmap_traits@W4EMDLabel@relion@@PEAXU?$less@W4EMDLabel@relion@@@std@@V?$allocator@U?$pair@$$CBW4EMDLabel@relion@@PEAX@std@@@4@$0A@@std@@@std@@QEBA?AV?$_Tree_const_iterator@V?$_Tree_val@U?$_Tree_simple_types@U?$pair@$$CBW4EMDLabel@relion@@PEAX@std@@@std@@@std@@@2@XZ
   7EE012 ?capacity@?$basic_string@DU?$char_traits@D@std@@V?$allocator@D@2@@std@@QEBA_KXZ
   7EE012 ?copy@MetaDataContainer@relion@@AEAAXAEBV12@@Z
   7EE012 ?end@?$_Tree@V?$_Tmap_traits@W4EMDLabel@relion@@PEAXU?$less@W4EMDLabel@relion@@@std@@V?$allocator@U?$pair@$$CBW4EMDLabel@relion@@PEAX@std@@@4@$0A@@std@@@std@@QEBA?AV?$_Tree_const_iterator@V?$_Tree_val@U?$_Tree_simple_types@U?$pair@$$CBW4EMDLabel@relion@@PEAX@std@@@std@@@std@@@2@XZ
   7EE012 ?find@?$_Tree@V?$_Tmap_traits@W4EMDLabel@relion@@PEAXU?$less@W4EMDLabel@relion@@@std@@V?$allocator@U?$pair@$$CBW4EMDLabel@relion@@PEAX@std@@@4@$0A@@std@@@std@@QEAA?AV?$_Tree_iterator@V?$_Tree_val@U?$_Tree_simple_types@U?$pair@$$CBW4EMDLabel@relion@@PEAX@std@@@std@@@std@@@2@AEBW4EMDLabel@relion@@@Z
   7EE012 ?fixed@std@@YAAEAVios_base@1@AEAV21@@Z
   7EE012 ?getLabels@MetaDataContainer@relion@@QEAA?AV?$vector@W4EMDLabel@relion@@V?$allocator@W4EMDLabel@relion@@@std@@@std@@XZ
   7EE012 ?getValue@MetaDataContainer@relion@@QEAA_NW4EMDLabel@2@AEAH@Z
   7EE012 ?getValue@MetaDataContainer@relion@@QEAA_NW4EMDLabel@2@AEAJ@Z
   7EE012 ?getValue@MetaDataContainer@relion@@QEAA_NW4EMDLabel@2@AEAM@Z
   7EE012 ?getValue@MetaDataContainer@relion@@QEAA_NW4EMDLabel@2@AEAV?$basic_string@DU?$char_traits@D@std@@V?$allocator@D@2@@std@@@Z
   7EE012 ?getValue@MetaDataContainer@relion@@QEAA_NW4EMDLabel@2@AEA_N@Z
   7EE012 ?getVoidPtr@MetaDataContainer@relion@@AEAAPEAXW4EMDLabel@2@@Z
   7EE012 ?insert@?$basic_string@DU?$char_traits@D@std@@V?$allocator@D@2@@std@@QEAAAEAV12@_KAEBV12@@Z
   7EE012 ?insertVoidPtr@MetaDataContainer@relion@@AEAAXW4EMDLabel@2@PEAX@Z
   7EE012 ?lower_bound@?$_Tree@V?$_Tmap_traits@W4EMDLabel@relion@@PEAXU?$less@W4EMDLabel@relion@@@std@@V?$allocator@U?$pair@$$CBW4EMDLabel@relion@@PEAX@std@@@4@$0A@@std@@@std@@QEAA?AV?$_Tree_iterator@V?$_Tree_val@U?$_Tree_simple_types@U?$pair@$$CBW4EMDLabel@relion@@PEAX@std@@@std@@@std@@@2@AEBW4EMDLabel@relion@@@Z
   7EE012 ?max_size@?$_Default_allocator_traits@V?$allocator@U?$_Tree_node@U?$pair@$$CBW4EMDLabel@relion@@PEAX@std@@PEAX@std@@@std@@@std@@SA_KAEBV?$allocator@U?$_Tree_node@U?$pair@$$CBW4EMDLabel@relion@@PEAX@std@@PEAX@std@@@2@@Z
   7EE012 ?max_size@?$_Tree@V?$_Tmap_traits@W4EMDLabel@relion@@PEAXU?$less@W4EMDLabel@relion@@@std@@V?$allocator@U?$pair@$$CBW4EMDLabel@relion@@PEAX@std@@@4@$0A@@std@@@std@@QEBA_KXZ
   7EE012 ?pairExists@MetaDataContainer@relion@@QEAA_NW4EMDLabel@2@AEBV?$basic_string@DU?$char_traits@D@std@@V?$allocator@D@2@@std@@@Z
   7EE012 ?pointer_to@?$pointer_traits@PEBU?$pair@$$CBW4EMDLabel@relion@@PEAX@std@@@std@@SAPEBU?$pair@$$CBW4EMDLabel@relion@@PEAX@2@AEBU32@@Z
   7EE012 ?scientific@std@@YAAEAVios_base@1@AEAV21@@Z
   7EE012 ?size@?$_Tree@V?$_Tmap_traits@W4EMDLabel@relion@@PEAXU?$less@W4EMDLabel@relion@@@std@@V?$allocator@U?$pair@$$CBW4EMDLabel@relion@@PEAX@std@@@4@$0A@@std@@@std@@QEBA_KXZ
   7EE012 ?valueExists@MetaDataContainer@relion@@QEAA_NW4EMDLabel@2@@Z
   7EE012 ?writeValueToStream@MetaDataContainer@relion@@QEAA_NAEAV?$basic_ostream@DU?$char_traits@D@std@@@std@@W4EMDLabel@2@@Z
   7EE012 ?writeValueToString@MetaDataContainer@relion@@QEAA_NAEAV?$basic_string@DU?$char_traits@D@std@@V?$allocator@D@2@@std@@W4EMDLabel@2@@Z
   7EE012 __real@3f50624dd2f1a9fc
   7EE012 __real@40f86a0000000000
   90D7E2 ??_C@_0BD@JMMNGDJJ@Error?5in?5askMemory@
   90D7E2 ??_C@_0CD@FEJAACNA@d?3?2software?2liblion?2src?2memory?4@
   90D7E2 ??_C@_0DB@HMAJLNGN@Memory?5allocation?5of?5?$CFld?5bytes?5@
   90D7E2 ??_C@_0DO@HFOKGDJH@Error?5in?5askMemory?3?5Memory?5allo@
   90D7E2 ?__LINE__Var@?0??askMemory@relion@@YAPEADK@Z@4JA
   90D7E2 ?askMemory@relion@@YAPEADK@Z
   90D7E2 ?freeMemory@relion@@YAHPEAXK@Z
   93F1D6 ?adaptForNumericalRecipes2@?$Matrix2D@M@relion@@QEBAPEAMXZ
   93F1D6 ?adaptForNumericalRecipes@?$Matrix1D@M@relion@@QEBAPEAMXZ
   93F1D6 ?svbksb@relion@@YAXAEAV?$Matrix2D@M@1@AEAV?$Matrix1D@M@1@011@Z
   94D428 ??$resize@H@?$Matrix1D@H@relion@@QEAAXAEBV01@@Z
   94D428 ??0?$Matrix1D@H@relion@@QEAA@AEBV01@@Z
   94D428 ??0?$Matrix1D@H@relion@@QEAA@H_N@Z
   94D428 ??4?$Matrix1D@H@relion@@QEAAAEAV01@AEBV01@@Z
   94D428 ??R?$Matrix1D@M@relion@@QEBAAEAMH@Z
   94D428 ?vectorR2@relion@@YA?AV?$Matrix1D@M@1@MM@Z
   94D428 ?vectorR3@relion@@YA?AV?$Matrix1D@H@1@HHH@Z
   94D428 ?vectorR3@relion@@YA?AV?$Matrix1D@M@1@MMM@Z
   94D428 ?vectorR3@relion@@YA?AV?$Matrix1D@M@1@NNN@Z
   9827D4 ??_C@_0BE@LGFEAGK@?5msk?4computeMax?$CI?$CJ?$DN?5@
   9827D4 ??_C@_0BE@ONAFOPIL@?5msk?4computeMin?$CI?$CJ?$DN?5@
   9827D4 ??_C@_0CB@OMMPKPMI@d?3?2software?2liblion?2src?2mask?4cp@
   9827D4 ??_C@_0EC@MMHMDEOM@ERROR?3?5Values?5in?5the?5solvent?5ma@
   9827D4 ??_C@_0EG@GEPINBKF@ERROR?3?5Solvent?5mask?5does?5not?5ha@
   9827D4 ?__LINE__Var@?0??softMaskOutsideMap@relion@@YAXAEAV?$MultidimArray@M@2@0_N@Z@4JA
   9827D4 ?autoMask@relion@@YAXAEAV?$MultidimArray@M@1@0MMM_N@Z
   9827D4 ?computeMax@?$MultidimArray@M@relion@@QEBAMXZ
   9827D4 ?computeMin@?$MultidimArray@M@relion@@QEBAMXZ
   9827D4 ?raisedCosineMask@relion@@YAXAEAV?$MultidimArray@M@1@MMHHH@Z
   9827D4 ?softMaskOutsideMap@relion@@YAXAEAV?$MultidimArray@M@1@0_N@Z
   9827D4 ?softMaskOutsideMap@relion@@YAXAEAV?$MultidimArray@M@1@MMPEAV21@@Z
   9827D4 __real@3feff7ced916872b
   9827D4 __real@461c3c00
   9CEEAE ??$?0$$V@?$_Compressed_pair@V?$allocator@Ufit_point3D@relion@@@std@@V?$_Vector_val@U?$_Simple_types@Ufit_point3D@relion@@@std@@@2@$00@std@@QEAA@U_Zero_then_variadic_args_t@1@@Z
   9CEEAE ??$?0Ufit_point3D@relion@@@?$allocator@U_Container_proxy@std@@@std@@QEAA@AEBV?$allocator@Ufit_point3D@relion@@@1@@Z
   9CEEAE ??$_Copy_memmove@PEAUfit_point3D@relion@@PEAU12@@std@@YAPEAUfit_point3D@relion@@PEAU12@00@Z
   9CEEAE ??$_Destroy_range1@V?$allocator@Ufit_point3D@relion@@@std@@@std@@YAXPEAUfit_point3D@relion@@0AEAV?$allocator@Ufit_point3D@relion@@@0@U?$integral_constant@_N$00@0@@Z
   9CEEAE ??$_Destroy_range@V?$allocator@Ufit_point3D@relion@@@std@@@std@@YAXPEAUfit_point3D@relion@@0AEAV?$allocator@Ufit_point3D@relion@@@0@@Z
   9CEEAE ??$_Emplace_back_with_unused_capacity@AEBUfit_point3D@relion@@@?$vector@Ufit_point3D@relion@@V?$allocator@Ufit_point3D@relion@@@std@@@std@@AEAA@AEBUfit_point3D@relion@@@Z
   9CEEAE ??$_Emplace_reallocate@AEBUfit_point3D@relion@@@?$vector@Ufit_point3D@relion@@V?$allocator@Ufit_point3D@relion@@@std@@@std@@QEAAPEAUfit_point3D@relion@@QEAU23@AEBU23@@Z
   9CEEAE ??$_Get_unwrapped@Ufit_point3D@relion@@@std@@YAPEAUfit_point3D@relion@@QEAU12@@Z
   9CEEAE ??$_Get_unwrapped_n@Ufit_point3D@relion@@_J$0A@@std@@YAPEAUfit_point3D@relion@@QEAU12@_J@Z
   9CEEAE ??$_Idl_distance1@PEAUfit_point3D@relion@@PEAU12@@std@@YA_JAEBQEAUfit_point3D@relion@@0Urandom_access_iterator_tag@0@@Z
   9CEEAE ??$_Idl_distance@PEAUfit_point3D@relion@@PEAU12@@std@@YA@AEBQEAUfit_point3D@relion@@0@Z
   9CEEAE ??$_Ptr_move_cat@Ufit_point3D@relion@@U12@@std@@YA?AU_Really_trivial_ptr_iterator_tag@0@AEBQEAUfit_point3D@relion@@0@Z
   9CEEAE ??$_Seek_wrapped@Ufit_point3D@relion@@@std@@YAXAEAPEAUfit_point3D@relion@@QEAU12@@Z
   9CEEAE ??$_Unfancy@Ufit_point3D@relion@@@std@@YAPEAUfit_point3D@relion@@PEAU12@@Z
   9CEEAE ??$_Uninitialized_move@PEAUfit_point3D@relion@@PEAU12@V?$allocator@Ufit_point3D@relion@@@std@@@std@@YAPEAUfit_point3D@relion@@QEAU12@0PEAU12@AEAV?$allocator@Ufit_point3D@relion@@@0@@Z
   9CEEAE ??$_Uninitialized_move_al_unchecked@Ufit_point3D@relion@@U12@V?$allocator@Ufit_point3D@relion@@@std@@@std@@YAPEAUfit_point3D@relion@@QEAU12@00AEAV?$allocator@Ufit_point3D@relion@@@0@U_Really_trivial_ptr_iterator_tag@0@U?$integral_constant@_N$00@0@@Z
   9CEEAE ??$addressof@V?$_Vector_val@U?$_Simple_types@Ufit_point3D@relion@@@std@@@std@@@std@@YAPEAV?$_Vector_val@U?$_Simple_types@Ufit_point3D@relion@@@std@@@0@AEAV10@@Z
   9CEEAE ??$construct@Ufit_point3D@relion@@AEBU12@@?$_Default_allocator_traits@V?$allocator@Ufit_point3D@relion@@@std@@@std@@SAXAEAV?$allocator@Ufit_point3D@relion@@@1@QEAUfit_point3D@relion@@AEBU34@@Z
   9CEEAE ??$emplace_back@AEBUfit_point3D@relion@@@?$vector@Ufit_point3D@relion@@V?$allocator@Ufit_point3D@relion@@@std@@@std@@QEAA@AEBUfit_point3D@relion@@@Z
   9CEEAE ??$forward@AEBUfit_point3D@relion@@@std@@YAAEBUfit_point3D@relion@@AEBU12@@Z
   9CEEAE ??0?$_Vector_alloc@U?$_Vec_base_types@Ufit_point3D@relion@@V?$allocator@Ufit_point3D@relion@@@std@@@std@@@std@@QEAA@XZ
   9CEEAE ??0?$_Vector_val@U?$_Simple_types@Ufit_point3D@relion@@@std@@@std@@QEAA@XZ
   9CEEAE ??0?$allocator@Ufit_point3D@relion@@@std@@QEAA@XZ
   9CEEAE ??0?$vector@Ufit_point3D@relion@@V?$allocator@Ufit_point3D@relion@@@std@@@std@@QEAA@XZ
   9CEEAE ??1?$_Vector_alloc@U?$_Vec_base_types@Ufit_point3D@relion@@V?$allocator@Ufit_point3D@relion@@@std@@@std@@@std@@QEAA@XZ
   9CEEAE ??1?$vector@Ufit_point3D@relion@@V?$allocator@Ufit_point3D@relion@@@std@@@std@@QEAA@XZ
   9CEEAE ??R?$Image@M@relion@@QEAAAEAV?$MultidimArray@M@1@XZ
   9CEEAE ??_C@_03JBIPMCLC@int@
   9CEEAE ??_C@_04EHNLIFAM@uint@
   9CEEAE ??_C@_05BFKKPKCG@short@
   9CEEAE ??_C@_05GBMOKKDM@uchar@
   9CEEAE ??_C@_05KNFBNCOH@float@
   9CEEAE ??_C@_06IHFEHLHH@ushort@
   9CEEAE ??_C@_0BL@DGGBGIIO@?5WARNING?$CB?5Stddev?5of?5image?5@
   9CEEAE ??_C@_0CC@CLNNGNLB@d?3?2software?2liblion?2src?2image?4c@
   9CEEAE ??_C@_0CE@EFHDJIHE@?5is?5zero?$CB?5Skipping?5normalisatio@
   9CEEAE ??_C@_0CF@CEOHKFOB@datatypeString2int?$DL?5unknown?5dat@
   9CEEAE ??_C@_0DI@OPNMEJIP@normalise?5ERROR?3?52?$CKbg_radius?5is@
   9CEEAE ??_C@_0EB@PBLICEFO@ERROR?5?$CF?$CF?5calculateBackgroundRam@
   9CEEAE ?_Alloc_proxy@?$_Vector_alloc@U?$_Vec_base_types@Ufit_point3D@relion@@V?$allocator@Ufit_point3D@relion@@@std@@@std@@@std@@QEAAXXZ
   9CEEAE ?_Calculate_growth@?$vector@Ufit_point3D@relion@@V?$allocator@Ufit_point3D@relion@@@std@@@std@@AEBA_K_K@Z
   9CEEAE ?_Change_array@?$vector@Ufit_point3D@relion@@V?$allocator@Ufit_point3D@relion@@@std@@@std@@AEAAXQEAUfit_point3D@relion@@_K1@Z
   9CEEAE ?_Destroy@?$vector@Ufit_point3D@relion@@V?$allocator@Ufit_point3D@relion@@@std@@@std@@AEAAXPEAUfit_point3D@relion@@0@Z
   9CEEAE ?_Free_proxy@?$_Vector_alloc@U?$_Vec_base_types@Ufit_point3D@relion@@V?$allocator@Ufit_point3D@relion@@@std@@@std@@@std@@QEAAXXZ
   9CEEAE ?_Get_data@?$_Vector_alloc@U?$_Vec_base_types@Ufit_point3D@relion@@V?$allocator@Ufit_point3D@relion@@@std@@@std@@@std@@QEAAAEAV?$_Vector_val@U?$_Simple_types@Ufit_point3D@relion@@@std@@@2@XZ
   9CEEAE ?_Get_data@?$_Vector_alloc@U?$_Vec_base_types@Ufit_point3D@relion@@V?$allocator@Ufit_point3D@relion@@@std@@@std@@@std@@QEBAAEBV?$_Vector_val@U?$_Simple_types@Ufit_point3D@relion@@@std@@@2@XZ
   9CEEAE ?_Get_first@?$_Compressed_pair@V?$allocator@Ufit_point3D@relion@@@std@@V?$_Vector_val@U?$_Simple_types@Ufit_point3D@relion@@@std@@@2@$00@std@@QEAAAEAV?$allocator@Ufit_point3D@relion@@@2@XZ
   9CEEAE ?_Get_first@?$_Compressed_pair@V?$allocator@Ufit_point3D@relion@@@std@@V?$_Vector_val@U?$_Simple_types@Ufit_point3D@relion@@@std@@@2@$00@std@@QEBAAEBV?$allocator@Ufit_point3D@relion@@@2@XZ
   9CEEAE ?_Get_second@?$_Compressed_pair@V?$allocator@Ufit_point3D@relion@@@std@@V?$_Vector_val@U?$_Simple_types@Ufit_point3D@relion@@@std@@@2@$00@std@@QEAAAEAV?$_Vector_val@U?$_Simple_types@Ufit_point3D@relion@@@std@@@2@XZ
   9CEEAE ?_Get_second@?$_Compressed_pair@V?$allocator@Ufit_point3D@relion@@@std@@V?$_Vector_val@U?$_Simple_types@Ufit_point3D@relion@@@std@@@2@$00@std@@QEBAAEBV?$_Vector_val@U?$_Simple_types@Ufit_point3D@relion@@@std@@@2@XZ
   9CEEAE ?_Getal@?$_Vector_alloc@U?$_Vec_base_types@Ufit_point3D@relion@@V?$allocator@Ufit_point3D@relion@@@std@@@std@@@std@@QEAAAEAV?$allocator@Ufit_point3D@relion@@@2@XZ
   9CEEAE ?_Getal@?$_Vector_alloc@U?$_Vec_base_types@Ufit_point3D@relion@@V?$allocator@Ufit_point3D@relion@@@std@@@std@@@std@@QEBAAEBV?$allocator@Ufit_point3D@relion@@@2@XZ
   9CEEAE ?_Getpfirst@?$_Vector_alloc@U?$_Vec_base_types@Ufit_point3D@relion@@V?$allocator@Ufit_point3D@relion@@@std@@@std@@@std@@QEBAPEAPEAU_Iterator_base12@2@XZ
   9CEEAE ?_Has_unused_capacity@?$vector@Ufit_point3D@relion@@V?$allocator@Ufit_point3D@relion@@@std@@@std@@AEBA_NXZ
   9CEEAE ?_Myend@?$_Vector_alloc@U?$_Vec_base_types@Ufit_point3D@relion@@V?$allocator@Ufit_point3D@relion@@@std@@@std@@@std@@QEAAAEAPEAUfit_point3D@relion@@XZ
   9CEEAE ?_Myend@?$_Vector_alloc@U?$_Vec_base_types@Ufit_point3D@relion@@V?$allocator@Ufit_point3D@relion@@@std@@@std@@@std@@QEBAAEBQEAUfit_point3D@relion@@XZ
   9CEEAE ?_Myfirst@?$_Vector_alloc@U?$_Vec_base_types@Ufit_point3D@relion@@V?$allocator@Ufit_point3D@relion@@@std@@@std@@@std@@QEAAAEAPEAUfit_point3D@relion@@XZ
   9CEEAE ?_Myfirst@?$_Vector_alloc@U?$_Vec_base_types@Ufit_point3D@relion@@V?$allocator@Ufit_point3D@relion@@@std@@@std@@@std@@QEBAAEBQEAUfit_point3D@relion@@XZ
   9CEEAE ?_Mylast@?$_Vector_alloc@U?$_Vec_base_types@Ufit_point3D@relion@@V?$allocator@Ufit_point3D@relion@@@std@@@std@@@std@@QEAAAEAPEAUfit_point3D@relion@@XZ
   9CEEAE ?_Mylast@?$_Vector_alloc@U?$_Vec_base_types@Ufit_point3D@relion@@V?$allocator@Ufit_point3D@relion@@@std@@@std@@@std@@QEBAAEBQEAUfit_point3D@relion@@XZ
   9CEEAE ?_Myproxy@?$_Vector_alloc@U?$_Vec_base_types@Ufit_point3D@relion@@V?$allocator@Ufit_point3D@relion@@@std@@@std@@@std@@QEAAAEAPEAU_Container_proxy@2@XZ
   9CEEAE ?_Orphan_all@?$_Vector_alloc@U?$_Vec_base_types@Ufit_point3D@relion@@V?$allocator@Ufit_point3D@relion@@@std@@@std@@@std@@QEAAXXZ
   9CEEAE ?_Orphan_range@?$vector@Ufit_point3D@relion@@V?$allocator@Ufit_point3D@relion@@@std@@@std@@AEBAXPEAUfit_point3D@relion@@0@Z
   9CEEAE ?_Tidy@?$vector@Ufit_point3D@relion@@V?$allocator@Ufit_point3D@relion@@@std@@@std@@AEAAXXZ
   9CEEAE ?_Umove@?$vector@Ufit_point3D@relion@@V?$allocator@Ufit_point3D@relion@@@std@@@std@@AEAAPEAUfit_point3D@relion@@PEAU34@00@Z
   9CEEAE ?_Umove_if_noexcept1@?$vector@Ufit_point3D@relion@@V?$allocator@Ufit_point3D@relion@@@std@@@std@@AEAAXPEAUfit_point3D@relion@@00U?$integral_constant@_N$00@2@@Z
   9CEEAE ?_Umove_if_noexcept@?$vector@Ufit_point3D@relion@@V?$allocator@Ufit_point3D@relion@@@std@@@std@@AEAAXPEAUfit_point3D@relion@@00@Z
   9CEEAE ?_Xlength@?$vector@Ufit_point3D@relion@@V?$allocator@Ufit_point3D@relion@@@std@@@std@@CAXXZ
   9CEEAE ?__LINE__Var@?0??datatypeString2Int@relion@@YAHV?$basic_string@DU?$char_traits@D@std@@V?$allocator@D@2@@std@@@Z@4JA
   9CEEAE ?__LINE__Var@?0??normalise@relion@@YAXAEAV?$Image@M@2@HMM_N@Z@4JA
   9CEEAE ?__LINE__Var@?0??subtractBackgroundRamp@relion@@YAXAEAV?$Image@M@2@H@Z@4JA
   9CEEAE ?allocate@?$allocator@Ufit_point3D@relion@@@std@@QEAAPEAUfit_point3D@relion@@_K@Z
   9CEEAE ?calculateBackgroundAvgStddev@relion@@YAXAEAV?$Image@M@1@AEAM1H@Z
   9CEEAE ?capacity@?$vector@Ufit_point3D@relion@@V?$allocator@Ufit_point3D@relion@@@std@@@std@@QEBA_KXZ
   9CEEAE ?datatypeString2Int@relion@@YAHV?$basic_string@DU?$char_traits@D@std@@V?$allocator@D@2@@std@@@Z
   9CEEAE ?deallocate@?$allocator@Ufit_point3D@relion@@@std@@QEAAXQEAUfit_point3D@relion@@_K@Z
   9CEEAE ?gettypesize@relion@@YAKW4DataType@1@@Z
   9CEEAE ?invert_contrast@relion@@YAXAEAV?$Image@M@1@@Z
   9CEEAE ?max_size@?$_Default_allocator_traits@V?$allocator@Ufit_point3D@relion@@@std@@@std@@SA_KAEBV?$allocator@Ufit_point3D@relion@@@2@@Z
   9CEEAE ?max_size@?$vector@Ufit_point3D@relion@@V?$allocator@Ufit_point3D@relion@@@std@@@std@@QEBA_KXZ
   9CEEAE ?name@?$Image@M@relion@@QEBAAEBVFileName@2@XZ
   9CEEAE ?normalise@relion@@YAXAEAV?$Image@M@1@HMM_N@Z
   9CEEAE ?push_back@?$vector@Ufit_point3D@relion@@V?$allocator@Ufit_point3D@relion@@@std@@@std@@QEAAXAEBUfit_point3D@relion@@@Z
   9CEEAE ?removeDust@relion@@YAXAEAV?$Image@M@1@_NMMM@Z
   9CEEAE ?rescale@relion@@YAXAEAV?$Image@M@1@H@Z
   9CEEAE ?rewindow@relion@@YAXAEAV?$Image@M@1@H@Z
   9CEEAE ?size@?$vector@Ufit_point3D@relion@@V?$allocator@Ufit_point3D@relion@@@std@@@std@@QEBA_KXZ
   9CEEAE ?subtractBackgroundRamp@relion@@YAXAEAV?$Image@M@1@H@Z
   9CEEAE ?window@?$MultidimArray@M@relion@@QEAAXJJJJJJMJ@Z
   9CEEAE ?window@?$MultidimArray@M@relion@@QEAAXJJJJMJ@Z
   9CEEAE ?window@?$MultidimArray@M@relion@@QEBAXAEAV12@JJJJJJMJ@Z
   9CEEAE ?window@?$MultidimArray@M@relion@@QEBAXAEAV12@JJJJMJ@Z
   A46BB6 ??$?0$$V@?$_Compressed_pair@V?$allocator@M@std@@V?$_Vector_val@U?$_Simple_types@M@std@@@2@$00@std@@QEAA@U_Zero_then_variadic_args_t@1@@Z
   A46BB6 ??$?0$$V@?$_Compressed_pair@V?$allocator@V?$Matrix1D@M@relion@@@std@@V?$_Vector_val@U?$_Simple_types@V?$Matrix1D@M@relion@@@std@@@2@$00@std@@QEAA@U_Zero_then_variadic_args_t@1@@Z
   A46BB6 ??$?0M@?$allocator@U_Container_proxy@std@@@std@@QEAA@AEBV?$allocator@M@1@@Z
   A46BB6 ??$?0V?$Matrix1D@M@relion@@@?$allocator@U_Container_proxy@std@@@std@@QEAA@AEBV?$allocator@V?$Matrix1D@M@relion@@@1@@Z
   A46BB6 ??$_Adl_verify_range1@PEAHPEAH@std@@YAXAEBQEAH0U?$integral_constant@_N$00@0@@Z
   A46BB6 ??$_Adl_verify_range1@PEAMPEAM@std@@YAXAEBQEAM0U?$integral_constant@_N$00@0@@Z
   A46BB6 ??$_Adl_verify_range1@PEAV?$Matrix1D@M@relion@@PEAV12@@std@@YAXAEBQEAV?$Matrix1D@M@relion@@0U?$integral_constant@_N$00@0@@Z
   A46BB6 ??$_Adl_verify_range@PEAHPEAH@std@@YAXAEBQEAH0@Z
   A46BB6 ??$_Adl_verify_range@PEAMPEAM@std@@YAXAEBQEAM0@Z
   A46BB6 ??$_Adl_verify_range@PEAV?$Matrix1D@M@relion@@PEAV12@@std@@YAXAEBQEAV?$Matrix1D@M@relion@@0@Z
   A46BB6 ??$_Advance1@PEAH_J@std@@YAXAEAPEAH_JUrandom_access_iterator_tag@0@@Z
   A46BB6 ??$_Advance1@PEAM_J@std@@YAXAEAPEAM_JUrandom_access_iterator_tag@0@@Z
   A46BB6 ??$_Advance1@PEAV?$Matrix1D@M@relion@@_J@std@@YAXAEAPEAV?$Matrix1D@M@relion@@_JUrandom_access_iterator_tag@0@@Z
   A46BB6 ??$_Assign_range@PEAH@?$vector@HV?$allocator@H@std@@@std@@AEAAXPEAH0Uforward_iterator_tag@1@@Z
   A46BB6 ??$_Assign_range@PEAM@?$vector@MV?$allocator@M@std@@@std@@AEAAXPEAM0Uforward_iterator_tag@1@@Z
   A46BB6 ??$_Assign_range@PEAV?$Matrix1D@M@relion@@@?$vector@V?$Matrix1D@M@relion@@V?$allocator@V?$Matrix1D@M@relion@@@std@@@std@@AEAAXPEAV?$Matrix1D@M@relion@@0Uforward_iterator_tag@1@@Z
   A46BB6 ??$_Copy_memmove@PEAMPEAM@std@@YAPEAMPEAM00@Z
   A46BB6 ??$_Copy_unchecked1@PEAHPEAH@std@@YAPEAHPEAH00U_Trivially_copyable_ptr_iterator_tag@0@@Z
   A46BB6 ??$_Copy_unchecked1@PEAMPEAM@std@@YAPEAMPEAM00U_Trivially_copyable_ptr_iterator_tag@0@@Z
   A46BB6 ??$_Copy_unchecked1@PEAV?$Matrix1D@M@relion@@PEAV12@@std@@YAPEAV?$Matrix1D@M@relion@@PEAV12@00U_General_ptr_iterator_tag@0@@Z
   A46BB6 ??$_Copy_unchecked@PEAHPEAH@std@@YAPEAHPEAH00@Z
   A46BB6 ??$_Copy_unchecked@PEAMPEAM@std@@YAPEAMPEAM00@Z
   A46BB6 ??$_Copy_unchecked@PEAV?$Matrix1D@M@relion@@PEAV12@@std@@YAPEAV?$Matrix1D@M@relion@@PEAV12@00@Z
   A46BB6 ??$_Destroy_range1@V?$allocator@M@std@@@std@@YAXPEAM0AEAV?$allocator@M@0@U?$integral_constant@_N$00@0@@Z
   A46BB6 ??$_Destroy_range1@V?$allocator@V?$Matrix1D@M@relion@@@std@@@std@@YAXPEAV?$Matrix1D@M@relion@@0AEAV?$allocator@V?$Matrix1D@M@relion@@@0@U?$integral_constant@_N$0A@@0@@Z
   A46BB6 ??$_Destroy_range1@V?$allocator@V?$Matrix2D@M@relion@@@std@@@std@@YAXPEAV?$Matrix2D@M@relion@@0AEAV?$allocator@V?$Matrix2D@M@relion@@@0@U?$integral_constant@_N$0A@@0@@Z
   A46BB6 ??$_Destroy_range@V?$allocator@M@std@@@std@@YAXPEAM0AEAV?$allocator@M@0@@Z
   A46BB6 ??$_Destroy_range@V?$allocator@V?$Matrix1D@M@relion@@@std@@@std@@YAXPEAV?$Matrix1D@M@relion@@0AEAV?$allocator@V?$Matrix1D@M@relion@@@0@@Z
   A46BB6 ??$_Destroy_range@V?$allocator@V?$Matrix2D@M@relion@@@std@@@std@@YAXPEAV?$Matrix2D@M@relion@@0AEAV?$allocator@V?$Matrix2D@M@relion@@@0@@Z
   A46BB6 ??$_Distance1@PEAH@std@@YA_JPEAH0Urandom_access_iterator_tag@0@@Z
   A46BB6 ??$_Distance1@PEAM@std@@YA_JPEAM0Urandom_access_iterator_tag@0@@Z
   A46BB6 ??$_Distance1@PEAV?$Matrix1D@M@relion@@@std@@YA_JPEAV?$Matrix1D@M@relion@@0Urandom_access_iterator_tag@0@@Z
   A46BB6 ??$_Emplace_back@AEAV?$Matrix1D@M@relion@@@?$_Uninitialized_backout_al@PEAV?$Matrix1D@M@relion@@V?$allocator@V?$Matrix1D@M@relion@@@std@@@std@@QEAAXAEAV?$Matrix1D@M@relion@@@Z
   A46BB6 ??$_Emplace_back@AEAV?$Matrix2D@M@relion@@@?$_Uninitialized_backout_al@PEAV?$Matrix2D@M@relion@@V?$allocator@V?$Matrix2D@M@relion@@@std@@@std@@QEAAXAEAV?$Matrix2D@M@relion@@@Z
   A46BB6 ??$_Emplace_back@V?$Matrix1D@M@relion@@@?$_Uninitialized_backout_al@PEAV?$Matrix1D@M@relion@@V?$allocator@V?$Matrix1D@M@relion@@@std@@@std@@QEAAX$$QEAV?$Matrix1D@M@relion@@@Z
   A46BB6 ??$_Emplace_back@V?$Matrix2D@M@relion@@@?$_Uninitialized_backout_al@PEAV?$Matrix2D@M@relion@@V?$allocator@V?$Matrix2D@M@relion@@@std@@@std@@QEAAX$$QEAV?$Matrix2D@M@relion@@@Z
   A46BB6 ??$_Emplace_back_with_unused_capacity@AEBM@?$vector@MV?$allocator@M@std@@@std@@AEAA@AEBM@Z
   A46BB6 ??$_Emplace_back_with_unused_capacity@AEBV?$Matrix1D@M@relion@@@?$vector@V?$Matrix1D@M@relion@@V?$allocator@V?$Matrix1D@M@relion@@@std@@@std@@AEAA@AEBV?$Matrix1D@M@relion@@@Z
   A46BB6 ??$_Emplace_back_with_unused_capacity@AEBV?$Matrix2D@M@relion@@@?$vector@V?$Matrix2D@M@relion@@V?$allocator@V?$Matrix2D@M@relion@@@std@@@std@@AEAA@AEBV?$Matrix2D@M@relion@@@Z
   A46BB6 ??$_Emplace_back_with_unused_capacity@H@?$vector@HV?$allocator@H@std@@@std@@AEAA@$$QEAH@Z
   A46BB6 ??$_Emplace_back_with_unused_capacity@M@?$vector@MV?$allocator@M@std@@@std@@AEAA@$$QEAM@Z
   A46BB6 ??$_Emplace_reallocate@AEBM@?$vector@MV?$allocator@M@std@@@std@@QEAAPEAMQEAMAEBM@Z
   A46BB6 ??$_Emplace_reallocate@AEBV?$Matrix1D@M@relion@@@?$vector@V?$Matrix1D@M@relion@@V?$allocator@V?$Matrix1D@M@relion@@@std@@@std@@QEAAPEAV?$Matrix1D@M@relion@@QEAV23@AEBV23@@Z
   A46BB6 ??$_Emplace_reallocate@AEBV?$Matrix2D@M@relion@@@?$vector@V?$Matrix2D@M@relion@@V?$allocator@V?$Matrix2D@M@relion@@@std@@@std@@QEAAPEAV?$Matrix2D@M@relion@@QEAV23@AEBV23@@Z
   A46BB6 ??$_Emplace_reallocate@H@?$vector@HV?$allocator@H@std@@@std@@QEAAPEAHQEAH$$QEAH@Z
   A46BB6 ??$_Emplace_reallocate@M@?$vector@MV?$allocator@M@std@@@std@@QEAAPEAMQEAM$$QEAM@Z
   A46BB6 ??$_Get_size_of_n@$0BI@@std@@YA_K_K@Z
   A46BB6 ??$_Get_unwrapped@M@std@@YAPEAMQEAM@Z
   A46BB6 ??$_Get_unwrapped@V?$Matrix1D@M@relion@@@std@@YAPEAV?$Matrix1D@M@relion@@QEAV12@@Z
   A46BB6 ??$_Get_unwrapped@V?$Matrix2D@M@relion@@@std@@YAPEAV?$Matrix2D@M@relion@@QEAV12@@Z
   A46BB6 ??$_Get_unwrapped_n@M_J$0A@@std@@YAPEAMQEAM_J@Z
   A46BB6 ??$_Get_unwrapped_n@V?$Matrix1D@M@relion@@_J$0A@@std@@YAPEAV?$Matrix1D@M@relion@@QEAV12@_J@Z
   A46BB6 ??$_Get_unwrapped_n@V?$Matrix2D@M@relion@@_J$0A@@std@@YAPEAV?$Matrix2D@M@relion@@QEAV12@_J@Z
   A46BB6 ??$_Idl_distance1@PEAMPEAM@std@@YA_JAEBQEAM0Urandom_access_iterator_tag@0@@Z
   A46BB6 ??$_Idl_distance1@PEAV?$Matrix1D@M@relion@@PEAV12@@std@@YA_JAEBQEAV?$Matrix1D@M@relion@@0Urandom_access_iterator_tag@0@@Z
   A46BB6 ??$_Idl_distance1@PEAV?$Matrix2D@M@relion@@PEAV12@@std@@YA_JAEBQEAV?$Matrix2D@M@relion@@0Urandom_access_iterator_tag@0@@Z
   A46BB6 ??$_Idl_distance@PEAMPEAM@std@@YA@AEBQEAM0@Z
   A46BB6 ??$_Idl_distance@PEAV?$Matrix1D@M@relion@@PEAV12@@std@@YA@AEBQEAV?$Matrix1D@M@relion@@0@Z
   A46BB6 ??$_Idl_distance@PEAV?$Matrix2D@M@relion@@PEAV12@@std@@YA@AEBQEAV?$Matrix2D@M@relion@@0@Z
   A46BB6 ??$_Pocca@V?$allocator@H@std@@@std@@YAXAEAV?$allocator@H@0@AEBV10@@Z
   A46BB6 ??$_Pocca@V?$allocator@H@std@@@std@@YAXAEAV?$allocator@H@0@AEBV10@U?$integral_constant@_N$0A@@0@@Z
   A46BB6 ??$_Pocca@V?$allocator@M@std@@@std@@YAXAEAV?$allocator@M@0@AEBV10@@Z
   A46BB6 ??$_Pocca@V?$allocator@M@std@@@std@@YAXAEAV?$allocator@M@0@AEBV10@U?$integral_constant@_N$0A@@0@@Z
   A46BB6 ??$_Pocca@V?$allocator@V?$Matrix1D@M@relion@@@std@@@std@@YAXAEAV?$allocator@V?$Matrix1D@M@relion@@@0@AEBV10@@Z
   A46BB6 ??$_Pocca@V?$allocator@V?$Matrix1D@M@relion@@@std@@@std@@YAXAEAV?$allocator@V?$Matrix1D@M@relion@@@0@AEBV10@U?$integral_constant@_N$0A@@0@@Z
   A46BB6 ??$_Ptr_copy_cat@HH@std@@YA?AU_Really_trivial_ptr_iterator_tag@0@AEBQEAH0@Z
   A46BB6 ??$_Ptr_copy_cat@MM@std@@YA?AU_Really_trivial_ptr_iterator_tag@0@AEBQEAM0@Z
   A46BB6 ??$_Ptr_copy_cat@V?$Matrix1D@M@relion@@V12@@std@@YA?AU_General_ptr_iterator_tag@0@AEBQEAV?$Matrix1D@M@relion@@0@Z
   A46BB6 ??$_Ptr_copy_cat@V?$Matrix2D@M@relion@@V12@@std@@YA?AU_General_ptr_iterator_tag@0@AEBQEAV?$Matrix2D@M@relion@@0@Z
   A46BB6 ??$_Ptr_move_cat@MM@std@@YA?AU_Really_trivial_ptr_iterator_tag@0@AEBQEAM0@Z
   A46BB6 ??$_Ptr_move_cat@V?$Matrix1D@M@relion@@V12@@std@@YA?AU_General_ptr_iterator_tag@0@AEBQEAV?$Matrix1D@M@relion@@0@Z
   A46BB6 ??$_Ptr_move_cat@V?$Matrix2D@M@relion@@V12@@std@@YA?AU_General_ptr_iterator_tag@0@AEBQEAV?$Matrix2D@M@relion@@0@Z
   A46BB6 ??$_Seek_wrapped@M@std@@YAXAEAPEAMQEAM@Z
   A46BB6 ??$_Seek_wrapped@V?$Matrix1D@M@relion@@@std@@YAXAEAPEAV?$Matrix1D@M@relion@@QEAV12@@Z
   A46BB6 ??$_Seek_wrapped@V?$Matrix2D@M@relion@@@std@@YAXAEAPEAV?$Matrix2D@M@relion@@QEAV12@@Z
   A46BB6 ??$_Ucopy@PEAH@?$vector@HV?$allocator@H@std@@@std@@AEAAPEAHPEAH00@Z
   A46BB6 ??$_Ucopy@PEAM@?$vector@MV?$allocator@M@std@@@std@@AEAAPEAMPEAM00@Z
   A46BB6 ??$_Ucopy@PEAV?$Matrix1D@M@relion@@@?$vector@V?$Matrix1D@M@relion@@V?$allocator@V?$Matrix1D@M@relion@@@std@@@std@@AEAAPEAV?$Matrix1D@M@relion@@PEAV23@00@Z
   A46BB6 ??$_Unfancy@M@std@@YAPEAMPEAM@Z
   A46BB6 ??$_Unfancy@V?$Matrix1D@M@relion@@@std@@YAPEAV?$Matrix1D@M@relion@@PEAV12@@Z
   A46BB6 ??$_Unfancy@V?$Matrix2D@M@relion@@@std@@YAPEAV?$Matrix2D@M@relion@@PEAV12@@Z
   A46BB6 ??$_Uninitialized_copy@PEAHPEAHV?$allocator@H@std@@@std@@YAPEAHQEAH0PEAHAEAV?$allocator@H@0@@Z
   A46BB6 ??$_Uninitialized_copy@PEAMPEAMV?$allocator@M@std@@@std@@YAPEAMQEAM0PEAMAEAV?$allocator@M@0@@Z
   A46BB6 ??$_Uninitialized_copy@PEAV?$Matrix1D@M@relion@@PEAV12@V?$allocator@V?$Matrix1D@M@relion@@@std@@@std@@YAPEAV?$Matrix1D@M@relion@@QEAV12@0PEAV12@AEAV?$allocator@V?$Matrix1D@M@relion@@@0@@Z
   A46BB6 ??$_Uninitialized_copy@PEAV?$Matrix2D@M@relion@@PEAV12@V?$allocator@V?$Matrix2D@M@relion@@@std@@@std@@YAPEAV?$Matrix2D@M@relion@@QEAV12@0PEAV12@AEAV?$allocator@V?$Matrix2D@M@relion@@@0@@Z
   A46BB6 ??$_Uninitialized_copy_al_unchecked@HHV?$allocator@H@std@@@std@@YAPEAHQEAH00AEAV?$allocator@H@0@U_Really_trivial_ptr_iterator_tag@0@U?$integral_constant@_N$00@0@@Z
   A46BB6 ??$_Uninitialized_copy_al_unchecked@MMV?$allocator@M@std@@@std@@YAPEAMQEAM00AEAV?$allocator@M@0@U_Really_trivial_ptr_iterator_tag@0@U?$integral_constant@_N$00@0@@Z
   A46BB6 ??$_Uninitialized_copy_al_unchecked@PEAV?$Matrix1D@M@relion@@PEAV12@V?$allocator@V?$Matrix1D@M@relion@@@std@@@std@@YAPEAV?$Matrix1D@M@relion@@PEAV12@QEAV12@1AEAV?$allocator@V?$Matrix1D@M@relion@@@0@U_General_ptr_iterator_tag@0@U_Unused_parameter@0@@Z
   A46BB6 ??$_Uninitialized_copy_al_unchecked@PEAV?$Matrix2D@M@relion@@PEAV12@V?$allocator@V?$Matrix2D@M@relion@@@std@@@std@@YAPEAV?$Matrix2D@M@relion@@PEAV12@QEAV12@1AEAV?$allocator@V?$Matrix2D@M@relion@@@0@U_General_ptr_iterator_tag@0@U_Unused_parameter@0@@Z
   A46BB6 ??$_Uninitialized_move@PEAMPEAMV?$allocator@M@std@@@std@@YAPEAMQEAM0PEAMAEAV?$allocator@M@0@@Z
   A46BB6 ??$_Uninitialized_move@PEAV?$Matrix1D@M@relion@@PEAV12@V?$allocator@V?$Matrix1D@M@relion@@@std@@@std@@YAPEAV?$Matrix1D@M@relion@@QEAV12@0PEAV12@AEAV?$allocator@V?$Matrix1D@M@relion@@@0@@Z
   A46BB6 ??$_Uninitialized_move@PEAV?$Matrix2D@M@relion@@PEAV12@V?$allocator@V?$Matrix2D@M@relion@@@std@@@std@@YAPEAV?$Matrix2D@M@relion@@QEAV12@0PEAV12@AEAV?$allocator@V?$Matrix2D@M@relion@@@0@@Z
   A46BB6 ??$_Uninitialized_move_al_unchecked@MMV?$allocator@M@std@@@std@@YAPEAMQEAM00AEAV?$allocator@M@0@U_Really_trivial_ptr_iterator_tag@0@U?$integral_constant@_N$00@0@@Z
   A46BB6 ??$_Uninitialized_move_al_unchecked@PEAV?$Matrix1D@M@relion@@PEAV12@V?$allocator@V?$Matrix1D@M@relion@@@std@@@std@@YAPEAV?$Matrix1D@M@relion@@PEAV12@QEAV12@1AEAV?$allocator@V?$Matrix1D@M@relion@@@0@U_General_ptr_iterator_tag@0@U_Unused_parameter@0@@Z
   A46BB6 ??$_Uninitialized_move_al_unchecked@PEAV?$Matrix2D@M@relion@@PEAV12@V?$allocator@V?$Matrix2D@M@relion@@@std@@@std@@YAPEAV?$Matrix2D@M@relion@@PEAV12@QEAV12@1AEAV?$allocator@V?$Matrix2D@M@relion@@@0@U_General_ptr_iterator_tag@0@U_Unused_parameter@0@@Z
   A46BB6 ??$_Verify_range@H@std@@YAXQEBH0@Z
   A46BB6 ??$_Verify_range@M@std@@YAXQEBM0@Z
   A46BB6 ??$_Verify_range@V?$Matrix1D@M@relion@@@std@@YAXQEBV?$Matrix1D@M@relion@@0@Z
   A46BB6 ??$addressof@$$CBV?$vector@HV?$allocator@H@std@@@std@@@std@@YAPEBV?$vector@HV?$allocator@H@std@@@0@AEBV10@@Z
   A46BB6 ??$addressof@$$CBV?$vector@MV?$allocator@M@std@@@std@@@std@@YAPEBV?$vector@MV?$allocator@M@std@@@0@AEBV10@@Z
   A46BB6 ??$addressof@$$CBV?$vector@V?$Matrix1D@M@relion@@V?$allocator@V?$Matrix1D@M@relion@@@std@@@std@@@std@@YAPEBV?$vector@V?$Matrix1D@M@relion@@V?$allocator@V?$Matrix1D@M@relion@@@std@@@0@AEBV10@@Z
   A46BB6 ??$addressof@V?$_Vector_val@U?$_Simple_types@M@std@@@std@@@std@@YAPEAV?$_Vector_val@U?$_Simple_types@M@std@@@0@AEAV10@@Z
   A46BB6 ??$addressof@V?$_Vector_val@U?$_Simple_types@V?$Matrix1D@M@relion@@@std@@@std@@@std@@YAPEAV?$_Vector_val@U?$_Simple_types@V?$Matrix1D@M@relion@@@std@@@0@AEAV10@@Z
   A46BB6 ??$advance@PEAH_J@std@@YAXAEAPEAH_J@Z
   A46BB6 ??$advance@PEAM_J@std@@YAXAEAPEAM_J@Z
   A46BB6 ??$advance@PEAV?$Matrix1D@M@relion@@_J@std@@YAXAEAPEAV?$Matrix1D@M@relion@@_J@Z
   A46BB6 ??$assign@PEAHX@?$vector@HV?$allocator@H@std@@@std@@QEAAXPEAH0@Z
   A46BB6 ??$assign@PEAMX@?$vector@MV?$allocator@M@std@@@std@@QEAAXPEAM0@Z
   A46BB6 ??$assign@PEAV?$Matrix1D@M@relion@@X@?$vector@V?$Matrix1D@M@relion@@V?$allocator@V?$Matrix1D@M@relion@@@std@@@std@@QEAAXPEAV?$Matrix1D@M@relion@@0@Z
   A46BB6 ??$construct@HH@?$_Default_allocator_traits@V?$allocator@H@std@@@std@@SAXAEAV?$allocator@H@1@QEAH$$QEAH@Z
   A46BB6 ??$construct@MAEBM@?$_Default_allocator_traits@V?$allocator@M@std@@@std@@SAXAEAV?$allocator@M@1@QEAMAEBM@Z
   A46BB6 ??$construct@MM@?$_Default_allocator_traits@V?$allocator@M@std@@@std@@SAXAEAV?$allocator@M@1@QEAM$$QEAM@Z
   A46BB6 ??$construct@V?$Matrix1D@M@relion@@AEAV12@@?$_Default_allocator_traits@V?$allocator@V?$Matrix1D@M@relion@@@std@@@std@@SAXAEAV?$allocator@V?$Matrix1D@M@relion@@@1@QEAV?$Matrix1D@M@relion@@AEAV34@@Z
   A46BB6 ??$construct@V?$Matrix1D@M@relion@@AEBV12@@?$_Default_allocator_traits@V?$allocator@V?$Matrix1D@M@relion@@@std@@@std@@SAXAEAV?$allocator@V?$Matrix1D@M@relion@@@1@QEAV?$Matrix1D@M@relion@@AEBV34@@Z
   A46BB6 ??$construct@V?$Matrix1D@M@relion@@V12@@?$_Default_allocator_traits@V?$allocator@V?$Matrix1D@M@relion@@@std@@@std@@SAXAEAV?$allocator@V?$Matrix1D@M@relion@@@1@QEAV?$Matrix1D@M@relion@@$$QEAV34@@Z
   A46BB6 ??$construct@V?$Matrix2D@M@relion@@AEAV12@@?$_Default_allocator_traits@V?$allocator@V?$Matrix2D@M@relion@@@std@@@std@@SAXAEAV?$allocator@V?$Matrix2D@M@relion@@@1@QEAV?$Matrix2D@M@relion@@AEAV34@@Z
   A46BB6 ??$construct@V?$Matrix2D@M@relion@@AEBV12@@?$_Default_allocator_traits@V?$allocator@V?$Matrix2D@M@relion@@@std@@@std@@SAXAEAV?$allocator@V?$Matrix2D@M@relion@@@1@QEAV?$Matrix2D@M@relion@@AEBV34@@Z
   A46BB6 ??$construct@V?$Matrix2D@M@relion@@V12@@?$_Default_allocator_traits@V?$allocator@V?$Matrix2D@M@relion@@@std@@@std@@SAXAEAV?$allocator@V?$Matrix2D@M@relion@@@1@QEAV?$Matrix2D@M@relion@@$$QEAV34@@Z
   A46BB6 ??$destroy@V?$Matrix1D@M@relion@@@?$_Default_allocator_traits@V?$allocator@V?$Matrix1D@M@relion@@@std@@@std@@SAXAEAV?$allocator@V?$Matrix1D@M@relion@@@1@QEAV?$Matrix1D@M@relion@@@Z
   A46BB6 ??$destroy@V?$Matrix2D@M@relion@@@?$_Default_allocator_traits@V?$allocator@V?$Matrix2D@M@relion@@@std@@@std@@SAXAEAV?$allocator@V?$Matrix2D@M@relion@@@1@QEAV?$Matrix2D@M@relion@@@Z
   A46BB6 ??$distance@PEAH@std@@YA_JPEAH0@Z
   A46BB6 ??$distance@PEAM@std@@YA_JPEAM0@Z
   A46BB6 ??$distance@PEAV?$Matrix1D@M@relion@@@std@@YA_JPEAV?$Matrix1D@M@relion@@0@Z
   A46BB6 ??$dotProduct@M@relion@@YAMAEBV?$Matrix1D@M@0@0@Z
   A46BB6 ??$emplace_back@AEBM@?$vector@MV?$allocator@M@std@@@std@@QEAA@AEBM@Z
   A46BB6 ??$emplace_back@AEBV?$Matrix1D@M@relion@@@?$vector@V?$Matrix1D@M@relion@@V?$allocator@V?$Matrix1D@M@relion@@@std@@@std@@QEAA@AEBV?$Matrix1D@M@relion@@@Z
   A46BB6 ??$emplace_back@AEBV?$Matrix2D@M@relion@@@?$vector@V?$Matrix2D@M@relion@@V?$allocator@V?$Matrix2D@M@relion@@@std@@@std@@QEAA@AEBV?$Matrix2D@M@relion@@@Z
   A46BB6 ??$emplace_back@H@?$vector@HV?$allocator@H@std@@@std@@QEAA@$$QEAH@Z
   A46BB6 ??$emplace_back@M@?$vector@MV?$allocator@M@std@@@std@@QEAA@$$QEAM@Z
   A46BB6 ??$forward@AEAV?$Matrix1D@M@relion@@@std@@YAAEAV?$Matrix1D@M@relion@@AEAV12@@Z
   A46BB6 ??$forward@AEAV?$Matrix2D@M@relion@@@std@@YAAEAV?$Matrix2D@M@relion@@AEAV12@@Z
   A46BB6 ??$forward@AEBM@std@@YAAEBMAEBM@Z
   A46BB6 ??$forward@AEBV?$Matrix1D@M@relion@@@std@@YAAEBV?$Matrix1D@M@relion@@AEBV12@@Z
   A46BB6 ??$forward@AEBV?$Matrix2D@M@relion@@@std@@YAAEBV?$Matrix2D@M@relion@@AEBV12@@Z
   A46BB6 ??$forward@M@std@@YA$$QEAMAEAM@Z
   A46BB6 ??$forward@V?$Matrix1D@M@relion@@@std@@YA$$QEAV?$Matrix1D@M@relion@@AEAV12@@Z
   A46BB6 ??$forward@V?$Matrix2D@M@relion@@@std@@YA$$QEAV?$Matrix2D@M@relion@@AEAV12@@Z
   A46BB6 ??$move@AEAH@std@@YA$$QEAHAEAH@Z
   A46BB6 ??$move@AEAM@std@@YA$$QEAMAEAM@Z
   A46BB6 ??$move@AEAV?$Matrix1D@M@relion@@@std@@YA$$QEAV?$Matrix1D@M@relion@@AEAV12@@Z
   A46BB6 ??$move@AEAV?$Matrix2D@M@relion@@@std@@YA$$QEAV?$Matrix2D@M@relion@@AEAV12@@Z
   A46BB6 ??$next@PEAH@std@@YAPEAHPEAH_J@Z
   A46BB6 ??$next@PEAM@std@@YAPEAMPEAM_J@Z
   A46BB6 ??$next@PEAV?$Matrix1D@M@relion@@@std@@YAPEAV?$Matrix1D@M@relion@@PEAV12@_J@Z
   A46BB6 ??$sameShape@M@?$Matrix1D@M@relion@@QEBA_NAEBV01@@Z
   A46BB6 ??0?$_Uninitialized_backout_al@PEAV?$Matrix1D@M@relion@@V?$allocator@V?$Matrix1D@M@relion@@@std@@@std@@QEAA@PEAV?$Matrix1D@M@relion@@AEAV?$allocator@V?$Matrix1D@M@relion@@@1@@Z
   A46BB6 ??0?$_Uninitialized_backout_al@PEAV?$Matrix2D@M@relion@@V?$allocator@V?$Matrix2D@M@relion@@@std@@@std@@QEAA@PEAV?$Matrix2D@M@relion@@AEAV?$allocator@V?$Matrix2D@M@relion@@@1@@Z
   A46BB6 ??0?$_Vector_alloc@U?$_Vec_base_types@MV?$allocator@M@std@@@std@@@std@@QEAA@XZ
   A46BB6 ??0?$_Vector_alloc@U?$_Vec_base_types@V?$Matrix1D@M@relion@@V?$allocator@V?$Matrix1D@M@relion@@@std@@@std@@@std@@QEAA@XZ
   A46BB6 ??0?$_Vector_val@U?$_Simple_types@M@std@@@std@@QEAA@XZ
   A46BB6 ??0?$_Vector_val@U?$_Simple_types@V?$Matrix1D@M@relion@@@std@@@std@@QEAA@XZ
   A46BB6 ??0?$allocator@M@std@@QEAA@XZ
   A46BB6 ??0?$allocator@V?$Matrix1D@M@relion@@@std@@QEAA@XZ
   A46BB6 ??0?$vector@MV?$allocator@M@std@@@std@@QEAA@XZ
   A46BB6 ??0?$vector@V?$Matrix1D@M@relion@@V?$allocator@V?$Matrix1D@M@relion@@@std@@@std@@QEAA@XZ
   A46BB6 ??0FileName@relion@@QEAA@PEBD@Z
   A46BB6 ??0Healpix_Base@@QEAA@HW4Healpix_Ordering_Scheme@@@Z
   A46BB6 ??0Message_error@@QEAA@AEBV0@@Z
   A46BB6 ??0Message_error@@QEAA@AEBV?$basic_string@DU?$char_traits@D@std@@V?$allocator@D@2@@std@@@Z
   A46BB6 ??1?$_Uninitialized_backout_al@PEAV?$Matrix1D@M@relion@@V?$allocator@V?$Matrix1D@M@relion@@@std@@@std@@QEAA@XZ
   A46BB6 ??1?$_Uninitialized_backout_al@PEAV?$Matrix2D@M@relion@@V?$allocator@V?$Matrix2D@M@relion@@@std@@@std@@QEAA@XZ
   A46BB6 ??1?$_Vector_alloc@U?$_Vec_base_types@MV?$allocator@M@std@@@std@@@std@@QEAA@XZ
   A46BB6 ??1?$_Vector_alloc@U?$_Vec_base_types@V?$Matrix1D@M@relion@@V?$allocator@V?$Matrix1D@M@relion@@@std@@@std@@@std@@QEAA@XZ
   A46BB6 ??1?$vector@MV?$allocator@M@std@@@std@@QEAA@XZ
   A46BB6 ??1?$vector@V?$Matrix1D@M@relion@@V?$allocator@V?$Matrix1D@M@relion@@@std@@@std@@QEAA@XZ
   A46BB6 ??1Message_error@@UEAA@XZ
   A46BB6 ??4?$vector@HV?$allocator@H@std@@@std@@QEAAAEAV01@AEBV01@@Z
   A46BB6 ??4?$vector@MV?$allocator@M@std@@@std@@QEAAAEAV01@AEBV01@@Z
   A46BB6 ??4?$vector@V?$Matrix1D@M@relion@@V?$allocator@V?$Matrix1D@M@relion@@@std@@@std@@QEAAAEAV01@AEBV01@@Z
   A46BB6 ??A?$vector@MV?$allocator@M@std@@@std@@QEAAAEAM_K@Z
   A46BB6 ??A?$vector@V?$Matrix1D@M@relion@@V?$allocator@V?$Matrix1D@M@relion@@@std@@@std@@QEAAAEAV?$Matrix1D@M@relion@@_K@Z
   A46BB6 ??A?$vector@V?$Matrix2D@M@relion@@V?$allocator@V?$Matrix2D@M@relion@@@std@@@std@@QEAAAEAV?$Matrix2D@M@relion@@_K@Z
   A46BB6 ??D?$Matrix1D@M@relion@@QEAA?AV01@AEBV?$Matrix2D@M@1@@Z
   A46BB6 ??D?$Matrix2D@M@relion@@QEBA?AV?$Matrix1D@M@1@AEBV21@@Z
   A46BB6 ??_7Message_error@@6B@
   A46BB6 ??_C@_02LEDPBCMG@C1@
   A46BB6 ??_C@_03MPGGEOOP@?50?5@
   A46BB6 ??_C@_07MIKLFOIA@?4color?5@
   A46BB6 ??_C@_08DCKJMEEM@?4sphere?5@
   A46BB6 ??_C@_09IEICDNDF@bad?5order@
   A46BB6 ??_C@_0BA@IHENALBF@?5offset_range?$DN?5@
   A46BB6 ??_C@_0BA@PMDKDJMH@?5sigma_cutoff?$DN?5@
   A46BB6 ??_C@_0BD@CAENFOHP@Assertion?5failed?3?5@
   A46BB6 ??_C@_0BE@CNACMICB@Vector?5is?5not?5a?5row@
   A46BB6 ??_C@_0BE@HBLPEGHJ@?5psi_angles?$FLipsi?$FN?$DN?5@
   A46BB6 ??_C@_0BG@NNMAOGLF@prior?5on?5psi?5is?5zero?$CB@
   A46BB6 ??_C@_0BH@OFKLGPIN@Vector?5is?5not?5a?5column@
   A46BB6 ??_C@_0BK@KKJMKEF@?4arrow?50?50?50?50?50?51?50?401?5?6@
   A46BB6 ??_C@_0BK@MAEEAHID@?4arrow?50?50?50?51?50?50?50?401?5?6@
   A46BB6 ??_C@_0BL@LLLDFPJG@?4arrow?50?50?50?5?50?51?50?50?401?5?6@
   A46BB6 ??_C@_0BM@LHENHOBG@?5orientational_prior_mode?$DN?5@
   A46BB6 ??_C@_0CH@GKKBMOJP@ERROR?3?5pg_I5H?5Symmetry?5not?5impl@
   A46BB6 ??_C@_0CJ@CDMDFAMK@Not?5compatible?5sizes?5in?5matrix?5@
   A46BB6 ??_C@_0CN@MBJDFFBE@d?3?2software?2liblion?2src?2healpix@
   A46BB6 ??_C@_0DA@EKBBOPE@Dot?5product?3?5vectors?5of?5differe@
   A46BB6 ??_C@_0DL@MJCGIPNL@getRow?3?5Matrix?5subscript?5?$CIi?$CJ?5gr@
   A46BB6 ??_C@_0EB@EGOOMLGP@HealpixSampling?3?3writeAllOrient@
   A46BB6 ??_C@_0EF@DFCEGCCC@HealpixSampling?3?3writeNonZeroOr@
   A46BB6 ??_C@_0EG@LLIAGMHK@HealpixSampling?3?3writeBildFileO@
   A46BB6 ??_C@_0FC@LMLBMKLG@HealpixSampling?3?3selectOrientat@
   A46BB6 ??_C@_0FC@OOPPMELP@HealpixSampling?3?3selectOrientat@
   A46BB6 ??_C@_0FD@MIMINKGN@HealpixSampling?3?3initialise?3?5ra@
   A46BB6 ??_C@_0GD@EAMNOKJB@HealpixSampling?3?3setTranslation@
   A46BB6 ??_C@_0GD@MGBCBNEN@HealpixSampling?3?3writeBildFileO@
   A46BB6 ??_C@_0L@CPGNLMPH@?4cylinder?5@
   A46BB6 ??_C@_0L@IOIDPPOE@?5diffpsi?$DN?5@
   A46BB6 ??_C@_0N@BOHIILAE@?5prior_psi?$DN?5@
   A46BB6 ??_C@_0N@CGDKDEIG@?5sigma_psi?$DN?5@
   A46BB6 ??_C@_0P@HLHEPPAG@?4color?51?50?50?5?6@
   A46BB6 ??_C@_0P@HMICCMDN@?4color?50?51?50?5?6@
   A46BB6 ??_C@_0P@KMHHDCOG@?5offset_step?$DN?5@
   A46BB6 ??_C@_0P@LHNOPPJI@?4color?50?50?50?5?6@
   A46BB6 ??_C@_0P@PGCJIPN@?4color?50?50?51?5?6@
   A46BB6 ??_C@_1HK@EJDBECKJ@?$AAs?$AAt?$AAd?$AA?3?$AA?3?$AAv?$AAe?$AAc?$AAt?$AAo?$AAr?$AA?$DM?$AAf?$AAl?$AAo@
   A46BB6 ??_C@_1NM@CKNGMOIF@?$AAs?$AAt?$AAd?$AA?3?$AA?3?$AAv?$AAe?$AAc?$AAt?$AAo?$AAr?$AA?$DM?$AAc?$AAl?$AAa@
   A46BB6 ??_C@_1NM@PNOGGJD@?$AAs?$AAt?$AAd?$AA?3?$AA?3?$AAv?$AAe?$AAc?$AAt?$AAo?$AAr?$AA?$DM?$AAc?$AAl?$AAa@
   A46BB6 ??_G?$Matrix1D@M@relion@@QEAAPEAXI@Z
   A46BB6 ??_G?$Matrix2D@M@relion@@QEAAPEAXI@Z
   A46BB6 ??_GMessage_error@@UEAAPEAXI@Z
   A46BB6 ??_R0?AVMessage_error@@@8
   A46BB6 ??_R1A@?0A@EA@Message_error@@8
   A46BB6 ??_R2Message_error@@8
   A46BB6 ??_R3Message_error@@8
   A46BB6 ??_R4Message_error@@6B@
   A46BB6 ?Npix@Healpix_Base@@QEBAHXZ
   A46BB6 ?NrDirections@HealpixSampling@relion@@QEAAJHPEBV?$vector@HV?$allocator@H@std@@@std@@@Z
   A46BB6 ?NrPsiSamplings@HealpixSampling@relion@@QEAAJHPEBV?$vector@HV?$allocator@H@std@@@std@@@Z
   A46BB6 ?NrSamplingPoints@HealpixSampling@relion@@QEAAJHPEBV?$vector@HV?$allocator@H@std@@@std@@0@Z
   A46BB6 ?NrTranslationalSamplings@HealpixSampling@relion@@QEAAJH@Z
   A46BB6 ?Nside@Healpix_Base@@QEBAHXZ
   A46BB6 ?Set@Healpix_Base@@QEAAXHW4Healpix_Ordering_Scheme@@@Z
   A46BB6 ?_Alloc_proxy@?$_Vector_alloc@U?$_Vec_base_types@MV?$allocator@M@std@@@std@@@std@@QEAAXXZ
   A46BB6 ?_Alloc_proxy@?$_Vector_alloc@U?$_Vec_base_types@V?$Matrix1D@M@relion@@V?$allocator@V?$Matrix1D@M@relion@@@std@@@std@@@std@@QEAAXXZ
   A46BB6 ?_Buy@?$vector@HV?$allocator@H@std@@@std@@AEAA_N_K@Z
   A46BB6 ?_Buy@?$vector@MV?$allocator@M@std@@@std@@AEAA_N_K@Z
   A46BB6 ?_Buy@?$vector@V?$Matrix1D@M@relion@@V?$allocator@V?$Matrix1D@M@relion@@@std@@@std@@AEAA_N_K@Z
   A46BB6 ?_Calculate_growth@?$vector@MV?$allocator@M@std@@@std@@AEBA_K_K@Z
   A46BB6 ?_Calculate_growth@?$vector@V?$Matrix1D@M@relion@@V?$allocator@V?$Matrix1D@M@relion@@@std@@@std@@AEBA_K_K@Z
   A46BB6 ?_Calculate_growth@?$vector@V?$Matrix2D@M@relion@@V?$allocator@V?$Matrix2D@M@relion@@@std@@@std@@AEBA_K_K@Z
   A46BB6 ?_Change_array@?$vector@MV?$allocator@M@std@@@std@@AEAAXQEAM_K1@Z
   A46BB6 ?_Change_array@?$vector@V?$Matrix1D@M@relion@@V?$allocator@V?$Matrix1D@M@relion@@@std@@@std@@AEAAXQEAV?$Matrix1D@M@relion@@_K1@Z
   A46BB6 ?_Change_array@?$vector@V?$Matrix2D@M@relion@@V?$allocator@V?$Matrix2D@M@relion@@@std@@@std@@AEAAXQEAV?$Matrix2D@M@relion@@_K1@Z
   A46BB6 ?_Copy_alloc@?$_Vector_alloc@U?$_Vec_base_types@HV?$allocator@H@std@@@std@@@std@@QEAAXAEBV?$allocator@H@2@@Z
   A46BB6 ?_Copy_alloc@?$_Vector_alloc@U?$_Vec_base_types@MV?$allocator@M@std@@@std@@@std@@QEAAXAEBV?$allocator@M@2@@Z
   A46BB6 ?_Copy_alloc@?$_Vector_alloc@U?$_Vec_base_types@V?$Matrix1D@M@relion@@V?$allocator@V?$Matrix1D@M@relion@@@std@@@std@@@std@@QEAAXAEBV?$allocator@V?$Matrix1D@M@relion@@@2@@Z
   A46BB6 ?_Destroy@?$vector@MV?$allocator@M@std@@@std@@AEAAXPEAM0@Z
   A46BB6 ?_Destroy@?$vector@V?$Matrix1D@M@relion@@V?$allocator@V?$Matrix1D@M@relion@@@std@@@std@@AEAAXPEAV?$Matrix1D@M@relion@@0@Z
   A46BB6 ?_Destroy@?$vector@V?$Matrix2D@M@relion@@V?$allocator@V?$Matrix2D@M@relion@@@std@@@std@@AEAAXPEAV?$Matrix2D@M@relion@@0@Z
   A46BB6 ?_Free_proxy@?$_Vector_alloc@U?$_Vec_base_types@MV?$allocator@M@std@@@std@@@std@@QEAAXXZ
   A46BB6 ?_Free_proxy@?$_Vector_alloc@U?$_Vec_base_types@V?$Matrix1D@M@relion@@V?$allocator@V?$Matrix1D@M@relion@@@std@@@std@@@std@@QEAAXXZ
   A46BB6 ?_Get_data@?$_Vector_alloc@U?$_Vec_base_types@MV?$allocator@M@std@@@std@@@std@@QEAAAEAV?$_Vector_val@U?$_Simple_types@M@std@@@2@XZ
   A46BB6 ?_Get_data@?$_Vector_alloc@U?$_Vec_base_types@MV?$allocator@M@std@@@std@@@std@@QEBAAEBV?$_Vector_val@U?$_Simple_types@M@std@@@2@XZ
   A46BB6 ?_Get_data@?$_Vector_alloc@U?$_Vec_base_types@V?$Matrix1D@M@relion@@V?$allocator@V?$Matrix1D@M@relion@@@std@@@std@@@std@@QEAAAEAV?$_Vector_val@U?$_Simple_types@V?$Matrix1D@M@relion@@@std@@@2@XZ
   A46BB6 ?_Get_data@?$_Vector_alloc@U?$_Vec_base_types@V?$Matrix1D@M@relion@@V?$allocator@V?$Matrix1D@M@relion@@@std@@@std@@@std@@QEBAAEBV?$_Vector_val@U?$_Simple_types@V?$Matrix1D@M@relion@@@std@@@2@XZ
   A46BB6 ?_Get_data@?$_Vector_alloc@U?$_Vec_base_types@V?$Matrix2D@M@relion@@V?$allocator@V?$Matrix2D@M@relion@@@std@@@std@@@std@@QEAAAEAV?$_Vector_val@U?$_Simple_types@V?$Matrix2D@M@relion@@@std@@@2@XZ
   A46BB6 ?_Get_data@?$_Vector_alloc@U?$_Vec_base_types@V?$Matrix2D@M@relion@@V?$allocator@V?$Matrix2D@M@relion@@@std@@@std@@@std@@QEBAAEBV?$_Vector_val@U?$_Simple_types@V?$Matrix2D@M@relion@@@std@@@2@XZ
   A46BB6 ?_Get_first@?$_Compressed_pair@V?$allocator@M@std@@V?$_Vector_val@U?$_Simple_types@M@std@@@2@$00@std@@QEAAAEAV?$allocator@M@2@XZ
   A46BB6 ?_Get_first@?$_Compressed_pair@V?$allocator@M@std@@V?$_Vector_val@U?$_Simple_types@M@std@@@2@$00@std@@QEBAAEBV?$allocator@M@2@XZ
   A46BB6 ?_Get_first@?$_Compressed_pair@V?$allocator@V?$Matrix1D@M@relion@@@std@@V?$_Vector_val@U?$_Simple_types@V?$Matrix1D@M@relion@@@std@@@2@$00@std@@QEAAAEAV?$allocator@V?$Matrix1D@M@relion@@@2@XZ
   A46BB6 ?_Get_first@?$_Compressed_pair@V?$allocator@V?$Matrix1D@M@relion@@@std@@V?$_Vector_val@U?$_Simple_types@V?$Matrix1D@M@relion@@@std@@@2@$00@std@@QEBAAEBV?$allocator@V?$Matrix1D@M@relion@@@2@XZ
   A46BB6 ?_Get_first@?$_Compressed_pair@V?$allocator@V?$Matrix2D@M@relion@@@std@@V?$_Vector_val@U?$_Simple_types@V?$Matrix2D@M@relion@@@std@@@2@$00@std@@QEAAAEAV?$allocator@V?$Matrix2D@M@relion@@@2@XZ
   A46BB6 ?_Get_first@?$_Compressed_pair@V?$allocator@V?$Matrix2D@M@relion@@@std@@V?$_Vector_val@U?$_Simple_types@V?$Matrix2D@M@relion@@@std@@@2@$00@std@@QEBAAEBV?$allocator@V?$Matrix2D@M@relion@@@2@XZ
   A46BB6 ?_Get_second@?$_Compressed_pair@V?$allocator@M@std@@V?$_Vector_val@U?$_Simple_types@M@std@@@2@$00@std@@QEAAAEAV?$_Vector_val@U?$_Simple_types@M@std@@@2@XZ
   A46BB6 ?_Get_second@?$_Compressed_pair@V?$allocator@M@std@@V?$_Vector_val@U?$_Simple_types@M@std@@@2@$00@std@@QEBAAEBV?$_Vector_val@U?$_Simple_types@M@std@@@2@XZ
   A46BB6 ?_Get_second@?$_Compressed_pair@V?$allocator@V?$Matrix1D@M@relion@@@std@@V?$_Vector_val@U?$_Simple_types@V?$Matrix1D@M@relion@@@std@@@2@$00@std@@QEAAAEAV?$_Vector_val@U?$_Simple_types@V?$Matrix1D@M@relion@@@std@@@2@XZ
   A46BB6 ?_Get_second@?$_Compressed_pair@V?$allocator@V?$Matrix1D@M@relion@@@std@@V?$_Vector_val@U?$_Simple_types@V?$Matrix1D@M@relion@@@std@@@2@$00@std@@QEBAAEBV?$_Vector_val@U?$_Simple_types@V?$Matrix1D@M@relion@@@std@@@2@XZ
   A46BB6 ?_Get_second@?$_Compressed_pair@V?$allocator@V?$Matrix2D@M@relion@@@std@@V?$_Vector_val@U?$_Simple_types@V?$Matrix2D@M@relion@@@std@@@2@$00@std@@QEAAAEAV?$_Vector_val@U?$_Simple_types@V?$Matrix2D@M@relion@@@std@@@2@XZ
   A46BB6 ?_Get_second@?$_Compressed_pair@V?$allocator@V?$Matrix2D@M@relion@@@std@@V?$_Vector_val@U?$_Simple_types@V?$Matrix2D@M@relion@@@std@@@2@$00@std@@QEBAAEBV?$_Vector_val@U?$_Simple_types@V?$Matrix2D@M@relion@@@std@@@2@XZ
   A46BB6 ?_Getal@?$_Vector_alloc@U?$_Vec_base_types@MV?$allocator@M@std@@@std@@@std@@QEAAAEAV?$allocator@M@2@XZ
   A46BB6 ?_Getal@?$_Vector_alloc@U?$_Vec_base_types@MV?$allocator@M@std@@@std@@@std@@QEBAAEBV?$allocator@M@2@XZ
   A46BB6 ?_Getal@?$_Vector_alloc@U?$_Vec_base_types@V?$Matrix1D@M@relion@@V?$allocator@V?$Matrix1D@M@relion@@@std@@@std@@@std@@QEAAAEAV?$allocator@V?$Matrix1D@M@relion@@@2@XZ
   A46BB6 ?_Getal@?$_Vector_alloc@U?$_Vec_base_types@V?$Matrix1D@M@relion@@V?$allocator@V?$Matrix1D@M@relion@@@std@@@std@@@std@@QEBAAEBV?$allocator@V?$Matrix1D@M@relion@@@2@XZ
   A46BB6 ?_Getal@?$_Vector_alloc@U?$_Vec_base_types@V?$Matrix2D@M@relion@@V?$allocator@V?$Matrix2D@M@relion@@@std@@@std@@@std@@QEAAAEAV?$allocator@V?$Matrix2D@M@relion@@@2@XZ
   A46BB6 ?_Getal@?$_Vector_alloc@U?$_Vec_base_types@V?$Matrix2D@M@relion@@V?$allocator@V?$Matrix2D@M@relion@@@std@@@std@@@std@@QEBAAEBV?$allocator@V?$Matrix2D@M@relion@@@2@XZ
   A46BB6 ?_Getpfirst@?$_Vector_alloc@U?$_Vec_base_types@MV?$allocator@M@std@@@std@@@std@@QEBAPEAPEAU_Iterator_base12@2@XZ
   A46BB6 ?_Getpfirst@?$_Vector_alloc@U?$_Vec_base_types@V?$Matrix1D@M@relion@@V?$allocator@V?$Matrix1D@M@relion@@@std@@@std@@@std@@QEBAPEAPEAU_Iterator_base12@2@XZ
   A46BB6 ?_Getpfirst@?$_Vector_alloc@U?$_Vec_base_types@V?$Matrix2D@M@relion@@V?$allocator@V?$Matrix2D@M@relion@@@std@@@std@@@std@@QEBAPEAPEAU_Iterator_base12@2@XZ
   A46BB6 ?_Has_unused_capacity@?$vector@MV?$allocator@M@std@@@std@@AEBA_NXZ
   A46BB6 ?_Has_unused_capacity@?$vector@V?$Matrix1D@M@relion@@V?$allocator@V?$Matrix1D@M@relion@@@std@@@std@@AEBA_NXZ
   A46BB6 ?_Has_unused_capacity@?$vector@V?$Matrix2D@M@relion@@V?$allocator@V?$Matrix2D@M@relion@@@std@@@std@@AEBA_NXZ
   A46BB6 ?_Myend@?$_Vector_alloc@U?$_Vec_base_types@MV?$allocator@M@std@@@std@@@std@@QEAAAEAPEAMXZ
   A46BB6 ?_Myend@?$_Vector_alloc@U?$_Vec_base_types@MV?$allocator@M@std@@@std@@@std@@QEBAAEBQEAMXZ
   A46BB6 ?_Myend@?$_Vector_alloc@U?$_Vec_base_types@V?$Matrix1D@M@relion@@V?$allocator@V?$Matrix1D@M@relion@@@std@@@std@@@std@@QEAAAEAPEAV?$Matrix1D@M@relion@@XZ
   A46BB6 ?_Myend@?$_Vector_alloc@U?$_Vec_base_types@V?$Matrix1D@M@relion@@V?$allocator@V?$Matrix1D@M@relion@@@std@@@std@@@std@@QEBAAEBQEAV?$Matrix1D@M@relion@@XZ
   A46BB6 ?_Myend@?$_Vector_alloc@U?$_Vec_base_types@V?$Matrix2D@M@relion@@V?$allocator@V?$Matrix2D@M@relion@@@std@@@std@@@std@@QEAAAEAPEAV?$Matrix2D@M@relion@@XZ
   A46BB6 ?_Myend@?$_Vector_alloc@U?$_Vec_base_types@V?$Matrix2D@M@relion@@V?$allocator@V?$Matrix2D@M@relion@@@std@@@std@@@std@@QEBAAEBQEAV?$Matrix2D@M@relion@@XZ
   A46BB6 ?_Myfirst@?$_Vector_alloc@U?$_Vec_base_types@MV?$allocator@M@std@@@std@@@std@@QEAAAEAPEAMXZ
   A46BB6 ?_Myfirst@?$_Vector_alloc@U?$_Vec_base_types@MV?$allocator@M@std@@@std@@@std@@QEBAAEBQEAMXZ
   A46BB6 ?_Myfirst@?$_Vector_alloc@U?$_Vec_base_types@V?$Matrix1D@M@relion@@V?$allocator@V?$Matrix1D@M@relion@@@std@@@std@@@std@@QEAAAEAPEAV?$Matrix1D@M@relion@@XZ
   A46BB6 ?_Myfirst@?$_Vector_alloc@U?$_Vec_base_types@V?$Matrix1D@M@relion@@V?$allocator@V?$Matrix1D@M@relion@@@std@@@std@@@std@@QEBAAEBQEAV?$Matrix1D@M@relion@@XZ
   A46BB6 ?_Myfirst@?$_Vector_alloc@U?$_Vec_base_types@V?$Matrix2D@M@relion@@V?$allocator@V?$Matrix2D@M@relion@@@std@@@std@@@std@@QEAAAEAPEAV?$Matrix2D@M@relion@@XZ
   A46BB6 ?_Myfirst@?$_Vector_alloc@U?$_Vec_base_types@V?$Matrix2D@M@relion@@V?$allocator@V?$Matrix2D@M@relion@@@std@@@std@@@std@@QEBAAEBQEAV?$Matrix2D@M@relion@@XZ
   A46BB6 ?_Mylast@?$_Vector_alloc@U?$_Vec_base_types@MV?$allocator@M@std@@@std@@@std@@QEAAAEAPEAMXZ
   A46BB6 ?_Mylast@?$_Vector_alloc@U?$_Vec_base_types@MV?$allocator@M@std@@@std@@@std@@QEBAAEBQEAMXZ
   A46BB6 ?_Mylast@?$_Vector_alloc@U?$_Vec_base_types@V?$Matrix1D@M@relion@@V?$allocator@V?$Matrix1D@M@relion@@@std@@@std@@@std@@QEAAAEAPEAV?$Matrix1D@M@relion@@XZ
   A46BB6 ?_Mylast@?$_Vector_alloc@U?$_Vec_base_types@V?$Matrix1D@M@relion@@V?$allocator@V?$Matrix1D@M@relion@@@std@@@std@@@std@@QEBAAEBQEAV?$Matrix1D@M@relion@@XZ
   A46BB6 ?_Mylast@?$_Vector_alloc@U?$_Vec_base_types@V?$Matrix2D@M@relion@@V?$allocator@V?$Matrix2D@M@relion@@@std@@@std@@@std@@QEAAAEAPEAV?$Matrix2D@M@relion@@XZ
   A46BB6 ?_Mylast@?$_Vector_alloc@U?$_Vec_base_types@V?$Matrix2D@M@relion@@V?$allocator@V?$Matrix2D@M@relion@@@std@@@std@@@std@@QEBAAEBQEAV?$Matrix2D@M@relion@@XZ
   A46BB6 ?_Myproxy@?$_Vector_alloc@U?$_Vec_base_types@MV?$allocator@M@std@@@std@@@std@@QEAAAEAPEAU_Container_proxy@2@XZ
   A46BB6 ?_Myproxy@?$_Vector_alloc@U?$_Vec_base_types@V?$Matrix1D@M@relion@@V?$allocator@V?$Matrix1D@M@relion@@@std@@@std@@@std@@QEAAAEAPEAU_Container_proxy@2@XZ
   A46BB6 ?_Orphan_all@?$_Vector_alloc@U?$_Vec_base_types@MV?$allocator@M@std@@@std@@@std@@QEAAXXZ
   A46BB6 ?_Orphan_all@?$_Vector_alloc@U?$_Vec_base_types@V?$Matrix1D@M@relion@@V?$allocator@V?$Matrix1D@M@relion@@@std@@@std@@@std@@QEAAXXZ
   A46BB6 ?_Orphan_all@?$_Vector_alloc@U?$_Vec_base_types@V?$Matrix2D@M@relion@@V?$allocator@V?$Matrix2D@M@relion@@@std@@@std@@@std@@QEAAXXZ
   A46BB6 ?_Orphan_range@?$vector@MV?$allocator@M@std@@@std@@AEBAXPEAM0@Z
   A46BB6 ?_Orphan_range@?$vector@V?$Matrix1D@M@relion@@V?$allocator@V?$Matrix1D@M@relion@@@std@@@std@@AEBAXPEAV?$Matrix1D@M@relion@@0@Z
   A46BB6 ?_Orphan_range@?$vector@V?$Matrix2D@M@relion@@V?$allocator@V?$Matrix2D@M@relion@@@std@@@std@@AEBAXPEAV?$Matrix2D@M@relion@@0@Z
   A46BB6 ?_Release@?$_Uninitialized_backout_al@PEAV?$Matrix1D@M@relion@@V?$allocator@V?$Matrix1D@M@relion@@@std@@@std@@QEAAPEAV?$Matrix1D@M@relion@@XZ
   A46BB6 ?_Release@?$_Uninitialized_backout_al@PEAV?$Matrix2D@M@relion@@V?$allocator@V?$Matrix2D@M@relion@@@std@@@std@@QEAAPEAV?$Matrix2D@M@relion@@XZ
   A46BB6 ?_Tidy@?$vector@MV?$allocator@M@std@@@std@@AEAAXXZ
   A46BB6 ?_Tidy@?$vector@V?$Matrix1D@M@relion@@V?$allocator@V?$Matrix1D@M@relion@@@std@@@std@@AEAAXXZ
   A46BB6 ?_Umove@?$vector@MV?$allocator@M@std@@@std@@AEAAPEAMPEAM00@Z
   A46BB6 ?_Umove@?$vector@V?$Matrix1D@M@relion@@V?$allocator@V?$Matrix1D@M@relion@@@std@@@std@@AEAAPEAV?$Matrix1D@M@relion@@PEAV34@00@Z
   A46BB6 ?_Umove@?$vector@V?$Matrix2D@M@relion@@V?$allocator@V?$Matrix2D@M@relion@@@std@@@std@@AEAAPEAV?$Matrix2D@M@relion@@PEAV34@00@Z
   A46BB6 ?_Umove_if_noexcept1@?$vector@MV?$allocator@M@std@@@std@@AEAAXPEAM00U?$integral_constant@_N$00@2@@Z
   A46BB6 ?_Umove_if_noexcept1@?$vector@V?$Matrix1D@M@relion@@V?$allocator@V?$Matrix1D@M@relion@@@std@@@std@@AEAAXPEAV?$Matrix1D@M@relion@@00U?$integral_constant@_N$0A@@2@@Z
   A46BB6 ?_Umove_if_noexcept1@?$vector@V?$Matrix2D@M@relion@@V?$allocator@V?$Matrix2D@M@relion@@@std@@@std@@AEAAXPEAV?$Matrix2D@M@relion@@00U?$integral_constant@_N$0A@@2@@Z
   A46BB6 ?_Umove_if_noexcept@?$vector@MV?$allocator@M@std@@@std@@AEAAXPEAM00@Z
   A46BB6 ?_Umove_if_noexcept@?$vector@V?$Matrix1D@M@relion@@V?$allocator@V?$Matrix1D@M@relion@@@std@@@std@@AEAAXPEAV?$Matrix1D@M@relion@@00@Z
   A46BB6 ?_Umove_if_noexcept@?$vector@V?$Matrix2D@M@relion@@V?$allocator@V?$Matrix2D@M@relion@@@std@@@std@@AEAAXPEAV?$Matrix2D@M@relion@@00@Z
   A46BB6 ?_Xlength@?$vector@MV?$allocator@M@std@@@std@@CAXXZ
   A46BB6 ?_Xlength@?$vector@V?$Matrix1D@M@relion@@V?$allocator@V?$Matrix1D@M@relion@@@std@@@std@@CAXXZ
   A46BB6 ?_Xlength@?$vector@V?$Matrix2D@M@relion@@V?$allocator@V?$Matrix2D@M@relion@@@std@@@std@@CAXXZ
   A46BB6 ?__LINE__Var@?0??initialise@HealpixSampling@relion@@QEAAXHH_N@Z@4JA
   A46BB6 ?__LINE__Var@?0??selectOrientationsWithNonZeroPriorProbability@HealpixSampling@relion@@QEAAXMMMMMMAEAV?$vector@HV?$allocator@H@std@@@std@@AEAV?$vector@MV?$allocator@M@std@@@5@01M@Z@4JA
   A46BB6 ?__LINE__Var@?0??setTranslations@HealpixSampling@relion@@QEAAXMM@Z@4JA
   A46BB6 ?__LINE__Var@?0??write@HealpixSampling@relion@@QEAAXVFileName@3@@Z@4JA
   A46BB6 ?__LINE__Var@?0??writeAllOrientationsToBild@HealpixSampling@relion@@QEAAXVFileName@3@V?$basic_string@DU?$char_traits@D@std@@V?$allocator@D@2@@std@@M@Z@4JA
   A46BB6 ?__LINE__Var@?0??writeBildFileOrientationalDistribution@HealpixSampling@relion@@QEAAXAEAV?$MultidimArray@M@3@AEAVFileName@3@MMMM@Z@4JA
   A46BB6 ?__LINE__Var@?0??writeNonZeroPriorOrientationsToBild@HealpixSampling@relion@@QEAAXVFileName@3@MMAEAV?$vector@HV?$allocator@H@std@@@std@@V?$basic_string@DU?$char_traits@D@std@@V?$allocator@D@2@@6@M@Z@4JA
   A46BB6 ?acos@@YAMM@Z
   A46BB6 ?addOneOrientation@HealpixSampling@relion@@QEAAXMMM_N@Z
   A46BB6 ?addOneTranslation@HealpixSampling@relion@@QEAAXMMM_N@Z
   A46BB6 ?allocate@?$allocator@M@std@@QEAAPEAM_K@Z
   A46BB6 ?allocate@?$allocator@V?$Matrix1D@M@relion@@@std@@QEAAPEAV?$Matrix1D@M@relion@@_K@Z
   A46BB6 ?allocate@?$allocator@V?$Matrix2D@M@relion@@@std@@QEAAPEAV?$Matrix2D@M@relion@@_K@Z
   A46BB6 ?calculateAngularDistance@HealpixSampling@relion@@QEAAMMMMMMM@Z
   A46BB6 ?capacity@?$vector@MV?$allocator@M@std@@@std@@QEBA_KXZ
   A46BB6 ?capacity@?$vector@V?$Matrix1D@M@relion@@V?$allocator@V?$Matrix1D@M@relion@@@std@@@std@@QEBA_KXZ
   A46BB6 ?capacity@?$vector@V?$Matrix2D@M@relion@@V?$allocator@V?$Matrix2D@M@relion@@@std@@@std@@QEBA_KXZ
   A46BB6 ?checkDirection@HealpixSampling@relion@@QEAAXAEAM0@Z
   A46BB6 ?clear@?$vector@HV?$allocator@H@std@@@std@@QEAAXXZ
   A46BB6 ?clear@?$vector@MV?$allocator@M@std@@@std@@QEAAXXZ
   A46BB6 ?clear@?$vector@V?$Matrix2D@M@relion@@V?$allocator@V?$Matrix2D@M@relion@@@std@@@std@@QEAAXXZ
   A46BB6 ?clear@HealpixSampling@relion@@QEAAXXZ
   A46BB6 ?computeStats@?$MultidimArray@M@relion@@QEBAXAEAM000@Z
   A46BB6 ?deallocate@?$allocator@M@std@@QEAAXQEAM_K@Z
   A46BB6 ?deallocate@?$allocator@V?$Matrix1D@M@relion@@@std@@QEAAXQEAV?$Matrix1D@M@relion@@_K@Z
   A46BB6 ?deallocate@?$allocator@V?$Matrix2D@M@relion@@@std@@QEAAXQEAV?$Matrix2D@M@relion@@_K@Z
   A46BB6 ?getAngularSampling@HealpixSampling@relion@@QEAAMH@Z
   A46BB6 ?getDirection@HealpixSampling@relion@@QEAAXJAEAM0@Z
   A46BB6 ?getDirectionFromHealPix@HealpixSampling@relion@@QEAAXJAEAM0@Z
   A46BB6 ?getHealPixIndex@HealpixSampling@relion@@QEAAJJ@Z
   A46BB6 ?getOrientations@HealpixSampling@relion@@QEAAXJJHAEAV?$vector@MV?$allocator@M@std@@@std@@00AEAV?$vector@HV?$allocator@H@std@@@4@010@Z
   A46BB6 ?getPositionOversampledSamplingPoint@HealpixSampling@relion@@QEAAJJHHH@Z
   A46BB6 ?getPositionSamplingPoint@HealpixSampling@relion@@QEAAJHJJJ@Z
   A46BB6 ?getPsiAngle@HealpixSampling@relion@@QEAAXJAEAM@Z
   A46BB6 ?getRow@?$Matrix2D@M@relion@@QEBAXHAEAV?$Matrix1D@M@2@@Z
   A46BB6 ?getTranslation@HealpixSampling@relion@@QEAAXJAEAM00@Z
   A46BB6 ?getTranslationalSampling@HealpixSampling@relion@@QEAAMH@Z
   A46BB6 ?getTranslations@HealpixSampling@relion@@QEAAXJHAEAV?$vector@MV?$allocator@M@std@@@std@@00@Z
   A46BB6 ?initialise@HealpixSampling@relion@@QEAAXHH_N@Z
   A46BB6 ?isCol@?$Matrix1D@M@relion@@QEBAHXZ
   A46BB6 ?isRow@?$Matrix1D@M@relion@@QEBAHXZ
   A46BB6 ?max_size@?$_Default_allocator_traits@V?$allocator@M@std@@@std@@SA_KAEBV?$allocator@M@2@@Z
   A46BB6 ?max_size@?$_Default_allocator_traits@V?$allocator@V?$Matrix1D@M@relion@@@std@@@std@@SA_KAEBV?$allocator@V?$Matrix1D@M@relion@@@2@@Z
   A46BB6 ?max_size@?$_Default_allocator_traits@V?$allocator@V?$Matrix2D@M@relion@@@std@@@std@@SA_KAEBV?$allocator@V?$Matrix2D@M@relion@@@2@@Z
   A46BB6 ?max_size@?$vector@MV?$allocator@M@std@@@std@@QEBA_KXZ
   A46BB6 ?max_size@?$vector@V?$Matrix1D@M@relion@@V?$allocator@V?$Matrix1D@M@relion@@@std@@@std@@QEBA_KXZ
   A46BB6 ?max_size@?$vector@V?$Matrix2D@M@relion@@V?$allocator@V?$Matrix2D@M@relion@@@std@@@std@@QEBA_KXZ
   A46BB6 ?oversamplingFactorOrientations@HealpixSampling@relion@@QEAAHH@Z
   A46BB6 ?oversamplingFactorTranslations@HealpixSampling@relion@@QEAAHH@Z
   A46BB6 ?planck_assert@@YAX_NPEBD@Z
   A46BB6 ?pow@@YANNH@Z
   A46BB6 ?push_back@?$vector@HV?$allocator@H@std@@@std@@QEAAX$$QEAH@Z
   A46BB6 ?push_back@?$vector@MV?$allocator@M@std@@@std@@QEAAX$$QEAM@Z
   A46BB6 ?push_back@?$vector@MV?$allocator@M@std@@@std@@QEAAXAEBM@Z
   A46BB6 ?push_back@?$vector@V?$Matrix1D@M@relion@@V?$allocator@V?$Matrix1D@M@relion@@@std@@@std@@QEAAXAEBV?$Matrix1D@M@relion@@@Z
   A46BB6 ?push_back@?$vector@V?$Matrix2D@M@relion@@V?$allocator@V?$Matrix2D@M@relion@@@std@@@std@@QEAAXAEBV?$Matrix2D@M@relion@@@Z
   A46BB6 ?pushbackOversampledPsiAngles@HealpixSampling@relion@@QEAAXJHMMAEAV?$vector@MV?$allocator@M@std@@@std@@00@Z
   A46BB6 ?removePointsOutsideLimitedTiltAngles@HealpixSampling@relion@@AEAAXXZ
   A46BB6 ?removeSymmetryEquivalentPoints@HealpixSampling@relion@@AEAAXM@Z
   A46BB6 ?removeSymmetryEquivalentPointsGeometric@HealpixSampling@relion@@AEAAXHHAEAV?$vector@V?$Matrix1D@M@relion@@V?$allocator@V?$Matrix1D@M@relion@@@std@@@std@@@Z
   A46BB6 ?resetRandomlyPerturbedSampling@HealpixSampling@relion@@QEAAXXZ
   A46BB6 ?selectOrientationsWithNonZeroPriorProbability@HealpixSampling@relion@@QEAAXMMMMMMAEAV?$vector@HV?$allocator@H@std@@@std@@AEAV?$vector@MV?$allocator@M@std@@@4@01M@Z
   A46BB6 ?selfTranspose@?$Matrix1D@M@relion@@QEAAXXZ
   A46BB6 ?setCol@?$Matrix1D@M@relion@@QEAAXXZ
   A46BB6 ?setOrientations@HealpixSampling@relion@@QEAAXHM@Z
   A46BB6 ?setRow@?$Matrix1D@M@relion@@QEAAXXZ
   A46BB6 ?setTranslations@HealpixSampling@relion@@QEAAXMM@Z
   A46BB6 ?show_stackframe@@YAXXZ
   A46BB6 ?size@?$vector@MV?$allocator@M@std@@@std@@QEBA_KXZ
   A46BB6 ?size@?$vector@V?$Matrix1D@M@relion@@V?$allocator@V?$Matrix1D@M@relion@@@std@@@std@@QEBA_KXZ
   A46BB6 ?size@?$vector@V?$Matrix2D@M@relion@@V?$allocator@V?$Matrix2D@M@relion@@@std@@@std@@QEBA_KXZ
   A46BB6 ?symmetryGroup@HealpixSampling@relion@@QEAA?AVFileName@2@XZ
   A46BB6 ?transpose@?$Matrix1D@M@relion@@QEBA?AV12@XZ
   A46BB6 ?what@Message_error@@UEBAPEBDXZ
   A46BB6 ?write@HealpixSampling@relion@@QEAAXVFileName@2@@Z
   A46BB6 ?writeAllOrientationsToBild@HealpixSampling@relion@@QEAAXVFileName@2@V?$basic_string@DU?$char_traits@D@std@@V?$allocator@D@2@@std@@M@Z
   A46BB6 ?writeBildFileOrientationalDistribution@HealpixSampling@relion@@QEAAXAEAV?$MultidimArray@M@2@AEAVFileName@2@MMMM@Z
   A46BB6 ?writeNonZeroPriorOrientationsToBild@HealpixSampling@relion@@QEAAXVFileName@2@MMAEAV?$vector@HV?$allocator@H@std@@@std@@V?$basic_string@DU?$char_traits@D@std@@V?$allocator@D@2@@5@M@Z
   A46BB6 _CT??_R0?AVMessage_error@@@8??0Message_error@@QEAA@AEBV0@@Z48
   A46BB6 _CTA1?AVMessage_error@@
   A46BB6 _TI1?AVMessage_error@@
   A46BB6 __real@3f847ae147ae147b
   A46BB6 __real@3fc5555555555555
   A46BB6 __real@3fc80307ad35cf97
   A46BB6 __real@3fd16b26bf8769ec
   A46BB6 __real@3fd36d0d3bf5ae3b
   A46BB6 __real@3fd3c6ef2e609852
   A46BB6 __real@3fda20bc382a12f9
   A46BB6 __real@3fde2b7baecd0785
   A46BB6 __real@3fde2b7fe08aefb3
   A46BB6 __real@3fdfffffeeb8148b
   A46BB6 __real@3fe6a09edbf8b9bb
   A46BB6 __real@3fe8a2339c0ebee0
   A46BB6 __real@3fea20be51090710
   A46BB6 __real@4018000000000000
   A46BB6 __real@4046800000000000
   A46BB6 __real@4056800000000000
   A46BB6 __real@4060e00000000000
   A46BB6 __real@4062c00000000000
   A46BB6 __real@41200000
   A46BB6 __real@41fdbd63
   A46BB6 __real@42b40000
   A46BB6 __real@45610000
   A46BB6 __real@bfd36d0d3bf5ae3b
   A46BB6 __real@bfda20bc382a12f9
   A46BB6 __real@bfdf6e912aee0a5b
   A46BB6 __real@bfdfffffeeb8148b
   A46BB6 __real@bfe279a6b50b0f28
   A46BB6 __real@bfe55556084a515d
   A46BB6 __real@bfe6a09edbf8b9bb
   A46BB6 __real@bfe9e377a29dbfc7
   A46BB6 __real@bfea20bc382a12f9
   A46BB6 __real@bfee2b7dc7abfb9c
   A46BB6 __real@bff0000000000000
   A46BB6 __real@c066800000000000
   A46BB6 __real@c076800000000000
   A46BB6 __real@c1fdbd63
   BD940C ??$?AH@?$fix_arr@H$03@@QEAAAEAHH@Z
   BD940C ??$?AH@?$fix_arr@H$07@@QEAAAEAHH@Z
   BD940C ??$?AH@?$fix_arr@N$03@@QEAAAEANH@Z
   BD940C ??$ifloor@HN@@YAHN@Z
   BD940C ??$imodulo@H@@YAHHH@Z
   BD940C ??$isqrt@H@@YAIH@Z
   BD940C ??$swap@HX@std@@YAXAEAH0@Z
   BD940C ??0Tablefiller@Healpix_Base@@QEAA@XZ
   BD940C ??0vec3@@QEAA@NNN@Z
   BD940C ??0vec3@@QEAA@XZ
   BD940C ??_C@_0BG@LGNNONPI@error?5in?5query_disc?$CI?$CJ@
   BD940C ??_C@_0BL@FNENJHLG@map?5must?5be?5in?5RING?5scheme@
   BD940C ??_C@_0BN@HHJBGPNL@npix2nside?3?5invalid?5argument@
   BD940C ??_C@_0CB@BCDHNOIC@ring2nest?3?5need?5hierarchical?5ma@
   BD940C ??_C@_0CB@JKNFAPHP@nest2ring?3?5need?5hierarchical?5ma@
   BD940C ?Filler@Healpix_Base@@1VTablefiller@1@A
   BD940C ?Length@vec3@@QEBANXZ
   BD940C ?SET_NSIDE@@3Vnside_dummy@@B
   BD940C ?abs@@YANN@Z
   BD940C ?ang2pix_z_phi@Healpix_Base@@QEBAHNN@Z
   BD940C ?crossprod@@YA?AVvec3@@AEBV1@0@Z
   BD940C ?ctab@Healpix_Base@@1PAFA
   BD940C ?dotprod@@YANAEBVvec3@@0@Z
   BD940C ?fmodulo@@YANNN@Z
   BD940C ?get_interpol@Healpix_Base@@QEBAXAEBVpointing@@AEAV?$fix_arr@H$03@@AEAV?$fix_arr@N$03@@@Z
   BD940C ?get_ring_info2@Healpix_Base@@QEBAXHAEAH0AEANAEA_N@Z
   BD940C ?get_ring_info@Healpix_Base@@QEBAXHAEAH0AEAN1AEA_N@Z
   BD940C ?in_ring@Healpix_Base@@IEBAXHNNAEAV?$vector@HV?$allocator@H@std@@@std@@@Z
   BD940C ?jpll@Healpix_Base@@1QBHB
   BD940C ?jrll@Healpix_Base@@1QBHB
   BD940C ?max_pixrad@Healpix_Base@@QEBANXZ
   BD940C ?neighbors@Healpix_Base@@QEBAXHAEAV?$fix_arr@H$07@@@Z
   BD940C ?nest2peano@Healpix_Base@@QEBAHH@Z
   BD940C ?nest2ring@Healpix_Base@@QEBAHH@Z
   BD940C ?nest2xyf@Healpix_Base@@QEBAXHAEAH00@Z
   BD940C ?npix2nside@Healpix_Base@@SAHH@Z
   BD940C ?peano2nest@Healpix_Base@@QEBAHH@Z
   BD940C ?pix2ang_z_phi@Healpix_Base@@QEBAXHAEAN0@Z
   BD940C ?pix2ring@Healpix_Base@@QEBAHH@Z
   BD940C ?query_disc@Healpix_Base@@QEBAXAEBVpointing@@NAEAV?$vector@HV?$allocator@H@std@@@std@@@Z
   BD940C ?ring2nest@Healpix_Base@@QEBAHH@Z
   BD940C ?ring2xyf@Healpix_Base@@QEBAXHAEAH00@Z
   BD940C ?ring2z@Healpix_Base@@QEBANH@Z
   BD940C ?ring_above@Healpix_Base@@IEBAHN@Z
   BD940C ?set_z_phi@vec3@@QEAAXNN@Z
   BD940C ?size@?$fix_arr@H$03@@QEBAJXZ
   BD940C ?sqrt@@YAOO@Z
   BD940C ?utab@Healpix_Base@@1PAFA
   BD940C ?v_angle@@YANAEBVvec3@@0@Z
   BD940C ?xyf2nest@Healpix_Base@@QEBAHHHH@Z
   BD940C ?xyf2ring@Healpix_Base@@QEBAHHHH@Z
   BD940C __real@3fc45f306dc9c883
   BD940C __real@3fe5555555555555
   BD940C __real@3fe8000000000000
   BD940C __real@3ff921fb54442d18
   BD940C __real@400921fb46d833cb
   BD940C sqrtl
   C3F794 ??$?5DU?$char_traits@D@std@@@std@@YAAEAV?$basic_istream@DU?$char_traits@D@std@@@0@AEAV10@AEAD@Z
   C3F794 ??$?5U?$char_traits@D@std@@@std@@YAAEAV?$basic_istream@DU?$char_traits@D@std@@@0@AEAV10@AEAC@Z
   C3F794 ??$?5U?$char_traits@D@std@@@std@@YAAEAV?$basic_istream@DU?$char_traits@D@std@@@0@AEAV10@AEAE@Z
   C3F794 ??$?6DU?$char_traits@D@std@@D@std@@YAAEAV?$basic_ostream@DU?$char_traits@D@std@@@0@AEAV10@AEBU?$_Fillobj@D@0@@Z
   C3F794 ??$?6U?$char_traits@D@std@@@std@@YAAEAV?$basic_ostream@DU?$char_traits@D@std@@@0@AEAV10@C@Z
   C3F794 ??$?6U?$char_traits@D@std@@@std@@YAAEAV?$basic_ostream@DU?$char_traits@D@std@@@0@AEAV10@E@Z
   C3F794 ??$dataToString@C@@YA?AV?$basic_string@DU?$char_traits@D@std@@V?$allocator@D@2@@std@@AEBC@Z
   C3F794 ??$dataToString@E@@YA?AV?$basic_string@DU?$char_traits@D@std@@V?$allocator@D@2@@std@@AEBE@Z
   C3F794 ??$dataToString@F@@YA?AV?$basic_string@DU?$char_traits@D@std@@V?$allocator@D@2@@std@@AEBF@Z
   C3F794 ??$dataToString@G@@YA?AV?$basic_string@DU?$char_traits@D@std@@V?$allocator@D@2@@std@@AEBG@Z
   C3F794 ??$dataToString@H@@YA?AV?$basic_string@DU?$char_traits@D@std@@V?$allocator@D@2@@std@@AEBH@Z
   C3F794 ??$dataToString@I@@YA?AV?$basic_string@DU?$char_traits@D@std@@V?$allocator@D@2@@std@@AEBI@Z
   C3F794 ??$dataToString@J@@YA?AV?$basic_string@DU?$char_traits@D@std@@V?$allocator@D@2@@std@@AEBJ@Z
   C3F794 ??$dataToString@K@@YA?AV?$basic_string@DU?$char_traits@D@std@@V?$allocator@D@2@@std@@AEBK@Z
   C3F794 ??$dataToString@M@@YA?AV?$basic_string@DU?$char_traits@D@std@@V?$allocator@D@2@@std@@AEBM@Z
   C3F794 ??$dataToString@N@@YA?AV?$basic_string@DU?$char_traits@D@std@@V?$allocator@D@2@@std@@AEBN@Z
   C3F794 ??$dataToString@V?$basic_string@DU?$char_traits@D@std@@V?$allocator@D@2@@std@@@@YA?AV?$basic_string@DU?$char_traits@D@std@@V?$allocator@D@2@@std@@AEBV01@@Z
   C3F794 ??$dataToString@_J@@YA?AV?$basic_string@DU?$char_traits@D@std@@V?$allocator@D@2@@std@@AEB_J@Z
   C3F794 ??$dataToString@_K@@YA?AV?$basic_string@DU?$char_traits@D@std@@V?$allocator@D@2@@std@@AEB_K@Z
   C3F794 ??$dataToString@_N@@YA?AV?$basic_string@DU?$char_traits@D@std@@V?$allocator@D@2@@std@@AEB_N@Z
   C3F794 ??$getline@DU?$char_traits@D@std@@V?$allocator@D@2@@std@@YAAEAV?$basic_istream@DU?$char_traits@D@std@@@0@AEAV10@AEAV?$basic_string@DU?$char_traits@D@std@@V?$allocator@D@2@@0@@Z
   C3F794 ??$setfill@D@std@@YA?AU?$_Fillobj@D@0@D@Z
   C3F794 ??$stringToData@C@@YAXAEBV?$basic_string@DU?$char_traits@D@std@@V?$allocator@D@2@@std@@AEAC@Z
   C3F794 ??$stringToData@E@@YAXAEBV?$basic_string@DU?$char_traits@D@std@@V?$allocator@D@2@@std@@AEAE@Z
   C3F794 ??$stringToData@F@@YAXAEBV?$basic_string@DU?$char_traits@D@std@@V?$allocator@D@2@@std@@AEAF@Z
   C3F794 ??$stringToData@G@@YAXAEBV?$basic_string@DU?$char_traits@D@std@@V?$allocator@D@2@@std@@AEAG@Z
   C3F794 ??$stringToData@H@@YAXAEBV?$basic_string@DU?$char_traits@D@std@@V?$allocator@D@2@@std@@AEAH@Z
   C3F794 ??$stringToData@I@@YAXAEBV?$basic_string@DU?$char_traits@D@std@@V?$allocator@D@2@@std@@AEAI@Z
   C3F794 ??$stringToData@J@@YAXAEBV?$basic_string@DU?$char_traits@D@std@@V?$allocator@D@2@@std@@AEAJ@Z
   C3F794 ??$stringToData@K@@YAXAEBV?$basic_string@DU?$char_traits@D@std@@V?$allocator@D@2@@std@@AEAK@Z
   C3F794 ??$stringToData@M@@YAXAEBV?$basic_string@DU?$char_traits@D@std@@V?$allocator@D@2@@std@@AEAM@Z
   C3F794 ??$stringToData@N@@YAXAEBV?$basic_string@DU?$char_traits@D@std@@V?$allocator@D@2@@std@@AEAN@Z
   C3F794 ??$stringToData@V?$basic_string@DU?$char_traits@D@std@@V?$allocator@D@2@@std@@@@YAXAEBV?$basic_string@DU?$char_traits@D@std@@V?$allocator@D@2@@std@@AEAV01@@Z
   C3F794 ??$stringToData@_J@@YAXAEBV?$basic_string@DU?$char_traits@D@std@@V?$allocator@D@2@@std@@AEA_J@Z
   C3F794 ??$stringToData@_K@@YAXAEBV?$basic_string@DU?$char_traits@D@std@@V?$allocator@D@2@@std@@AEA_K@Z
   C3F794 ??$stringToData@_N@@YAXAEBV?$basic_string@DU?$char_traits@D@std@@V?$allocator@D@2@@std@@AEA_N@Z
   C3F794 ??$type2typename@C@@YAPEBDXZ
   C3F794 ??$type2typename@E@@YAPEBDXZ
   C3F794 ??$type2typename@F@@YAPEBDXZ
   C3F794 ??$type2typename@G@@YAPEBDXZ
   C3F794 ??$type2typename@H@@YAPEBDXZ
   C3F794 ??$type2typename@I@@YAPEBDXZ
   C3F794 ??$type2typename@J@@YAPEBDXZ
   C3F794 ??$type2typename@K@@YAPEBDXZ
   C3F794 ??$type2typename@M@@YAPEBDXZ
   C3F794 ??$type2typename@N@@YAPEBDXZ
   C3F794 ??$type2typename@_J@@YAPEBDXZ
   C3F794 ??$type2typename@_K@@YAPEBDXZ
   C3F794 ??0?$_Fillobj@D@std@@QEAA@D@Z
   C3F794 ??0Message_error@@QEAA@XZ
   C3F794 ??_C@_01BIAFAFID@F@
   C3F794 ??_C@_01EANLCPLP@y@
   C3F794 ??_C@_01EFFIKLCJ@n@
   C3F794 ??_C@_01GAPBHFFA@T@
   C3F794 ??_C@_01INIBCBCB@f@
   C3F794 ??_C@_01LIIJDEN@?$AN@
   C3F794 ??_C@_01NANMIPIL@N@
   C3F794 ??_C@_01NEMOKFLO@?$DN@
   C3F794 ??_C@_01NFFPALBN@Y@
   C3F794 ??_C@_01PFHFFBPC@t@
   C3F794 ??_C@_02BEIMNFAD@?$CL?9@
   C3F794 ??_C@_02EGFLAODH@?9?$CL@
   C3F794 ??_C@_02HPDBCLII@?$CC?$CJ@
   C3F794 ??_C@_02LLHJFGPH@?5?$HM@
   C3F794 ??_C@_02MINBJDHL@?$HM?5@
   C3F794 ??_C@_02NDKNKOCB@?3?6@
   C3F794 ??_C@_02OJDBNLEE@?5?7@
   C3F794 ??_C@_03FPKDPOAJ@?$DO?$CI?$CC@
   C3F794 ??_C@_04GOKPGOLB@long@
   C3F794 ??_C@_04HCDDPBNL@TRUE@
   C3F794 ??_C@_04LOAJBDKD@true@
   C3F794 ??_C@_05LAPONLG@false@
   C3F794 ??_C@_05MAJJAKPI@FALSE@
   C3F794 ??_C@_06BNJCAIGJ@double@
   C3F794 ??_C@_06KJFIANJN@?4TRUE?4@
   C3F794 ??_C@_06PHEKMOHB@?4true?4@
   C3F794 ??_C@_07BAMMBJFH@?0?5line?5@
   C3F794 ??_C@_07CKBCDPF@Usage?3?5@
   C3F794 ??_C@_07DNLMGAAL@?4false?4@
   C3F794 ??_C@_07KMBDJKHL@?4FALSE?4@
   C3F794 ??_C@_09IPNKJOIF@long?5long@
   C3F794 ??_C@_0BB@IOEDGALD@?5does?5not?5exist?$CB@
   C3F794 ??_C@_0BB@KDKLDLBP@?5already?5exists?$CB@
   C3F794 ??_C@_0BC@HIFLPMHA@Unspecified?5error@
   C3F794 ??_C@_0BD@PNIDPONK@unsigned?5long?5long@
   C3F794 ??_C@_0BE@LCJJEGCL@running?5with?5up?5to?5@
   C3F794 ??_C@_0BG@HNIDBEOO@?5multiply?5defined?5in?5@
   C3F794 ??_C@_0BH@EONPPPPA@Warning?3?5empty?5key?5in?5@
   C3F794 ??_C@_0BI@DGHLJBIP@running?5in?5scalar?5mode?4@
   C3F794 ??_C@_0CB@IOKALINE@Warning?3?5unrecognized?5format?5in@
   C3F794 ??_C@_0CC@IAKKLJKL@conversion?5error?5in?5stringToDat@
   C3F794 ??_C@_0CD@EJFLHCCD@but?5running?5with?5one?5process?5on@
   C3F794 ??_C@_0CJ@GEOPJGMG@conversion?5error?5in?5stringToDat@
   C3F794 ??_C@_0CO@IFJFJJNN@Application?5was?5compiled?5with?5O@
   C3F794 ??_C@_0DB@DNLDMBEK@Application?5was?5compiled?5withou@
   C3F794 ??_C@_0M@MPLPCMBL@signed?5char@
   C3F794 ??_C@_0M@PGDJFCDF@?5processes?4@
   C3F794 ??_C@_0N@OFHMGPAL@unsigned?5int@
   C3F794 ??_C@_0N@PLPIDBLC@Error?3?5file?5@
   C3F794 ??_C@_0O@DBEIFDPP@Warning?3?5key?5@
   C3F794 ??_C@_0O@NMGGJGDE@unsigned?5long@
   C3F794 ??_C@_0O@PPAIJIHF@unsigned?5char@
   C3F794 ??_C@_0P@IIMKEEHB@unsigned?5short@
   C3F794 ?announce@@YAXAEBV?$basic_string@DU?$char_traits@D@std@@V?$allocator@D@2@@std@@@Z
   C3F794 ?announce_progress@@YAXHH@Z
   C3F794 ?announce_progress@@YAXNNN@Z
   C3F794 ?assert_not_present@@YAXAEBV?$basic_string@DU?$char_traits@D@std@@V?$allocator@D@2@@std@@@Z
   C3F794 ?assert_present@@YAXAEBV?$basic_string@DU?$char_traits@D@std@@V?$allocator@D@2@@std@@@Z
   C3F794 ?end_announce_progress@@YAXXZ
   C3F794 ?equal_nocase@@YA_NAEBV?$basic_string@DU?$char_traits@D@std@@V?$allocator@D@2@@std@@0@Z
   C3F794 ?file_present@@YA_NAEBV?$basic_string@DU?$char_traits@D@std@@V?$allocator@D@2@@std@@@Z
   C3F794 ?find@?$_Tree@V?$_Tmap_traits@V?$basic_string@DU?$char_traits@D@std@@V?$allocator@D@2@@std@@V12@U?$less@V?$basic_string@DU?$char_traits@D@std@@V?$allocator@D@2@@std@@@2@V?$allocator@U?$pair@$$CBV?$basic_string@DU?$char_traits@D@std@@V?$allocator@D@2@@std@@V12@@std@@@2@$0A@@std@@@std@@QEAA?AV?$_Tree_iterator@V?$_Tree_val@U?$_Tree_simple_types@U?$pair@$$CBV?$basic_string@DU?$char_traits@D@std@@V?$allocator@D@2@@std@@V12@@std@@@std@@@std@@@2@AEBV?$basic_string@DU?$char_traits@D@std@@V?$allocator@D@2@@2@@Z
   C3F794 ?intToString@@YA?AV?$basic_string@DU?$char_traits@D@std@@V?$allocator@D@2@@std@@HH@Z
   C3F794 ?module_startup@@YAXAEBV?$basic_string@DU?$char_traits@D@std@@V?$allocator@D@2@@std@@HPEAPEBDH0@Z
   C3F794 ?openmp_enabled@@YA_NXZ
   C3F794 ?openmp_max_threads@@YAHXZ
   C3F794 ?parse_file@@YAXAEBV?$basic_string@DU?$char_traits@D@std@@V?$allocator@D@2@@std@@AEAV?$map@V?$basic_string@DU?$char_traits@D@std@@V?$allocator@D@2@@std@@V12@U?$less@V?$basic_string@DU?$char_traits@D@std@@V?$allocator@D@2@@std@@@2@V?$allocator@U?$pair@$$CBV?$basic_string@DU?$char_traits@D@std@@V?$allocator@D@2@@std@@V12@@std@@@2@@2@@Z
   C3F794 ?remove_file@@YAXAEBV?$basic_string@DU?$char_traits@D@std@@V?$allocator@D@2@@std@@@Z
   C3F794 ?tolower@@YA?AV?$basic_string@DU?$char_traits@D@std@@V?$allocator@D@2@@std@@AEBV12@@Z
   C3F794 ?trim@@YA?AV?$basic_string@DU?$char_traits@D@std@@V?$allocator@D@2@@std@@AEBV12@@Z
   D9F540 ??$pow@MNX@@YANMN@Z
   D9F540 ??A?$vector@Ufit_point2D@relion@@V?$allocator@Ufit_point2D@relion@@@std@@@std@@QEBAAEBUfit_point2D@relion@@_K@Z
   D9F540 ??A?$vector@Ufit_point3D@relion@@V?$allocator@Ufit_point3D@relion@@@std@@@std@@QEBAAEBUfit_point3D@relion@@_K@Z
   D9F540 ??_C@_0CA@HCNJAKEP@m?5out?5of?5range?5in?5kaiser_proj?$CI?$CJ@
   D9F540 ??_C@_0CB@DOJGANBO@m?5out?5of?5range?5in?5kaiser_value?$CI@
   D9F540 ??_C@_0CC@DFCOABGM@d?3?2software?2liblion?2src?2funcs?4c@
   D9F540 ??_C@_0CJ@FLGHFFNH@rnd_student_t?5currently?5not?5imp@
   D9F540 ??_C@_0CJ@PHOHDDKJ@m?5out?5of?5range?5in?5kaiser_Fourie@
   D9F540 ??_C@_1MO@BIFIPDFN@?$AAs?$AAt?$AAd?$AA?3?$AA?3?$AAv?$AAe?$AAc?$AAt?$AAo?$AAr?$AA?$DM?$AAs?$AAt?$AAr@
   D9F540 ??_C@_1MO@GPMCPJKJ@?$AAs?$AAt?$AAd?$AA?3?$AA?3?$AAv?$AAe?$AAc?$AAt?$AAo?$AAr?$AA?$DM?$AAs?$AAt?$AAr@
   D9F540 ?_Get_data@?$_Vector_alloc@U?$_Vec_base_types@Ufit_point2D@relion@@V?$allocator@Ufit_point2D@relion@@@std@@@std@@@std@@QEBAAEBV?$_Vector_val@U?$_Simple_types@Ufit_point2D@relion@@@std@@@2@XZ
   D9F540 ?_Get_second@?$_Compressed_pair@V?$allocator@Ufit_point2D@relion@@@std@@V?$_Vector_val@U?$_Simple_types@Ufit_point2D@relion@@@std@@@2@$00@std@@QEBAAEBV?$_Vector_val@U?$_Simple_types@Ufit_point2D@relion@@@std@@@2@XZ
   D9F540 ?_Myfirst@?$_Vector_alloc@U?$_Vec_base_types@Ufit_point2D@relion@@V?$allocator@Ufit_point2D@relion@@@std@@@std@@@std@@QEBAAEBQEAUfit_point2D@relion@@XZ
   D9F540 ?_Mylast@?$_Vector_alloc@U?$_Vec_base_types@Ufit_point2D@relion@@V?$allocator@Ufit_point2D@relion@@@std@@@std@@@std@@QEBAAEBQEAUfit_point2D@relion@@XZ
   D9F540 ?__LINE__Var@?0??kaiser_Fourier_value@relion@@YAMMMMH@Z@4JA
   D9F540 ?__LINE__Var@?0??kaiser_proj@relion@@YAMMMMH@Z@4JA
   D9F540 ?__LINE__Var@?0??kaiser_value@relion@@YAMMMMH@Z@4JA
   D9F540 ?__LINE__Var@?0??rnd_student_t@relion@@YAMMMM@Z@4JA
   D9F540 ?atan@@YAMM@Z
   D9F540 ?basvolume@relion@@YAMMMHH@Z
   D9F540 ?blob_att@relion@@YAMMUblobtype@1@@Z
   D9F540 ?blob_freq_zero@relion@@YAMUblobtype@1@@Z
   D9F540 ?blob_ops@relion@@YAMMUblobtype@1@@Z
   D9F540 ?cdf_FSnedecor@relion@@YAMHHM@Z
   D9F540 ?cdf_gauss@relion@@YAMM@Z
   D9F540 ?cdf_tstudent@relion@@YAMHM@Z
   D9F540 ?chi2_from_t0@relion@@YAMMM@Z
   D9F540 ?chi2_up_to_t0@relion@@YAMMM@Z
   D9F540 ?fitLeastSquaresPlane@relion@@YAXAEBV?$vector@Ufit_point3D@relion@@V?$allocator@Ufit_point3D@relion@@@std@@@std@@AEAM11@Z
   D9F540 ?fitStraightLine@relion@@YAXAEBV?$vector@Ufit_point2D@relion@@V?$allocator@Ufit_point2D@relion@@@std@@@std@@AEAM11@Z
   D9F540 ?gaus_from_x0@relion@@YAMMMM@Z
   D9F540 ?gaus_outside_probb@relion@@YAMMMM@Z
   D9F540 ?gaus_outside_x0@relion@@YAMMMM@Z
   D9F540 ?gaus_up_to_x0@relion@@YAMMMM@Z
   D9F540 ?gaus_within_x0@relion@@YAMMMM@Z
   D9F540 ?gaussian1D@relion@@YAMMMM@Z
   D9F540 ?gaussian2D@relion@@YAMMMMMMMM@Z
   D9F540 ?i_n@relion@@YAMHM@Z
   D9F540 ?i_nph@relion@@YAMHM@Z
   D9F540 ?icdf_FSnedecor@relion@@YAMHHM@Z
   D9F540 ?icdf_gauss@relion@@YAMM@Z
   D9F540 ?in_zeroarg@relion@@YAMH@Z
   D9F540 ?init_random_generator@relion@@YAXH@Z
   D9F540 ?inph_zeroarg@relion@@YAMH@Z
   D9F540 ?kaiser_Fourier_value@relion@@YAMMMMH@Z
   D9F540 ?kaiser_proj@relion@@YAMMMMH@Z
   D9F540 ?kaiser_value@relion@@YAMMMMH@Z
   D9F540 ?log2@relion@@YAMM@Z
   D9F540 ?pow@@YAMMH@Z
   D9F540 ?pow@@YAMMM@Z
   D9F540 ?randomize_random_generator@relion@@YAXXZ
   D9F540 ?rnd_gaus@relion@@YAMMM@Z
   D9F540 ?rnd_log@relion@@YAMMM@Z
   D9F540 ?rnd_student_t@relion@@YAMMMM@Z
   D9F540 ?rnd_unif@relion@@YAMMM@Z
   D9F540 ?size@?$vector@Ufit_point2D@relion@@V?$allocator@Ufit_point2D@relion@@@std@@@std@@QEBA_KXZ
   D9F540 ?student_from_t0@relion@@YAMMM@Z
   D9F540 ?student_outside_probb@relion@@YAMMM@Z
   D9F540 ?student_outside_t0@relion@@YAMMM@Z
   D9F540 ?student_up_to_t0@relion@@YAMMM@Z
   D9F540 ?student_within_t0@relion@@YAMMM@Z
   D9F540 ?swapbytes@relion@@YAXPEADK@Z
   D9F540 ?tstudent1D@relion@@YAMMMMM@Z
   D9F540 __real@26101d7d
   D9F540 __real@3aab7132
   D9F540 __real@3c2936c6
   D9F540 __real@3e41cfbc
   D9F540 __real@3f000000
   D9F540 __real@3f4d87c6
   D9F540 __real@3f747ae147ae147b
   D9F540 __real@3fb76599
   D9F540 __real@3fe1111111111111
   D9F540 __real@400a934f0979a36c
   D9F540 __real@400c000000000000
   D9F540 __real@4020fe3b
   D9F540 __real@40486a55e5fb1c15
   D9F540 __real@40a00000
   D9F540 __real@42c80000
   D9F540 __real@46fffe00
   D9F540 __real@49742400
   D9F540 __real@c0000000
   D9F540 __real@c000000000000000
   DE8A74 ??$_Reallocate_grow_by@V<lambda_16d2cb92461ac9818af78a76c749bd7f>@@_K_KPEBD_K@?$basic_string@DU?$char_traits@D@std@@V?$allocator@D@2@@std@@QEAAAEAV01@_KV<lambda_16d2cb92461ac9818af78a76c749bd7f>@@_K2PEBD2@Z
   DE8A74 ??$_Traits_find_last_of@U?$char_traits@D@std@@@std@@YA_KQEBD_K101U?$integral_constant@_N$00@0@@Z
   DE8A74 ??$_Traits_find_last_of@U?$char_traits@D@std@@@std@@YA_KQEBD_K101U?$integral_constant@_N$0A@@0@@Z
   DE8A74 ??$_Traits_rfind@U?$char_traits@D@std@@@std@@YA_KQEBD_K101@Z
   DE8A74 ??0?$basic_ofstream@DU?$char_traits@D@std@@@std@@QEAA@PEBDHH@Z
   DE8A74 ??0FileName@relion@@QEAA@AEBV?$basic_string@DU?$char_traits@D@std@@V?$allocator@D@2@@std@@@Z
   DE8A74 ??R<lambda_16d2cb92461ac9818af78a76c749bd7f>@@QEBAXQEADQEBD_K2212@Z
   DE8A74 ??_C@_01JLIPDDHJ@?3@
   DE8A74 ??_C@_01KMDKNFGN@?1@
   DE8A74 ??_C@_01LFCBOECM@?4@
   DE8A74 ??_C@_03DGOGAGNC@raw@
   DE8A74 ??_C@_03EHPPJHCP@spi@
   DE8A74 ??_C@_0BN@DMBNLBOP@Not?5implemented?5for?5raw?5data@
   DE8A74 ??_C@_0CF@KDAIMCPH@d?3?2software?2liblion?2src?2filenam@
   DE8A74 ?_Get_data@?$_Vector_alloc@U?$_Vec_base_types@VFileName@relion@@V?$allocator@VFileName@relion@@@std@@@std@@@std@@QEBAAEBV?$_Vector_val@U?$_Simple_types@VFileName@relion@@@std@@@2@XZ
   DE8A74 ?_Get_second@?$_Compressed_pair@V?$allocator@VFileName@relion@@@std@@V?$_Vector_val@U?$_Simple_types@VFileName@relion@@@std@@@2@$00@std@@QEBAAEBV?$_Vector_val@U?$_Simple_types@VFileName@relion@@@std@@@2@XZ
   DE8A74 ?_Myfirst@?$_Vector_alloc@U?$_Vec_base_types@VFileName@relion@@V?$allocator@VFileName@relion@@@std@@@std@@@std@@QEBAAEBQEAVFileName@relion@@XZ
   DE8A74 ?_Mylast@?$_Vector_alloc@U?$_Vec_base_types@VFileName@relion@@V?$allocator@VFileName@relion@@@std@@@std@@@std@@QEBAAEBQEAVFileName@relion@@XZ
   DE8A74 ?__LINE__Var@?0??compose@FileName@relion@@QEAAXAEBV?$basic_string@DU?$char_traits@D@std@@V?$allocator@D@2@@std@@J0H@Z@4JA
   DE8A74 ?__LINE__Var@?0??compose@FileName@relion@@QEAAXJAEBV?$basic_string@DU?$char_traits@D@std@@V?$allocator@D@2@@std@@H@Z@4JA
   DE8A74 ?__LINE__Var@?0??globFiles@FileName@relion@@QEBAHAEAV?$vector@VFileName@relion@@V?$allocator@VFileName@relion@@@std@@@std@@@Z@4JA
   DE8A74 ?__LINE__Var@?0??removeFileFormat@FileName@relion@@QEBA?AV23@XZ@4JA
   DE8A74 ?addExtension@FileName@relion@@QEBA?AV12@AEBV?$basic_string@DU?$char_traits@D@std@@V?$allocator@D@2@@std@@@Z
   DE8A74 ?addPrefix@FileName@relion@@QEBA?AV12@AEBV?$basic_string@DU?$char_traits@D@std@@V?$allocator@D@2@@std@@@Z
   DE8A74 ?afterFirstOf@FileName@relion@@QEBA?AV12@AEBV?$basic_string@DU?$char_traits@D@std@@V?$allocator@D@2@@std@@@Z
   DE8A74 ?afterLastOf@FileName@relion@@QEBA?AV12@AEBV?$basic_string@DU?$char_traits@D@std@@V?$allocator@D@2@@std@@@Z
   DE8A74 ?beforeFirstOf@FileName@relion@@QEBA?AV12@AEBV?$basic_string@DU?$char_traits@D@std@@V?$allocator@D@2@@std@@@Z
   DE8A74 ?beforeLastOf@FileName@relion@@QEBA?AV12@AEBV?$basic_string@DU?$char_traits@D@std@@V?$allocator@D@2@@std@@@Z
   DE8A74 ?compose@FileName@relion@@QEAAXAEBV?$basic_string@DU?$char_traits@D@std@@V?$allocator@D@2@@std@@J0H@Z
   DE8A74 ?compose@FileName@relion@@QEAAXJAEBV?$basic_string@DU?$char_traits@D@std@@V?$allocator@D@2@@std@@H@Z
   DE8A74 ?contains@FileName@relion@@QEBA_NAEBV?$basic_string@DU?$char_traits@D@std@@V?$allocator@D@2@@std@@@Z
   DE8A74 ?copyFile@FileName@relion@@QEBAXAEBV12@@Z
   DE8A74 ?decompose@FileName@relion@@QEBAXAEAJAEAV?$basic_string@DU?$char_traits@D@std@@V?$allocator@D@2@@std@@@Z
   DE8A74 ?exists@relion@@YA_NAEBVFileName@1@@Z
   DE8A74 ?find_last_of@?$basic_string@DU?$char_traits@D@std@@V?$allocator@D@2@@std@@QEBA_KQEBD_K@Z
   DE8A74 ?getBaseName@FileName@relion@@QEBA?AV?$basic_string@DU?$char_traits@D@std@@V?$allocator@D@2@@std@@XZ
   DE8A74 ?getExtension@FileName@relion@@QEBA?AV?$basic_string@DU?$char_traits@D@std@@V?$allocator@D@2@@std@@XZ
   DE8A74 ?getFileFormat@FileName@relion@@QEBA?AV12@XZ
   DE8A74 ?globFiles@FileName@relion@@QEBAHAEAV?$vector@VFileName@relion@@V?$allocator@VFileName@relion@@@std@@@std@@@Z
   DE8A74 ?initRandom@FileName@relion@@QEAAXH@Z
   DE8A74 ?insertBeforeExtension@FileName@relion@@QEBA?AV12@AEBV?$basic_string@DU?$char_traits@D@std@@V?$allocator@D@2@@std@@@Z
   DE8A74 ?isInStack@FileName@relion@@QEBA_NXZ
   DE8A74 ?isStarFile@FileName@relion@@QEBA_NXZ
   DE8A74 ?rdbuf@?$basic_ifstream@DU?$char_traits@D@std@@@std@@QEBAPEAV?$basic_filebuf@DU?$char_traits@D@std@@@2@XZ
   DE8A74 ?removeAllExtensions@FileName@relion@@QEBA?AV12@XZ
   DE8A74 ?removeDirectories@FileName@relion@@QEBA?AV12@H@Z
   DE8A74 ?removeExtension@FileName@relion@@QEBA?AV12@AEBV?$basic_string@DU?$char_traits@D@std@@V?$allocator@D@2@@std@@@Z
   DE8A74 ?removeFileFormat@FileName@relion@@QEBA?AV12@XZ
   DE8A74 ?removeUntilPrefix@FileName@relion@@QEBA?AV12@AEBV?$basic_string@DU?$char_traits@D@std@@V?$allocator@D@2@@std@@@Z
   DE8A74 ?replace@?$basic_string@DU?$char_traits@D@std@@V?$allocator@D@2@@std@@QEAAAEAV12@_K0AEBV12@@Z
   DE8A74 ?replace@?$basic_string@DU?$char_traits@D@std@@V?$allocator@D@2@@std@@QEAAAEAV12@_K_KQEBD0@Z
   DE8A74 ?rfind@?$basic_string@DU?$char_traits@D@std@@V?$allocator@D@2@@std@@QEBA_KAEBV12@_K@Z
   DE8A74 ?rfind@?$basic_string@DU?$char_traits@D@std@@V?$allocator@D@2@@std@@QEBA_KQEBD_K@Z
   DE8A74 ?size@?$vector@VFileName@relion@@V?$allocator@VFileName@relion@@@std@@@std@@QEBA_KXZ
   DE8A74 ?substituteExtension@FileName@relion@@QEBA?AV12@AEBV?$basic_string@DU?$char_traits@D@std@@V?$allocator@D@2@@std@@0@Z
   DE8A74 ?textToInteger@relion@@YAHAEBV?$basic_string@DU?$char_traits@D@std@@V?$allocator@D@2@@std@@HV23@@Z
   DE8A74 ?toLowercase@FileName@relion@@QEBA?AV12@XZ
   DE8A74 ?toUppercase@FileName@relion@@QEBA?AV12@XZ
   DE8A74 ?without@FileName@relion@@QEBA?AV12@AEBV?$basic_string@DU?$char_traits@D@std@@V?$allocator@D@2@@std@@@Z
   DE8A74 ?withoutExtension@FileName@relion@@QEBA?AV12@XZ
   DE8A74 __real@41d00000
   E88062 $vcomp$critsect$Plan
   E88062 ??$initZeros@H@?$MultidimArray@M@relion@@QEAAXAEBV?$MultidimArray@H@1@@Z
   E88062 ??$inverseFourierTransform@V?$MultidimArray@VComplex@relion@@@relion@@V?$MultidimArray@M@2@@FourierTransformer@relion@@QEAAXAEAV?$MultidimArray@VComplex@relion@@@1@AEAV?$MultidimArray@M@1@@Z
   E88062 ??$resize@H@?$MultidimArray@M@relion@@QEAAXAEBV?$MultidimArray@H@1@_N@Z
   E88062 ??$sameShape@H@?$MultidimArray@M@relion@@QEBA_NAEBV?$MultidimArray@H@1@@Z
   E88062 ??$sameShape@VComplex@relion@@@?$MultidimArray@VComplex@relion@@@relion@@QEBA_NAEBV01@@Z
   E88062 ??$sqrt@JX@@YANJ@Z
   E88062 ??$windowFourierTransform@VComplex@relion@@@relion@@YAXAEAV?$MultidimArray@VComplex@relion@@@0@0J@Z
   E88062 ??0?$MultidimArray@H@relion@@QEAA@J@Z
   E88062 ??0?$MultidimArray@H@relion@@QEAA@XZ
   E88062 ??0?$MultidimArray@M@relion@@QEAA@J@Z
   E88062 ??0FourierTransformer@relion@@QEAA@AEBV01@@Z
   E88062 ??0FourierTransformer@relion@@QEAA@XZ
   E88062 ??1?$MultidimArray@H@relion@@QEAA@XZ
   E88062 ??1FourierTransformer@relion@@QEAA@XZ
   E88062 ??4?$MultidimArray@VComplex@relion@@@relion@@QEAAAEAV01@AEBV01@@Z
   E88062 ??4FourierTransformer@relion@@QEAAAEAV01@AEBV01@@Z
   E88062 ??R?$MultidimArray@H@relion@@QEBAAEAHJ@Z
   E88062 ??_7?$MultidimArray@H@relion@@6B@
   E88062 ??_C@_0BN@NLAKKPBK@FFTW?5plans?5cannot?5be?5created@
   E88062 ??_C@_0CB@JENDLEAE@No?5complex?5nor?5real?5data?5define@
   E88062 ??_C@_0CB@NFOMMEGC@d?3?2software?2liblion?2src?2fftw?4cp@
   E88062 ??_C@_0DJ@ELHIKAPG@applyBeamTilt?5can?5only?5be?5done?5@
   E88062 ??_C@_0DN@FEDMFOMO@windowFourierTransform?5ERROR?3?5d@
   E88062 ??_C@_0ED@HGHHABOF@lowPassFilterMap?3?5filtering?5of?5@
   E88062 ??_C@_0ED@JHAHPOMA@shiftImageInFourierTransform?5ER@
   E88062 ??_C@_0EF@ELIJLNPO@fourierShellCorrelation?5ERROR?3?5@
   E88062 ??_C@_0EI@MOEHOBPE@getKullbackLeibnerDivergence?5ER@
   E88062 ??_C@_0EN@GJEKDNC@getKullbackLeibnerDivergence?5ER@
   E88062 ??_C@_0FD@ENBEMAAM@getAbMatricesForShiftImageInFou@
   E88062 ??_C@_0FD@JBIBNFDO@getKullbackLeibnerDivergence?5ER@
   E88062 ??_C@_0GO@ECFKMKEE@windowFourierTransform?5ERROR?3?5t@
   E88062 ??_R0?AV?$MultidimArray@H@relion@@@8
   E88062 ??_R1A@?0A@EA@?$MultidimArray@H@relion@@8
   E88062 ??_R2?$MultidimArray@H@relion@@8
   E88062 ??_R3?$MultidimArray@H@relion@@8
   E88062 ??_R4?$MultidimArray@H@relion@@6B@
   E88062 ?FourierTransform@FourierTransformer@relion@@QEAAXXZ
   E88062 ?Transform@FourierTransformer@relion@@QEAAXH@Z
   E88062 ?__LINE__Var@?0??Transform@FourierTransformer@relion@@QEAAXH@Z@4JA
   E88062 ?__LINE__Var@?0??getAbMatricesForShiftImageInFourierTransform@relion@@YAXAEAV?$MultidimArray@VComplex@relion@@@2@0AEAVTabSine@2@AEAVTabCosine@2@MMMM@Z@4JA
   E88062 ?__LINE__Var@?0??getFSC@relion@@YAXAEAV?$MultidimArray@VComplex@relion@@@2@0AEAV?$MultidimArray@M@2@@Z@4JA
   E88062 ?__LINE__Var@?0??getKullbackLeibnerDivergence@relion@@YAMAEAV?$MultidimArray@VComplex@relion@@@2@0AEAV?$MultidimArray@M@2@11HH@Z@4JA
   E88062 ?__LINE__Var@?0??lowPassFilterMap@relion@@YAXAEAV?$MultidimArray@M@2@MMH@Z@4JA
   E88062 ?__LINE__Var@?0??selfApplyBeamTilt@relion@@YAXAEAV?$MultidimArray@VComplex@relion@@@2@MMMMMH@Z@4JA
   E88062 ?__LINE__Var@?0??setReal@FourierTransformer@relion@@QEAAXAEAV?$MultidimArray@M@3@@Z@4JA
   E88062 ?__LINE__Var@?0??setReal@FourierTransformer@relion@@QEAAXAEAV?$MultidimArray@VComplex@relion@@@3@@Z@4JA
   E88062 ?__LINE__Var@?0??shiftImageInFourierTransform@relion@@YAXAEAV?$MultidimArray@VComplex@relion@@@2@0AEAVTabSine@2@AEAVTabCosine@2@MMMM@Z@4JA
   E88062 ?__LINE__Var@?0??shiftImageInFourierTransform@relion@@YAXAEAV?$MultidimArray@VComplex@relion@@@2@0MMMM@Z@4JA
   E88062 ?adaptSpectrum@relion@@YAXAEAV?$MultidimArray@M@1@0AEBV21@H_N@Z
   E88062 ?alias@?$MultidimArray@H@relion@@UEAAXAEBV12@@Z
   E88062 ?applyBFactorToMap@relion@@YAXAEAV?$MultidimArray@M@1@MM@Z
   E88062 ?applyBFactorToMap@relion@@YAXAEAV?$MultidimArray@VComplex@relion@@@1@HMM@Z
   E88062 ?applyBeamTilt@relion@@YAXAEBV?$MultidimArray@VComplex@relion@@@1@AEAV21@MMMMMH@Z
   E88062 ?atan2@@YAMMM@Z
   E88062 ?cleanup@FourierTransformer@relion@@QEAAXXZ
   E88062 ?clear@?$MultidimArray@H@relion@@QEAAXXZ
   E88062 ?clear@FourierTransformer@relion@@QEAAXXZ
   E88062 ?copyShape@?$MultidimArray@H@relion@@QEAAXAEBV12@@Z
   E88062 ?coreAllocate@?$MultidimArray@H@relion@@UEAAXXZ
   E88062 ?coreAllocateReuse@?$MultidimArray@H@relion@@UEAAXXZ
   E88062 ?coreDeallocate@?$MultidimArray@H@relion@@UEAAXXZ
   E88062 ?coreInit@?$MultidimArray@H@relion@@QEAAXXZ
   E88062 ?destroyPlans@FourierTransformer@relion@@QEAAXXZ
   E88062 ?divideBySpectrum@relion@@YAXAEAV?$MultidimArray@M@1@0_N@Z
   E88062 ?enforceHermitianSymmetry@FourierTransformer@relion@@QEAAXXZ
   E88062 ?getAbMatricesForShiftImageInFourierTransform@relion@@YAXAEAV?$MultidimArray@VComplex@relion@@@1@0AEAVTabSine@1@AEAVTabCosine@1@MMMM@Z
   E88062 ?getComplex@FourierTransformer@relion@@QEBAAEBV?$MultidimArray@VComplex@relion@@@2@XZ
   E88062 ?getDim@?$MultidimArray@VComplex@relion@@@relion@@QEBAHXZ
   E88062 ?getFSC@relion@@YAXAEAV?$MultidimArray@M@1@00@Z
   E88062 ?getFSC@relion@@YAXAEAV?$MultidimArray@VComplex@relion@@@1@0AEAV?$MultidimArray@M@1@@Z
   E88062 ?getKullbackLeibnerDivergence@relion@@YAMAEAV?$MultidimArray@VComplex@relion@@@1@0AEAV?$MultidimArray@M@1@11HH@Z
   E88062 ?getReal@FourierTransformer@relion@@QEBAAEBV?$MultidimArray@M@2@XZ
   E88062 ?getSpectrum@relion@@YAXAEAV?$MultidimArray@M@1@0H@Z
   E88062 ?highPassFilterMap@relion@@YAXAEAV?$MultidimArray@M@1@MMH@Z
   E88062 ?init@FourierTransformer@relion@@QEAAXXZ
   E88062 ?initZeros@?$MultidimArray@H@relion@@QEAAXJ@Z
   E88062 ?initZeros@?$MultidimArray@H@relion@@QEAAXJJJJ@Z
   E88062 ?initZeros@?$MultidimArray@VComplex@relion@@@relion@@QEAAXJ@Z
   E88062 ?initZeros@?$MultidimArray@VComplex@relion@@@relion@@QEAAXJJ@Z
   E88062 ?initZeros@?$MultidimArray@VComplex@relion@@@relion@@QEAAXJJJ@Z
   E88062 ?initZeros@?$MultidimArray@VComplex@relion@@@relion@@QEAAXJJJJ@Z
   E88062 ?inverseFourierTransform@FourierTransformer@relion@@QEAAXXZ
   E88062 ?lowPassFilterMap@relion@@YAXAEAV?$MultidimArray@M@1@MMH@Z
   E88062 ?lowPassFilterMap@relion@@YAXAEAV?$MultidimArray@VComplex@relion@@@1@HMMH_N@Z
   E88062 ?multiplyBySpectrum@relion@@YAXAEAV?$MultidimArray@M@1@0_N@Z
   E88062 ?randomizePhasesBeyond@relion@@YAXAEAV?$MultidimArray@M@1@H@Z
   E88062 ?resize@?$MultidimArray@H@relion@@UEAAXJ@Z
   E88062 ?resize@?$MultidimArray@H@relion@@UEAAXJJ@Z
   E88062 ?resize@?$MultidimArray@H@relion@@UEAAXJJJJ_N@Z
   E88062 ?resize@?$MultidimArray@H@relion@@UEAAXJJJ_N@Z
   E88062 ?resizeMap@relion@@YAXAEAV?$MultidimArray@M@1@H@Z
   E88062 ?selfApplyBeamTilt@relion@@YAXAEAV?$MultidimArray@VComplex@relion@@@1@MMMMMH@Z
   E88062 ?setFourier@FourierTransformer@relion@@QEAAXAEAV?$MultidimArray@VComplex@relion@@@2@@Z
   E88062 ?setReal@FourierTransformer@relion@@QEAAXAEAV?$MultidimArray@M@2@@Z
   E88062 ?setReal@FourierTransformer@relion@@QEAAXAEAV?$MultidimArray@VComplex@relion@@@2@@Z
   E88062 ?setThreadsNumber@FourierTransformer@relion@@QEAAXH@Z
   E88062 ?shiftImageInFourierTransform@relion@@YAXAEAV?$MultidimArray@VComplex@relion@@@1@0AEAVTabSine@1@AEAVTabCosine@1@MMMM@Z
   E88062 ?shiftImageInFourierTransform@relion@@YAXAEAV?$MultidimArray@VComplex@relion@@@1@0MMMM@Z
   E88062 ?sum@?$MultidimArray@H@relion@@QEBAMXZ
   E88062 ?whitenSpectrum@relion@@YAXAEAV?$MultidimArray@M@1@0H_N@Z
   E88062 __real@3fd70a3d70a3d70a
   E88062 __real@416312d000000000
   F1F178 ??_C@_0CC@DELAFLIN@d?3?2software?2liblion?2src?2euler?4c@
   F1F178 ??_C@_0DB@MFLLFDEF@Euler_matrix2angles?3?5The?5Euler?5@
   F1F178 ??_C@_0JJ@CDHNMFJE@?6WARNING?3?5Routine?5Euler_directi@
   F1F178 ?Euler_angles2direction@relion@@YAXMMAEAV?$Matrix1D@M@1@@Z
   F1F178 ?Euler_angles2matrix@relion@@YAXMMMAEAV?$Matrix2D@M@1@_N@Z
   F1F178 ?Euler_another_set@relion@@YAXMMMAEAM00@Z
   F1F178 ?Euler_apply_transf@relion@@YAXAEBV?$Matrix2D@M@1@0MMMAEAM11@Z
   F1F178 ?Euler_direction2angles@relion@@YAXAEAV?$Matrix1D@M@1@AEAM1@Z
   F1F178 ?Euler_matrix2angles@relion@@YAXAEBV?$Matrix2D@M@1@AEAM11@Z
   F1F178 ?Euler_mirrorX@relion@@YAXMMMAEAM00@Z
   F1F178 ?Euler_mirrorXY@relion@@YAXMMMAEAM00@Z
   F1F178 ?Euler_mirrorY@relion@@YAXMMMAEAM00@Z
   F1F178 ?Euler_rotation3DMatrix@relion@@YAXMMMAEAV?$Matrix2D@M@1@@Z
   F1F178 ?Euler_up_down@relion@@YAXMMMAEAM00@Z
   F1F178 ?__LINE__Var@?0??Euler_matrix2angles@relion@@YAXAEBV?$Matrix2D@M@2@AEAM11@Z@4JA
   F1F178 __real@34000000
   F1F178 __real@36000000
   F1F178 __real@3e80000000000000
   F1F178 __real@3feffec097e03103
   F1F178 __real@40490fdb
   F1F178 __real@43340000
   F1F178 __real@c3340000
   F69F48 ??0RelionError@relion@@QEAA@AEBV?$basic_string@DU?$char_traits@D@std@@V?$allocator@D@2@@std@@0J@Z
   F69F48 ??6relion@@YAAEAV?$basic_ostream@DU?$char_traits@D@std@@@std@@AEAV12@AEBVRelionError@0@@Z
   F69F48 ??_C@_06IGPBOHMJ@File?3?5@
   F69F48 ??_C@_07JGMELADK@?5line?3?5@
   F9B184 ??_C@_0CA@GICCOHHO@d?3?2software?2liblion?2src?2ctf?4cpp@
   F9B184 ??_C@_0FM@NPMCALB@CTF?3?3initialise?5ERROR?3?5Amplitud@
   F9B184 ??_C@_0FO@LHBCODIJ@CTF?3?3initialise?3?5ERROR?3?5CTF?5ini@
   F9B184 ?__LINE__Var@?0??initialise@CTF@relion@@QEAAXXZ@4JA
   F9B184 ?__LINE__Var@?0??write@CTF@relion@@QEAAXAEAV?$basic_ostream@DU?$char_traits@D@std@@@std@@@Z@4JA
   F9B184 ?clear@CTF@relion@@QEAAXXZ
   F9B184 ?getCTF@CTF@relion@@QEBAMMM_N000@Z
   F9B184 ?getCenteredImage@CTF@relion@@QEAAXAEAV?$MultidimArray@M@2@M_N111@Z
   F9B184 ?getDeltaF@CTF@relion@@QEBAMMM@Z
   F9B184 ?getFftwImage@CTF@relion@@QEAAXAEAV?$MultidimArray@M@2@HHM_N111@Z
   F9B184 ?initialise@CTF@relion@@QEAAXXZ
   F9B184 ?setValues@CTF@relion@@QEAAXMMMMMMMMM@Z
   F9B184 ?write@CTF@relion@@QEAAXAEAV?$basic_ostream@DU?$char_traits@D@std@@@std@@@Z
   F9B184 __real@3eb06a7abe8fea4a
   F9B184 __real@3eb0c6f7a0b5ed8d
   F9B184 __real@40288755912c0cce
   F9B184 __real@408f400000000000
   F9B184 __real@43480000
   FD1B72 ??0Complex@relion@@QEAA@MM@Z
   FD1B72 ??DComplex@relion@@QEAA?AV01@AEAV01@@Z
   FD1B72 ??DComplex@relion@@QEAA?AV01@M@Z
   FD1B72 ??Drelion@@YA?AVComplex@0@AEBMAEBV10@@Z
   FD1B72 ??Drelion@@YA?AVComplex@0@AEBV10@0@Z
   FD1B72 ??Drelion@@YA?AVComplex@0@AEBV10@AEBM@Z
   FD1B72 ??GComplex@relion@@QEAA?AV01@AEAV01@@Z
   FD1B72 ??Grelion@@YA?AVComplex@0@AEBV10@0@Z
   FD1B72 ??HComplex@relion@@QEAA?AV01@AEAV01@@Z
   FD1B72 ??Hrelion@@YA?AVComplex@0@AEBV10@0@Z
   FD1B72 ??KComplex@relion@@QEAA?AV01@AEAV01@@Z
   FD1B72 ??KComplex@relion@@QEAA?AV01@M@Z
   FD1B72 ??Krelion@@YA?AVComplex@0@AEBV10@AEBM@Z
   FD1B72 ??XComplex@relion@@QEAAXM@Z
   FD1B72 ??YComplex@relion@@QEAAXAEAV01@@Z
   FD1B72 ??Yrelion@@YAXAEAVComplex@0@AEBV10@@Z
   FD1B72 ??ZComplex@relion@@QEAAXAEAV01@@Z
   FD1B72 ??Zrelion@@YAXAEAVComplex@0@AEBV10@@Z
   FD1B72 ??_0Complex@relion@@QEAAXM@Z
   FD1B72 ?abs@Complex@relion@@QEAAMXZ
   FD1B72 ?abs@relion@@YAMAEBVComplex@1@@Z
   FD1B72 ?arg@Complex@relion@@QEAAMXZ
   FD1B72 ?arg@relion@@YAMAEBVComplex@1@@Z
   FD1B72 ?conj@Complex@relion@@QEAA?AV12@XZ
   FD1B72 ?conj@relion@@YA?AVComplex@1@AEBV21@@Z
   FD1B72 ?norm@Complex@relion@@QEAAMXZ
   FD1B72 ?norm@relion@@YAMAEBVComplex@1@@Z
   FE20D0 ??$?6M@relion@@YAAEAV?$basic_ostream@DU?$char_traits@D@std@@@std@@AEAV12@AEBV?$MultidimArray@M@0@@Z
   FE20D0 ??$initZeros@M@?$MultidimArray@M@relion@@QEAAXAEBV01@@Z
   FE20D0 ??$initZeros@VComplex@relion@@@?$MultidimArray@M@relion@@QEAAXAEBV?$MultidimArray@VComplex@relion@@@1@@Z
   FE20D0 ??$resize@VComplex@relion@@@?$MultidimArray@M@relion@@QEAAXAEBV?$MultidimArray@VComplex@relion@@@1@_N@Z
   FE20D0 ??$sameShape@VComplex@relion@@@?$MultidimArray@M@relion@@QEBA_NAEBV?$MultidimArray@VComplex@relion@@@1@@Z
   FE20D0 ??0?$Image@M@relion@@QEAA@XZ
   FE20D0 ??1?$Image@M@relion@@QEAA@XZ
   FE20D0 ??X?$MultidimArray@M@relion@@QEAAXAEBM@Z
   FE20D0 ??_0?$MultidimArray@M@relion@@QEAAXAEBM@Z
   FE20D0 ??_0?$MultidimArray@M@relion@@QEAAXAEBV01@@Z
   FE20D0 ??_C@_06FNFFGFMJ@?5fsc?$DN?5@
   FE20D0 ??_C@_07GKADGHPD@?5tau2?$DN?5@
   FE20D0 ??_C@_09OIJOICIA@?5sigma2?$DN?5@
   FE20D0 ??_C@_0CA@ICBAOMBE@d?3?2software?2liblion?2src?2image?4h@
   FE20D0 ??_C@_0CK@OBKPFAEK@d?3?2software?2liblion?2src?2backpro@
   FE20D0 ??_C@_0DP@OIJFPKJL@BackProjector?3?3backrotate3D?$CF?$CFER@
   FE20D0 ??_C@_0EE@LHDPDIKK@FourierInterpolator?3?3backprojec@
   FE20D0 ??_C@_0EF@CEBIGKNP@FourierInterpolator?3?3backrotate@
   FE20D0 ??_C@_0EM@PHBCPMJB@ERROR?5BackProjector?3?3reconstruc@
   FE20D0 ??_C@_0EP@NGLCBPFB@BackProjector?3?3getLowResDataAnd@
   FE20D0 ??_C@_0FA@LMFEBJMN@BackProjector?3?3getLowResDataAnd@
   FE20D0 ??_C@_0FF@PBLFMOAA@BackProjector?3?3setLowResDataAnd@
   FE20D0 ??_C@_0FH@JICJHHGH@BackProjector?3?3setLowResDataAnd@
   FE20D0 ??_C@_0FJ@IPIILLAF@ERROR?5BackProjector?3?3reconstruc@
   FE20D0 ??_C@_0FK@KCMKKDEF@BackProjector?3?3getDownsampledAv@
   FE20D0 ??_C@_0GC@OGBCMNMO@ERROR?5BackProjector?3?3calculateD@
   FE20D0 ??_C@_0M@BEBGBDOI@NULL?5Array?6@
   FE20D0 ?__LINE__Var@?0??backproject@BackProjector@relion@@QEAAXAEBV?$MultidimArray@VComplex@relion@@@3@AEBV?$Matrix2D@M@3@_NPEBV?$MultidimArray@M@3@@Z@4JA
   FE20D0 ?__LINE__Var@?0??backrotate2D@BackProjector@relion@@QEAAXAEBV?$MultidimArray@VComplex@relion@@@3@AEBV?$Matrix2D@M@3@_NPEBV?$MultidimArray@M@3@@Z@4JA
   FE20D0 ?__LINE__Var@?0??backrotate3D@BackProjector@relion@@QEAAXAEBV?$MultidimArray@VComplex@relion@@@3@AEBV?$Matrix2D@M@3@_NPEBV?$MultidimArray@M@3@@Z@4JA
   FE20D0 ?__LINE__Var@?0??calculateDownSampledFourierShellCorrelation@BackProjector@relion@@QEAAXAEAV?$MultidimArray@VComplex@relion@@@3@0AEAV?$MultidimArray@M@3@@Z@4JA
   FE20D0 ?__LINE__Var@?0??getDownsampledAverage@BackProjector@relion@@QEAAXAEAV?$MultidimArray@VComplex@relion@@@3@@Z@4JA
   FE20D0 ?__LINE__Var@?0??getLowResDataAndWeight@BackProjector@relion@@QEAAXAEAV?$MultidimArray@VComplex@relion@@@3@AEAV?$MultidimArray@M@3@H@Z@4JA
   FE20D0 ?__LINE__Var@?0??reconstruct@BackProjector@relion@@QEAAXAEAV?$MultidimArray@M@3@H_NM000V43@M11HH@Z@4JA
   FE20D0 ?__LINE__Var@?0??setLowResDataAndWeight@BackProjector@relion@@QEAAXAEAV?$MultidimArray@VComplex@relion@@@3@AEAV?$MultidimArray@M@3@H@Z@4JA
   FE20D0 ?backproject@BackProjector@relion@@QEAAXAEBV?$MultidimArray@VComplex@relion@@@2@AEBV?$Matrix2D@M@2@_NPEBV?$MultidimArray@M@2@@Z
   FE20D0 ?backrotate2D@BackProjector@relion@@QEAAXAEBV?$MultidimArray@VComplex@relion@@@2@AEBV?$Matrix2D@M@2@_NPEBV?$MultidimArray@M@2@@Z
   FE20D0 ?backrotate3D@BackProjector@relion@@QEAAXAEBV?$MultidimArray@VComplex@relion@@@2@AEBV?$Matrix2D@M@2@_NPEBV?$MultidimArray@M@2@@Z
   FE20D0 ?calculateDownSampledFourierShellCorrelation@BackProjector@relion@@QEAAXAEAV?$MultidimArray@VComplex@relion@@@2@0AEAV?$MultidimArray@M@2@@Z
   FE20D0 ?clear@?$Image@M@relion@@QEAAXXZ
   FE20D0 ?clearHeader@?$Image@M@relion@@QEAAXXZ
   FE20D0 ?convoluteBlobRealSpace@BackProjector@relion@@QEAAXAEAVFourierTransformer@2@_N@Z
   FE20D0 ?decenter_cc@BackProjector@relion@@QEAAXAEAV?$MultidimArray@VComplex@relion@@@2@0H@Z
   FE20D0 ?decenter_ff@BackProjector@relion@@QEAAXAEAV?$MultidimArray@M@2@0H@Z
   FE20D0 ?enforceHermitianSymmetry@BackProjector@relion@@QEAAXAEAV?$MultidimArray@VComplex@relion@@@2@AEAV?$MultidimArray@M@2@@Z
   FE20D0 ?getDownsampledAverage@BackProjector@relion@@QEAAXAEAV?$MultidimArray@VComplex@relion@@@2@@Z
   FE20D0 ?getLowResDataAndWeight@BackProjector@relion@@QEAAXAEAV?$MultidimArray@VComplex@relion@@@2@AEAV?$MultidimArray@M@2@H@Z
   FE20D0 ?initZeros@BackProjector@relion@@QEAAXH@Z
   FE20D0 ?initialiseDataAndWeight@BackProjector@relion@@QEAAXH@Z
   FE20D0 ?reconstruct@BackProjector@relion@@QEAAXAEAV?$MultidimArray@M@2@H_NM000V32@M11HH@Z
   FE20D0 ?setLowResDataAndWeight@BackProjector@relion@@QEAAXAEAV?$MultidimArray@VComplex@relion@@@2@AEAV?$MultidimArray@M@2@H@Z
   FE20D0 ?symmetrise@BackProjector@relion@@QEAAXAEAV?$MultidimArray@VComplex@relion@@@2@AEAV?$MultidimArray@M@2@H@Z
   FE20D0 ?windowToOridimRealSpace@BackProjector@relion@@QEAAXAEAVFourierTransformer@2@AEAV?$MultidimArray@VComplex@relion@@@2@AEAV?$MultidimArray@M@2@H@Z
   FE20D0 __real@40400000
   FE20D0 __real@4415af1d78b58c40
   FE20D0 __real@4479c000
   FE20D0 __real@60ad78ec

  Summary

          30 .CRT$XCU
         4CA .bss
       4F4D8 .chks64
         254 .data
        1591 .data$r
      36691C .debug$S
         750 .debug$T
        2372 .drectve
         5F2 .msvcjmc
       18564 .pdata
       4CE1A .rdata
        2140 .rdata$r
          D0 .rtc$IMZ
          D0 .rtc$TMZ
         1A4 .text$di
      145B79 .text$mn
       153B2 .text$x
          D0 .text$yd
       37934 .xdata
         868 .xdata$x
